      10:	41 57                	push   %r15
      12:	41 56                	push   %r14
      14:	41 55                	push   %r13
      16:	41 54                	push   %r12
      18:	55                   	push   %rbp
      19:	53                   	push   %rbx
      1a:	48 81 ec 58 01 00 00 	sub    $0x158,%rsp
      21:	64 48 8b 04 25 28 00 	mov    %fs:0x28,%rax
      28:	00 00 
      2a:	48 89 84 24 48 01 00 	mov    %rax,0x148(%rsp)
      31:	00 
      32:	31 c0                	xor    %eax,%eax
      34:	c6 84 24 e8 00 00 00 	movb   $0x0,0xe8(%rsp)
      3b:	00 
      3c:	c6 84 24 f0 00 00 00 	movb   $0x0,0xf0(%rsp)
      43:	00 
      44:	c6 84 24 f1 00 00 00 	movb   $0x0,0xf1(%rsp)
      4b:	00 
      4c:	48 c7 84 24 f8 00 00 	movq   $0x0,0xf8(%rsp)
      53:	00 00 00 00 00 
      58:	48 c7 84 24 00 01 00 	movq   $0x0,0x100(%rsp)
      5f:	00 00 00 00 00 
      64:	48 c7 84 24 08 01 00 	movq   $0x0,0x108(%rsp)
      6b:	00 00 00 00 00 
      70:	48 c7 84 24 10 01 00 	movq   $0x0,0x110(%rsp)
      77:	00 00 00 00 00 
      7c:	48 c7 84 24 18 01 00 	movq   $0x0,0x118(%rsp)
      83:	00 00 00 00 00 
      88:	48 c7 84 24 d0 00 00 	movq   $0x0,0xd0(%rsp)
      8f:	00 00 00 00 00 
      94:	48 c7 44 24 30 00 00 	movq   $0x0,0x30(%rsp)
      9b:	00 00 
      9d:	48 c7 44 24 38 00 00 	movq   $0x0,0x38(%rsp)
      a4:	00 00 
      a6:	66 2e 0f 1f 84 00 00 	nopw   %cs:0x0(%rax,%rax,1)
      ad:	00 00 00 
      b0:	31 db                	xor    %ebx,%ebx
      b2:	eb 38                	jmp    ec <_Z5test2v+0xec>
      b4:	0f 1f 40 00          	nopl   0x0(%rax)
      b8:	48 81 fb f9 00 00 00 	cmp    $0xf9,%rbx
      bf:	76 7f                	jbe    140 <_Z5test2v+0x140>
      c1:	48 8d bc 24 a0 00 00 	lea    0xa0(%rsp),%rdi
      c8:	00 
      c9:	31 f6                	xor    %esi,%esi
      cb:	48 c7 84 24 a0 00 00 	movq   $0x0,0xa0(%rsp)
      d2:	00 00 00 00 00 
      d7:	48 c7 84 24 a8 00 00 	movq   $0xf4240,0xa8(%rsp)
      de:	00 40 42 0f 00 
      e3:	e8 00 00 00 00       	callq  e8 <_Z5test2v+0xe8>
      e8:	48 83 c3 01          	add    $0x1,%rbx
      ec:	0f b6 84 24 f0 00 00 	movzbl 0xf0(%rsp),%eax
      f3:	00 
      f4:	84 c0                	test   %al,%al
      f6:	74 10                	je     108 <_Z5test2v+0x108>
      f8:	48 83 fb 7c          	cmp    $0x7c,%rbx
      fc:	77 ba                	ja     b8 <_Z5test2v+0xb8>
      fe:	f3 90                	pause  
     100:	eb e6                	jmp    e8 <_Z5test2v+0xe8>
     102:	66 0f 1f 44 00 00    	nopw   0x0(%rax,%rax,1)
     108:	b8 01 00 00 00       	mov    $0x1,%eax
     10d:	89 c2                	mov    %eax,%edx
     10f:	86 94 24 f0 00 00 00 	xchg   %dl,0xf0(%rsp)
     116:	84 d2                	test   %dl,%dl
     118:	75 de                	jne    f8 <_Z5test2v+0xf8>
     11a:	48 8b 94 24 f8 00 00 	mov    0xf8(%rsp),%rdx
     121:	00 
     122:	48 85 d2             	test   %rdx,%rdx
     125:	74 79                	je     1a0 <_Z5test2v+0x1a0>
     127:	0f b6 4a 20          	movzbl 0x20(%rdx),%ecx
     12b:	48 8d 72 20          	lea    0x20(%rdx),%rsi
     12f:	84 c9                	test   %cl,%cl
     131:	74 1d                	je     150 <_Z5test2v+0x150>
     133:	c6 84 24 f0 00 00 00 	movb   $0x0,0xf0(%rsp)
     13a:	00 
     13b:	e9 70 ff ff ff       	jmpq   b0 <_Z5test2v+0xb0>
     140:	e8 00 00 00 00       	callq  145 <_Z5test2v+0x145>
     145:	eb a1                	jmp    e8 <_Z5test2v+0xe8>
     147:	66 0f 1f 84 00 00 00 	nopw   0x0(%rax,%rax,1)
     14e:	00 00 
     150:	86 06                	xchg   %al,(%rsi)
     152:	84 c0                	test   %al,%al
     154:	75 dd                	jne    133 <_Z5test2v+0x133>
     156:	48 8d ac 24 d0 00 00 	lea    0xd0(%rsp),%rbp
     15d:	00 
     15e:	48 89 54 24 38       	mov    %rdx,0x38(%rsp)
     163:	48 89 6c 24 30       	mov    %rbp,0x30(%rsp)
     168:	bf 20 00 00 00       	mov    $0x20,%edi
     16d:	e8 00 00 00 00       	callq  172 <_Z5test2v+0x172>
     172:	49 89 c4             	mov    %rax,%r12
     175:	e8 00 00 00 00       	callq  17a <_Z5test2v+0x17a>
     17a:	be 01 00 00 00       	mov    $0x1,%esi
     17f:	48 89 c2             	mov    %rax,%rdx
     182:	4c 89 e7             	mov    %r12,%rdi
     185:	e8 00 00 00 00       	callq  18a <_Z5test2v+0x18a>
     18a:	ba 00 00 00 00       	mov    $0x0,%edx
     18f:	be 00 00 00 00       	mov    $0x0,%esi
     194:	4c 89 e7             	mov    %r12,%rdi
     197:	e8 00 00 00 00       	callq  19c <_Z5test2v+0x19c>
     19c:	0f 1f 40 00          	nopl   0x0(%rax)
     1a0:	48 83 7c 24 38 00    	cmpq   $0x0,0x38(%rsp)
     1a6:	48 8d ac 24 d0 00 00 	lea    0xd0(%rsp),%rbp
     1ad:	00 
     1ae:	48 89 6c 24 30       	mov    %rbp,0x30(%rsp)
     1b3:	75 b3                	jne    168 <_Z5test2v+0x168>
     1b5:	80 bc 24 f1 00 00 00 	cmpb   $0x0,0xf1(%rsp)
     1bc:	00 
     1bd:	75 a9                	jne    168 <_Z5test2v+0x168>
     1bf:	0f b6 84 24 e8 00 00 	movzbl 0xe8(%rsp),%eax
     1c6:	00 
     1c7:	c6 84 24 b8 00 00 00 	movb   $0x0,0xb8(%rsp)
     1ce:	00 
     1cf:	c6 84 24 c0 00 00 00 	movb   $0x0,0xc0(%rsp)
     1d6:	00 
     1d7:	c6 84 24 c1 00 00 00 	movb   $0x0,0xc1(%rsp)
     1de:	00 
     1df:	48 c7 84 24 c8 00 00 	movq   $0x0,0xc8(%rsp)
     1e6:	00 00 00 00 00 
     1eb:	48 c7 84 24 a0 00 00 	movq   $0x0,0xa0(%rsp)
     1f2:	00 00 00 00 00 
     1f7:	84 c0                	test   %al,%al
     1f9:	0f 85 36 03 00 00    	jne    535 <_Z5test2v+0x535>
     1ff:	4c 8d a4 24 a0 00 00 	lea    0xa0(%rsp),%r12
     206:	00 
     207:	48 89 ac 24 c8 00 00 	mov    %rbp,0xc8(%rsp)
     20e:	00 
     20f:	4c 89 a4 24 f8 00 00 	mov    %r12,0xf8(%rsp)
     216:	00 
     217:	c6 84 24 f0 00 00 00 	movb   $0x0,0xf0(%rsp)
     21e:	00 
     21f:	48 8b 44 24 38       	mov    0x38(%rsp),%rax
     224:	48 c7 44 24 30 00 00 	movq   $0x0,0x30(%rsp)
     22b:	00 00 
     22d:	48 85 c0             	test   %rax,%rax
     230:	74 32                	je     264 <_Z5test2v+0x264>
     232:	c6 40 20 00          	movb   $0x0,0x20(%rax)
     236:	48 8b 44 24 30       	mov    0x30(%rsp),%rax
     23b:	48 c7 44 24 38 00 00 	movq   $0x0,0x38(%rsp)
     242:	00 00 
     244:	48 85 c0             	test   %rax,%rax
     247:	74 1b                	je     264 <_Z5test2v+0x264>
     249:	c6 40 20 00          	movb   $0x0,0x20(%rax)
     24d:	48 8b 44 24 38       	mov    0x38(%rsp),%rax
     252:	48 c7 44 24 30 00 00 	movq   $0x0,0x30(%rsp)
     259:	00 00 
     25b:	48 85 c0             	test   %rax,%rax
     25e:	74 04                	je     264 <_Z5test2v+0x264>
     260:	c6 40 20 00          	movb   $0x0,0x20(%rax)
     264:	48 c7 44 24 40 00 00 	movq   $0x0,0x40(%rsp)
     26b:	00 00 
     26d:	48 c7 44 24 48 00 00 	movq   $0x0,0x48(%rsp)
     274:	00 00 
     276:	66 2e 0f 1f 84 00 00 	nopw   %cs:0x0(%rax,%rax,1)
     27d:	00 00 00 
     280:	31 db                	xor    %ebx,%ebx
     282:	eb 2f                	jmp    2b3 <_Z5test2v+0x2b3>
     284:	0f 1f 40 00          	nopl   0x0(%rax)
     288:	48 81 fb f9 00 00 00 	cmp    $0xf9,%rbx
     28f:	76 7f                	jbe    310 <_Z5test2v+0x310>
     291:	48 8d 7c 24 70       	lea    0x70(%rsp),%rdi
     296:	31 f6                	xor    %esi,%esi
     298:	48 c7 44 24 70 00 00 	movq   $0x0,0x70(%rsp)
     29f:	00 00 
     2a1:	48 c7 44 24 78 40 42 	movq   $0xf4240,0x78(%rsp)
     2a8:	0f 00 
     2aa:	e8 00 00 00 00       	callq  2af <_Z5test2v+0x2af>
     2af:	48 83 c3 01          	add    $0x1,%rbx
     2b3:	0f b6 84 24 f0 00 00 	movzbl 0xf0(%rsp),%eax
     2ba:	00 
     2bb:	84 c0                	test   %al,%al
     2bd:	74 11                	je     2d0 <_Z5test2v+0x2d0>
     2bf:	48 83 fb 7c          	cmp    $0x7c,%rbx
     2c3:	77 c3                	ja     288 <_Z5test2v+0x288>
     2c5:	f3 90                	pause  
     2c7:	eb e6                	jmp    2af <_Z5test2v+0x2af>
     2c9:	0f 1f 80 00 00 00 00 	nopl   0x0(%rax)
     2d0:	b8 01 00 00 00       	mov    $0x1,%eax
     2d5:	89 c2                	mov    %eax,%edx
     2d7:	86 94 24 f0 00 00 00 	xchg   %dl,0xf0(%rsp)
     2de:	84 d2                	test   %dl,%dl
     2e0:	75 dd                	jne    2bf <_Z5test2v+0x2bf>
     2e2:	48 8b 94 24 f8 00 00 	mov    0xf8(%rsp),%rdx
     2e9:	00 
     2ea:	48 85 d2             	test   %rdx,%rdx
     2ed:	0f 84 fc 01 00 00    	je     4ef <_Z5test2v+0x4ef>
     2f3:	0f b6 4a 20          	movzbl 0x20(%rdx),%ecx
     2f7:	48 8d 72 20          	lea    0x20(%rdx),%rsi
     2fb:	84 c9                	test   %cl,%cl
     2fd:	74 21                	je     320 <_Z5test2v+0x320>
     2ff:	c6 84 24 f0 00 00 00 	movb   $0x0,0xf0(%rsp)
     306:	00 
     307:	e9 74 ff ff ff       	jmpq   280 <_Z5test2v+0x280>
     30c:	0f 1f 40 00          	nopl   0x0(%rax)
     310:	e8 00 00 00 00       	callq  315 <_Z5test2v+0x315>
     315:	eb 98                	jmp    2af <_Z5test2v+0x2af>
     317:	66 0f 1f 84 00 00 00 	nopw   0x0(%rax,%rax,1)
     31e:	00 00 
     320:	86 06                	xchg   %al,(%rsi)
     322:	84 c0                	test   %al,%al
     324:	75 d9                	jne    2ff <_Z5test2v+0x2ff>
     326:	80 bc 24 f1 00 00 00 	cmpb   $0x0,0xf1(%rsp)
     32d:	00 
     32e:	48 89 6c 24 40       	mov    %rbp,0x40(%rsp)
     333:	48 89 54 24 48       	mov    %rdx,0x48(%rsp)
     338:	0f 85 35 02 00 00    	jne    573 <_Z5test2v+0x573>
     33e:	80 7a 18 00          	cmpb   $0x0,0x18(%rdx)
     342:	0f 85 64 0e 00 00    	jne    11ac <_Z5test2v+0x11ac>
     348:	48 8b 84 24 00 01 00 	mov    0x100(%rsp),%rax
     34f:	00 
     350:	48 85 c0             	test   %rax,%rax
     353:	0f 84 5d 07 00 00    	je     ab6 <_Z5test2v+0xab6>
     359:	c7 40 08 05 00 00 00 	movl   $0x5,0x8(%rax)
     360:	c6 40 18 01          	movb   $0x1,0x18(%rax)
     364:	48 8b 84 24 00 01 00 	mov    0x100(%rsp),%rax
     36b:	00 
     36c:	48 89 44 24 50       	mov    %rax,0x50(%rsp)
     371:	48 8b 84 24 08 01 00 	mov    0x108(%rsp),%rax
     378:	00 
     379:	48 c7 84 24 08 01 00 	movq   $0x0,0x108(%rsp)
     380:	00 00 00 00 00 
     385:	c6 84 24 f1 00 00 00 	movb   $0x1,0xf1(%rsp)
     38c:	01 
     38d:	48 89 44 24 58       	mov    %rax,0x58(%rsp)
     392:	48 8b 84 24 10 01 00 	mov    0x110(%rsp),%rax
     399:	00 
     39a:	48 c7 84 24 10 01 00 	movq   $0x0,0x110(%rsp)
     3a1:	00 00 00 00 00 
     3a6:	48 89 44 24 60       	mov    %rax,0x60(%rsp)
     3ab:	48 8b 84 24 18 01 00 	mov    0x118(%rsp),%rax
     3b2:	00 
     3b3:	48 c7 84 24 18 01 00 	movq   $0x0,0x118(%rsp)
     3ba:	00 00 00 00 00 
     3bf:	48 89 44 24 68       	mov    %rax,0x68(%rsp)
     3c4:	48 8b 44 24 48       	mov    0x48(%rsp),%rax
     3c9:	48 c7 40 28 00 00 00 	movq   $0x0,0x28(%rax)
     3d0:	00 
     3d1:	48 8b 54 24 40       	mov    0x40(%rsp),%rdx
     3d6:	48 c7 84 24 f8 00 00 	movq   $0x0,0xf8(%rsp)
     3dd:	00 00 00 00 00 
     3e2:	48 85 d2             	test   %rdx,%rdx
     3e5:	74 17                	je     3fe <_Z5test2v+0x3fe>
     3e7:	c6 42 20 00          	movb   $0x0,0x20(%rdx)
     3eb:	48 8b 44 24 48       	mov    0x48(%rsp),%rax
     3f0:	48 c7 44 24 40 00 00 	movq   $0x0,0x40(%rsp)
     3f7:	00 00 
     3f9:	48 85 c0             	test   %rax,%rax
     3fc:	74 0d                	je     40b <_Z5test2v+0x40b>
     3fe:	c6 40 20 00          	movb   $0x0,0x20(%rax)
     402:	48 c7 44 24 48 00 00 	movq   $0x0,0x48(%rsp)
     409:	00 00 
     40b:	48 8b 7c 24 58       	mov    0x58(%rsp),%rdi
     410:	48 85 ff             	test   %rdi,%rdi
     413:	74 15                	je     42a <_Z5test2v+0x42a>
     415:	48 8b 44 24 50       	mov    0x50(%rsp),%rax
     41a:	48 8d 74 24 28       	lea    0x28(%rsp),%rsi
     41f:	48 89 44 24 28       	mov    %rax,0x28(%rsp)
     424:	48 8b 07             	mov    (%rdi),%rax
     427:	ff 50 10             	callq  *0x10(%rax)
     42a:	48 8b 44 24 60       	mov    0x60(%rsp),%rax
     42f:	48 85 c0             	test   %rax,%rax
     432:	0f 84 23 07 00 00    	je     b5b <_Z5test2v+0xb5b>
     438:	48 89 84 24 20 01 00 	mov    %rax,0x120(%rsp)
     43f:	00 
     440:	48 c7 84 24 38 01 00 	movq   $0x0,0x138(%rsp)
     447:	00 00 00 00 00 
     44c:	48 8d 54 24 70       	lea    0x70(%rsp),%rdx
     451:	48 c7 84 24 30 01 00 	movq   $0x0,0x130(%rsp)
     458:	00 00 00 00 00 
     45d:	48 8b 18             	mov    (%rax),%rbx
     460:	48 8d 44 24 07       	lea    0x7(%rsp),%rax
     465:	4c 8d ac 24 20 01 00 	lea    0x120(%rsp),%r13
     46c:	00 
     46d:	c6 44 24 07 00       	movb   $0x0,0x7(%rsp)
     472:	48 c7 84 24 88 00 00 	movq   $0x0,0x88(%rsp)
     479:	00 00 00 00 00 
     47e:	48 89 44 24 70       	mov    %rax,0x70(%rsp)
     483:	48 8b 05 00 00 00 00 	mov    0x0(%rip),%rax        # 48a <_Z5test2v+0x48a>
     48a:	4c 89 6c 24 78       	mov    %r13,0x78(%rsp)
     48f:	48 89 9c 24 80 00 00 	mov    %rbx,0x80(%rsp)
     496:	00 
     497:	48 c7 84 24 90 00 00 	movq   $0x0,0x90(%rsp)
     49e:	00 00 00 00 00 
     4a3:	64 48 89 10          	mov    %rdx,%fs:(%rax)
     4a7:	48 8b 05 00 00 00 00 	mov    0x0(%rip),%rax        # 4ae <_Z5test2v+0x4ae>
     4ae:	64 48 c7 00 00 00 00 	movq   $0x0,%fs:(%rax)
     4b5:	00 
     4b6:	b8 00 00 00 00       	mov    $0x0,%eax
     4bb:	48 85 c0             	test   %rax,%rax
     4be:	0f 84 b9 00 00 00    	je     57d <_Z5test2v+0x57d>
     4c4:	48 8d 7b 18          	lea    0x18(%rbx),%rdi
     4c8:	be 00 00 00 00       	mov    $0x0,%esi
     4cd:	e8 00 00 00 00       	callq  4d2 <_Z5test2v+0x4d2>
     4d2:	85 c0                	test   %eax,%eax
     4d4:	0f 85 a8 00 00 00    	jne    582 <_Z5test2v+0x582>
     4da:	80 7c 24 07 00       	cmpb   $0x0,0x7(%rsp)
     4df:	0f 85 ab 00 00 00    	jne    590 <_Z5test2v+0x590>
     4e5:	bf 02 00 00 00       	mov    $0x2,%edi
     4ea:	e8 00 00 00 00       	callq  4ef <_Z5test2v+0x4ef>
     4ef:	80 bc 24 f1 00 00 00 	cmpb   $0x0,0xf1(%rsp)
     4f6:	00 
     4f7:	48 89 6c 24 40       	mov    %rbp,0x40(%rsp)
     4fc:	75 75                	jne    573 <_Z5test2v+0x573>
     4fe:	48 8b 54 24 48       	mov    0x48(%rsp),%rdx
     503:	48 85 d2             	test   %rdx,%rdx
     506:	0f 85 32 fe ff ff    	jne    33e <_Z5test2v+0x33e>
     50c:	80 bc 24 e8 00 00 00 	cmpb   $0x0,0xe8(%rsp)
     513:	00 
     514:	0f 85 ae 0c 00 00    	jne    11c8 <_Z5test2v+0x11c8>
     51a:	c7 84 24 d8 00 00 00 	movl   $0x5,0xd8(%rsp)
     521:	05 00 00 00 
     525:	c6 84 24 e8 00 00 00 	movb   $0x1,0xe8(%rsp)
     52c:	01 
     52d:	48 89 e8             	mov    %rbp,%rax
     530:	e9 ba 00 00 00       	jmpq   5ef <_Z5test2v+0x5ef>
     535:	3c 02                	cmp    $0x2,%al
     537:	0f 84 a3 06 00 00    	je     be0 <_Z5test2v+0xbe0>
     53d:	3c 03                	cmp    $0x3,%al
     53f:	0f 84 9c 04 00 00    	je     9e1 <_Z5test2v+0x9e1>
     545:	3c 01                	cmp    $0x1,%al
     547:	75 0e                	jne    557 <_Z5test2v+0x557>
     549:	8b 94 24 d8 00 00 00 	mov    0xd8(%rsp),%edx
     550:	89 94 24 a8 00 00 00 	mov    %edx,0xa8(%rsp)
     557:	88 84 24 b8 00 00 00 	mov    %al,0xb8(%rsp)
     55e:	c6 84 24 f1 00 00 00 	movb   $0x1,0xf1(%rsp)
     565:	01 
     566:	4c 8d a4 24 a0 00 00 	lea    0xa0(%rsp),%r12
     56d:	00 
     56e:	e9 a4 fc ff ff       	jmpq   217 <_Z5test2v+0x217>
     573:	bf 01 00 00 00       	mov    $0x1,%edi
     578:	e8 00 00 00 00       	callq  57d <_Z5test2v+0x57d>
     57d:	b8 ff ff ff ff       	mov    $0xffffffff,%eax
     582:	89 c7                	mov    %eax,%edi
     584:	e8 00 00 00 00       	callq  589 <_Z5test2v+0x589>
     589:	0f 1f 80 00 00 00 00 	nopl   0x0(%rax)
     590:	48 8d 7b 10          	lea    0x10(%rbx),%rdi
     594:	b8 01 00 00 00       	mov    $0x1,%eax
     599:	87 07                	xchg   %eax,(%rdi)
     59b:	85 c0                	test   %eax,%eax
     59d:	0f 88 b8 08 00 00    	js     e5b <_Z5test2v+0xe5b>
     5a3:	48 8b 84 24 30 01 00 	mov    0x130(%rsp),%rax
     5aa:	00 
     5ab:	48 85 c0             	test   %rax,%rax
     5ae:	74 0d                	je     5bd <_Z5test2v+0x5bd>
     5b0:	ba 03 00 00 00       	mov    $0x3,%edx
     5b5:	4c 89 ee             	mov    %r13,%rsi
     5b8:	4c 89 ef             	mov    %r13,%rdi
     5bb:	ff d0                	callq  *%rax
     5bd:	48 8b 5c 24 68       	mov    0x68(%rsp),%rbx
     5c2:	48 85 db             	test   %rbx,%rbx
     5c5:	48 8d 43 08          	lea    0x8(%rbx),%rax
     5c9:	74 0a                	je     5d5 <_Z5test2v+0x5d5>
     5cb:	f0 83 28 01          	lock subl $0x1,(%rax)
     5cf:	0f 84 eb 07 00 00    	je     dc0 <_Z5test2v+0xdc0>
     5d5:	48 8b 7c 24 58       	mov    0x58(%rsp),%rdi
     5da:	48 85 ff             	test   %rdi,%rdi
     5dd:	74 06                	je     5e5 <_Z5test2v+0x5e5>
     5df:	48 8b 07             	mov    (%rdi),%rax
     5e2:	ff 50 08             	callq  *0x8(%rax)
     5e5:	48 8b 44 24 40       	mov    0x40(%rsp),%rax
     5ea:	48 85 c0             	test   %rax,%rax
     5ed:	74 0d                	je     5fc <_Z5test2v+0x5fc>
     5ef:	c6 40 20 00          	movb   $0x0,0x20(%rax)
     5f3:	48 c7 44 24 40 00 00 	movq   $0x0,0x40(%rsp)
     5fa:	00 00 
     5fc:	48 8b 44 24 48       	mov    0x48(%rsp),%rax
     601:	48 85 c0             	test   %rax,%rax
     604:	74 04                	je     60a <_Z5test2v+0x60a>
     606:	c6 40 20 00          	movb   $0x0,0x20(%rax)
     60a:	4c 89 e7             	mov    %r12,%rdi
     60d:	e8 00 00 00 00       	callq  612 <_Z5test2v+0x612>
     612:	48 c7 44 24 50 00 00 	movq   $0x0,0x50(%rsp)
     619:	00 00 
     61b:	48 c7 44 24 58 00 00 	movq   $0x0,0x58(%rsp)
     622:	00 00 
     624:	0f 1f 40 00          	nopl   0x0(%rax)
     628:	31 db                	xor    %ebx,%ebx
     62a:	eb 2f                	jmp    65b <_Z5test2v+0x65b>
     62c:	0f 1f 40 00          	nopl   0x0(%rax)
     630:	48 81 fb f9 00 00 00 	cmp    $0xf9,%rbx
     637:	76 7f                	jbe    6b8 <_Z5test2v+0x6b8>
     639:	48 8d 7c 24 70       	lea    0x70(%rsp),%rdi
     63e:	31 f6                	xor    %esi,%esi
     640:	48 c7 44 24 70 00 00 	movq   $0x0,0x70(%rsp)
     647:	00 00 
     649:	48 c7 44 24 78 40 42 	movq   $0xf4240,0x78(%rsp)
     650:	0f 00 
     652:	e8 00 00 00 00       	callq  657 <_Z5test2v+0x657>
     657:	48 83 c3 01          	add    $0x1,%rbx
     65b:	0f b6 84 24 c0 00 00 	movzbl 0xc0(%rsp),%eax
     662:	00 
     663:	84 c0                	test   %al,%al
     665:	74 11                	je     678 <_Z5test2v+0x678>
     667:	48 83 fb 7c          	cmp    $0x7c,%rbx
     66b:	77 c3                	ja     630 <_Z5test2v+0x630>
     66d:	f3 90                	pause  
     66f:	eb e6                	jmp    657 <_Z5test2v+0x657>
     671:	0f 1f 80 00 00 00 00 	nopl   0x0(%rax)
     678:	b8 01 00 00 00       	mov    $0x1,%eax
     67d:	89 c2                	mov    %eax,%edx
     67f:	86 94 24 c0 00 00 00 	xchg   %dl,0xc0(%rsp)
     686:	84 d2                	test   %dl,%dl
     688:	75 dd                	jne    667 <_Z5test2v+0x667>
     68a:	48 8b 94 24 c8 00 00 	mov    0xc8(%rsp),%rdx
     691:	00 
     692:	48 85 d2             	test   %rdx,%rdx
     695:	0f 84 ba 02 00 00    	je     955 <_Z5test2v+0x955>
     69b:	0f b6 4a 20          	movzbl 0x20(%rdx),%ecx
     69f:	48 8d 72 20          	lea    0x20(%rdx),%rsi
     6a3:	84 c9                	test   %cl,%cl
     6a5:	74 19                	je     6c0 <_Z5test2v+0x6c0>
     6a7:	c6 84 24 c0 00 00 00 	movb   $0x0,0xc0(%rsp)
     6ae:	00 
     6af:	e9 74 ff ff ff       	jmpq   628 <_Z5test2v+0x628>
     6b4:	0f 1f 40 00          	nopl   0x0(%rax)
     6b8:	e8 00 00 00 00       	callq  6bd <_Z5test2v+0x6bd>
     6bd:	eb 98                	jmp    657 <_Z5test2v+0x657>
     6bf:	90                   	nop
     6c0:	86 06                	xchg   %al,(%rsi)
     6c2:	84 c0                	test   %al,%al
     6c4:	75 e1                	jne    6a7 <_Z5test2v+0x6a7>
     6c6:	48 89 54 24 50       	mov    %rdx,0x50(%rsp)
     6cb:	4c 89 64 24 58       	mov    %r12,0x58(%rsp)
     6d0:	80 bc 24 c1 00 00 00 	cmpb   $0x0,0xc1(%rsp)
     6d7:	00 
     6d8:	0f 85 9a 0a 00 00    	jne    1178 <_Z5test2v+0x1178>
     6de:	48 83 bc 24 c8 00 00 	cmpq   $0x0,0xc8(%rsp)
     6e5:	00 00 
     6e7:	0f b6 84 24 b8 00 00 	movzbl 0xb8(%rsp),%eax
     6ee:	00 
     6ef:	0f 84 ab 04 00 00    	je     ba0 <_Z5test2v+0xba0>
     6f5:	3c 02                	cmp    $0x2,%al
     6f7:	0f 84 08 05 00 00    	je     c05 <_Z5test2v+0xc05>
     6fd:	3c 03                	cmp    $0x3,%al
     6ff:	75 4f                	jne    750 <_Z5test2v+0x750>
     701:	49 8d 5c 24 08       	lea    0x8(%r12),%rbx
     706:	4c 8d 74 24 40       	lea    0x40(%rsp),%r14
     70b:	48 89 de             	mov    %rbx,%rsi
     70e:	4c 89 f7             	mov    %r14,%rdi
     711:	e8 00 00 00 00       	callq  716 <_Z5test2v+0x716>
     716:	0f b6 84 24 b8 00 00 	movzbl 0xb8(%rsp),%eax
     71d:	00 
     71e:	3c 02                	cmp    $0x2,%al
     720:	0f 84 8b 06 00 00    	je     db1 <_Z5test2v+0xdb1>
     726:	3c 03                	cmp    $0x3,%al
     728:	0f 84 7b 06 00 00    	je     da9 <_Z5test2v+0xda9>
     72e:	3c 01                	cmp    $0x1,%al
     730:	0f 84 7b 06 00 00    	je     db1 <_Z5test2v+0xdb1>
     736:	48 8d 7c 24 70       	lea    0x70(%rsp),%rdi
     73b:	4c 89 f6             	mov    %r14,%rsi
     73e:	e8 00 00 00 00       	callq  743 <_Z5test2v+0x743>
     743:	48 8d 7c 24 70       	lea    0x70(%rsp),%rdi
     748:	e8 00 00 00 00       	callq  74d <_Z5test2v+0x74d>
     74d:	0f 1f 00             	nopl   (%rax)
     750:	3c 01                	cmp    $0x1,%al
     752:	44 8b ac 24 a8 00 00 	mov    0xa8(%rsp),%r13d
     759:	00 
     75a:	75 08                	jne    764 <_Z5test2v+0x764>
     75c:	c6 84 24 b8 00 00 00 	movb   $0x0,0xb8(%rsp)
     763:	00 
     764:	48 8b 44 24 50       	mov    0x50(%rsp),%rax
     769:	48 85 c0             	test   %rax,%rax
     76c:	74 0d                	je     77b <_Z5test2v+0x77b>
     76e:	c6 40 20 00          	movb   $0x0,0x20(%rax)
     772:	48 c7 44 24 50 00 00 	movq   $0x0,0x50(%rsp)
     779:	00 00 
     77b:	48 8b 44 24 58       	mov    0x58(%rsp),%rax
     780:	48 85 c0             	test   %rax,%rax
     783:	74 04                	je     789 <_Z5test2v+0x789>
     785:	c6 40 20 00          	movb   $0x0,0x20(%rax)
     789:	48 83 bc 24 c8 00 00 	cmpq   $0x0,0xc8(%rsp)
     790:	00 00 
     792:	48 c7 84 24 a0 00 00 	movq   $0x0,0xa0(%rsp)
     799:	00 00 00 00 00 
     79e:	0f 84 5e 02 00 00    	je     a02 <_Z5test2v+0xa02>
     7a4:	0f 1f 40 00          	nopl   0x0(%rax)
     7a8:	31 db                	xor    %ebx,%ebx
     7aa:	eb 2f                	jmp    7db <_Z5test2v+0x7db>
     7ac:	0f 1f 40 00          	nopl   0x0(%rax)
     7b0:	48 81 fb f9 00 00 00 	cmp    $0xf9,%rbx
     7b7:	76 7f                	jbe    838 <_Z5test2v+0x838>
     7b9:	48 8d 7c 24 70       	lea    0x70(%rsp),%rdi
     7be:	31 f6                	xor    %esi,%esi
     7c0:	48 c7 44 24 70 00 00 	movq   $0x0,0x70(%rsp)
     7c7:	00 00 
     7c9:	48 c7 44 24 78 40 42 	movq   $0xf4240,0x78(%rsp)
     7d0:	0f 00 
     7d2:	e8 00 00 00 00       	callq  7d7 <_Z5test2v+0x7d7>
     7d7:	48 83 c3 01          	add    $0x1,%rbx
     7db:	0f b6 84 24 c0 00 00 	movzbl 0xc0(%rsp),%eax
     7e2:	00 
     7e3:	84 c0                	test   %al,%al
     7e5:	74 11                	je     7f8 <_Z5test2v+0x7f8>
     7e7:	48 83 fb 7c          	cmp    $0x7c,%rbx
     7eb:	77 c3                	ja     7b0 <_Z5test2v+0x7b0>
     7ed:	f3 90                	pause  
     7ef:	eb e6                	jmp    7d7 <_Z5test2v+0x7d7>
     7f1:	0f 1f 80 00 00 00 00 	nopl   0x0(%rax)
     7f8:	b8 01 00 00 00       	mov    $0x1,%eax
     7fd:	89 c2                	mov    %eax,%edx
     7ff:	86 94 24 c0 00 00 00 	xchg   %dl,0xc0(%rsp)
     806:	84 d2                	test   %dl,%dl
     808:	75 dd                	jne    7e7 <_Z5test2v+0x7e7>
     80a:	48 8b 9c 24 c8 00 00 	mov    0xc8(%rsp),%rbx
     811:	00 
     812:	48 85 db             	test   %rbx,%rbx
     815:	0f 84 67 02 00 00    	je     a82 <_Z5test2v+0xa82>
     81b:	0f b6 53 20          	movzbl 0x20(%rbx),%edx
     81f:	48 8d 4b 20          	lea    0x20(%rbx),%rcx
     823:	84 d2                	test   %dl,%dl
     825:	74 18                	je     83f <_Z5test2v+0x83f>
     827:	c6 84 24 c0 00 00 00 	movb   $0x0,0xc0(%rsp)
     82e:	00 
     82f:	e9 74 ff ff ff       	jmpq   7a8 <_Z5test2v+0x7a8>
     834:	0f 1f 40 00          	nopl   0x0(%rax)
     838:	e8 00 00 00 00       	callq  83d <_Z5test2v+0x83d>
     83d:	eb 98                	jmp    7d7 <_Z5test2v+0x7d7>
     83f:	86 01                	xchg   %al,(%rcx)
     841:	84 c0                	test   %al,%al
     843:	75 e2                	jne    827 <_Z5test2v+0x827>
     845:	48 8b 84 24 c8 00 00 	mov    0xc8(%rsp),%rax
     84c:	00 
     84d:	48 85 c0             	test   %rax,%rax
     850:	74 18                	je     86a <_Z5test2v+0x86a>
     852:	48 c7 40 28 00 00 00 	movq   $0x0,0x28(%rax)
     859:	00 
     85a:	c6 40 21 01          	movb   $0x1,0x21(%rax)
     85e:	48 c7 84 24 c8 00 00 	movq   $0x0,0xc8(%rsp)
     865:	00 00 00 00 00 
     86a:	0f b6 84 24 b8 00 00 	movzbl 0xb8(%rsp),%eax
     871:	00 
     872:	3c 02                	cmp    $0x2,%al
     874:	0f 84 26 02 00 00    	je     aa0 <_Z5test2v+0xaa0>
     87a:	3c 03                	cmp    $0x3,%al
     87c:	0f 84 14 02 00 00    	je     a96 <_Z5test2v+0xa96>
     882:	3c 01                	cmp    $0x1,%al
     884:	0f 84 16 02 00 00    	je     aa0 <_Z5test2v+0xaa0>
     88a:	c6 43 20 00          	movb   $0x0,0x20(%rbx)
     88e:	c6 84 24 c0 00 00 00 	movb   $0x0,0xc0(%rsp)
     895:	00 
     896:	80 bc 24 b8 00 00 00 	cmpb   $0x3,0xb8(%rsp)
     89d:	03 
     89e:	48 c7 84 24 a0 00 00 	movq   $0x0,0xa0(%rsp)
     8a5:	00 00 00 00 00 
     8aa:	0f 84 65 02 00 00    	je     b15 <_Z5test2v+0xb15>
     8b0:	80 bc 24 f1 00 00 00 	cmpb   $0x0,0xf1(%rsp)
     8b7:	00 
     8b8:	48 c7 84 24 d0 00 00 	movq   $0x0,0xd0(%rsp)
     8bf:	00 00 00 00 00 
     8c4:	0f 84 d1 00 00 00    	je     99b <_Z5test2v+0x99b>
     8ca:	48 8b 9c 24 18 01 00 	mov    0x118(%rsp),%rbx
     8d1:	00 
     8d2:	48 c7 84 24 d0 00 00 	movq   $0x0,0xd0(%rsp)
     8d9:	00 00 00 00 00 
     8de:	48 85 db             	test   %rbx,%rbx
     8e1:	74 19                	je     8fc <_Z5test2v+0x8fc>
     8e3:	b8 00 00 00 00       	mov    $0x0,%eax
     8e8:	48 85 c0             	test   %rax,%rax
     8eb:	0f 84 41 02 00 00    	je     b32 <_Z5test2v+0xb32>
     8f1:	f0 83 6b 08 01       	lock subl $0x1,0x8(%rbx)
     8f6:	0f 84 35 04 00 00    	je     d31 <_Z5test2v+0xd31>
     8fc:	48 8b bc 24 08 01 00 	mov    0x108(%rsp),%rdi
     903:	00 
     904:	48 85 ff             	test   %rdi,%rdi
     907:	74 06                	je     90f <_Z5test2v+0x90f>
     909:	48 8b 07             	mov    (%rdi),%rax
     90c:	ff 50 08             	callq  *0x8(%rax)
     90f:	80 bc 24 e8 00 00 00 	cmpb   $0x3,0xe8(%rsp)
     916:	03 
     917:	48 c7 84 24 d0 00 00 	movq   $0x0,0xd0(%rsp)
     91e:	00 00 00 00 00 
     923:	0f 84 fb 01 00 00    	je     b24 <_Z5test2v+0xb24>
     929:	48 8b 8c 24 48 01 00 	mov    0x148(%rsp),%rcx
     930:	00 
     931:	64 48 33 0c 25 28 00 	xor    %fs:0x28,%rcx
     938:	00 00 
     93a:	44 89 e8             	mov    %r13d,%eax
     93d:	0f 85 b1 08 00 00    	jne    11f4 <_Z5test2v+0x11f4>
     943:	48 81 c4 58 01 00 00 	add    $0x158,%rsp
     94a:	5b                   	pop    %rbx
     94b:	5d                   	pop    %rbp
     94c:	41 5c                	pop    %r12
     94e:	41 5d                	pop    %r13
     950:	41 5e                	pop    %r14
     952:	41 5f                	pop    %r15
     954:	c3                   	retq   
     955:	4c 89 64 24 58       	mov    %r12,0x58(%rsp)
     95a:	e9 71 fd ff ff       	jmpq   6d0 <_Z5test2v+0x6d0>
     95f:	90                   	nop
     960:	b8 01 00 00 00       	mov    $0x1,%eax
     965:	89 c2                	mov    %eax,%edx
     967:	86 94 24 f0 00 00 00 	xchg   %dl,0xf0(%rsp)
     96e:	84 d2                	test   %dl,%dl
     970:	75 65                	jne    9d7 <_Z5test2v+0x9d7>
     972:	48 8b 9c 24 f8 00 00 	mov    0xf8(%rsp),%rbx
     979:	00 
     97a:	48 85 db             	test   %rbx,%rbx
     97d:	0f 84 4b 01 00 00    	je     ace <_Z5test2v+0xace>
     983:	0f b6 53 20          	movzbl 0x20(%rbx),%edx
     987:	48 8d 4b 20          	lea    0x20(%rbx),%rcx
     98b:	84 d2                	test   %dl,%dl
     98d:	0f 84 9c 00 00 00    	je     a2f <_Z5test2v+0xa2f>
     993:	c6 84 24 f0 00 00 00 	movb   $0x0,0xf0(%rsp)
     99a:	00 
     99b:	31 db                	xor    %ebx,%ebx
     99d:	eb 2c                	jmp    9cb <_Z5test2v+0x9cb>
     99f:	90                   	nop
     9a0:	48 81 fb f9 00 00 00 	cmp    $0xf9,%rbx
     9a7:	76 7f                	jbe    a28 <_Z5test2v+0xa28>
     9a9:	48 8d 7c 24 70       	lea    0x70(%rsp),%rdi
     9ae:	31 f6                	xor    %esi,%esi
     9b0:	48 c7 44 24 70 00 00 	movq   $0x0,0x70(%rsp)
     9b7:	00 00 
     9b9:	48 c7 44 24 78 40 42 	movq   $0xf4240,0x78(%rsp)
     9c0:	0f 00 
     9c2:	e8 00 00 00 00       	callq  9c7 <_Z5test2v+0x9c7>
     9c7:	48 83 c3 01          	add    $0x1,%rbx
     9cb:	0f b6 84 24 f0 00 00 	movzbl 0xf0(%rsp),%eax
     9d2:	00 
     9d3:	84 c0                	test   %al,%al
     9d5:	74 89                	je     960 <_Z5test2v+0x960>
     9d7:	48 83 fb 7c          	cmp    $0x7c,%rbx
     9db:	77 c3                	ja     9a0 <_Z5test2v+0x9a0>
     9dd:	f3 90                	pause  
     9df:	eb e6                	jmp    9c7 <_Z5test2v+0x9c7>
     9e1:	48 8b 94 24 d8 00 00 	mov    0xd8(%rsp),%rdx
     9e8:	00 
     9e9:	48 c7 84 24 d8 00 00 	movq   $0x0,0xd8(%rsp)
     9f0:	00 00 00 00 00 
     9f5:	48 89 94 24 a8 00 00 	mov    %rdx,0xa8(%rsp)
     9fc:	00 
     9fd:	e9 55 fb ff ff       	jmpq   557 <_Z5test2v+0x557>
     a02:	80 bc 24 b8 00 00 00 	cmpb   $0x0,0xb8(%rsp)
     a09:	00 
     a0a:	0f 85 98 fd ff ff    	jne    7a8 <_Z5test2v+0x7a8>
     a10:	80 bc 24 c1 00 00 00 	cmpb   $0x0,0xc1(%rsp)
     a17:	00 
     a18:	0f 84 92 fe ff ff    	je     8b0 <_Z5test2v+0x8b0>
     a1e:	e9 85 fd ff ff       	jmpq   7a8 <_Z5test2v+0x7a8>
     a23:	0f 1f 44 00 00       	nopl   0x0(%rax,%rax,1)
     a28:	e8 00 00 00 00       	callq  a2d <_Z5test2v+0xa2d>
     a2d:	eb 98                	jmp    9c7 <_Z5test2v+0x9c7>
     a2f:	86 01                	xchg   %al,(%rcx)
     a31:	84 c0                	test   %al,%al
     a33:	0f 85 5a ff ff ff    	jne    993 <_Z5test2v+0x993>
     a39:	0f b6 84 24 e8 00 00 	movzbl 0xe8(%rsp),%eax
     a40:	00 
     a41:	c6 43 21 01          	movb   $0x1,0x21(%rbx)
     a45:	48 c7 43 28 00 00 00 	movq   $0x0,0x28(%rbx)
     a4c:	00 
     a4d:	48 c7 84 24 f8 00 00 	movq   $0x0,0xf8(%rsp)
     a54:	00 00 00 00 00 
     a59:	3c 02                	cmp    $0x2,%al
     a5b:	0f 84 96 00 00 00    	je     af7 <_Z5test2v+0xaf7>
     a61:	3c 03                	cmp    $0x3,%al
     a63:	0f 84 85 00 00 00    	je     aee <_Z5test2v+0xaee>
     a69:	3c 01                	cmp    $0x1,%al
     a6b:	0f 84 86 00 00 00    	je     af7 <_Z5test2v+0xaf7>
     a71:	c6 84 24 f0 00 00 00 	movb   $0x0,0xf0(%rsp)
     a78:	00 
     a79:	c6 43 20 00          	movb   $0x0,0x20(%rbx)
     a7d:	e9 48 fe ff ff       	jmpq   8ca <_Z5test2v+0x8ca>
     a82:	0f b6 84 24 b8 00 00 	movzbl 0xb8(%rsp),%eax
     a89:	00 
     a8a:	3c 02                	cmp    $0x2,%al
     a8c:	74 12                	je     aa0 <_Z5test2v+0xaa0>
     a8e:	3c 03                	cmp    $0x3,%al
     a90:	0f 85 8e 02 00 00    	jne    d24 <_Z5test2v+0xd24>
     a96:	49 8d 7c 24 08       	lea    0x8(%r12),%rdi
     a9b:	e8 00 00 00 00       	callq  aa0 <_Z5test2v+0xaa0>
     aa0:	48 85 db             	test   %rbx,%rbx
     aa3:	c6 84 24 b8 00 00 00 	movb   $0x0,0xb8(%rsp)
     aaa:	00 
     aab:	0f 85 d9 fd ff ff    	jne    88a <_Z5test2v+0x88a>
     ab1:	e9 d8 fd ff ff       	jmpq   88e <_Z5test2v+0x88e>
     ab6:	c7 84 24 d8 00 00 00 	movl   $0x5,0xd8(%rsp)
     abd:	05 00 00 00 
     ac1:	c6 84 24 e8 00 00 00 	movb   $0x1,0xe8(%rsp)
     ac8:	01 
     ac9:	e9 9e f8 ff ff       	jmpq   36c <_Z5test2v+0x36c>
     ace:	0f b6 84 24 e8 00 00 	movzbl 0xe8(%rsp),%eax
     ad5:	00 
     ad6:	48 c7 84 24 f8 00 00 	movq   $0x0,0xf8(%rsp)
     add:	00 00 00 00 00 
     ae2:	3c 02                	cmp    $0x2,%al
     ae4:	74 11                	je     af7 <_Z5test2v+0xaf7>
     ae6:	3c 03                	cmp    $0x3,%al
     ae8:	0f 85 1a 03 00 00    	jne    e08 <_Z5test2v+0xe08>
     aee:	48 8d 7d 08          	lea    0x8(%rbp),%rdi
     af2:	e8 00 00 00 00       	callq  af7 <_Z5test2v+0xaf7>
     af7:	48 85 db             	test   %rbx,%rbx
     afa:	c6 84 24 e8 00 00 00 	movb   $0x0,0xe8(%rsp)
     b01:	00 
     b02:	c6 84 24 f0 00 00 00 	movb   $0x0,0xf0(%rsp)
     b09:	00 
     b0a:	0f 85 69 ff ff ff    	jne    a79 <_Z5test2v+0xa79>
     b10:	e9 b5 fd ff ff       	jmpq   8ca <_Z5test2v+0x8ca>
     b15:	49 8d 7c 24 08       	lea    0x8(%r12),%rdi
     b1a:	e8 00 00 00 00       	callq  b1f <_Z5test2v+0xb1f>
     b1f:	e9 8c fd ff ff       	jmpq   8b0 <_Z5test2v+0x8b0>
     b24:	48 8d 7d 08          	lea    0x8(%rbp),%rdi
     b28:	e8 00 00 00 00       	callq  b2d <_Z5test2v+0xb2d>
     b2d:	e9 f7 fd ff ff       	jmpq   929 <_Z5test2v+0x929>
     b32:	8b 43 08             	mov    0x8(%rbx),%eax
     b35:	8d 50 ff             	lea    -0x1(%rax),%edx
     b38:	83 f8 01             	cmp    $0x1,%eax
     b3b:	89 53 08             	mov    %edx,0x8(%rbx)
     b3e:	0f 85 b8 fd ff ff    	jne    8fc <_Z5test2v+0x8fc>
     b44:	48 8b 03             	mov    (%rbx),%rax
     b47:	48 89 df             	mov    %rbx,%rdi
     b4a:	ff 50 10             	callq  *0x10(%rax)
     b4d:	8b 43 0c             	mov    0xc(%rbx),%eax
     b50:	8d 50 ff             	lea    -0x1(%rax),%edx
     b53:	89 53 0c             	mov    %edx,0xc(%rbx)
     b56:	e9 e9 01 00 00       	jmpq   d44 <_Z5test2v+0xd44>
     b5b:	48 8b 5c 24 68       	mov    0x68(%rsp),%rbx
     b60:	48 85 db             	test   %rbx,%rbx
     b63:	0f 84 6c fa ff ff    	je     5d5 <_Z5test2v+0x5d5>
     b69:	b8 00 00 00 00       	mov    $0x0,%eax
     b6e:	48 85 c0             	test   %rax,%rax
     b71:	0f 85 c6 05 00 00    	jne    113d <_Z5test2v+0x113d>
     b77:	8b 43 08             	mov    0x8(%rbx),%eax
     b7a:	8d 50 ff             	lea    -0x1(%rax),%edx
     b7d:	83 f8 01             	cmp    $0x1,%eax
     b80:	89 53 08             	mov    %edx,0x8(%rbx)
     b83:	0f 85 4c fa ff ff    	jne    5d5 <_Z5test2v+0x5d5>
     b89:	48 8b 03             	mov    (%rbx),%rax
     b8c:	48 89 df             	mov    %rbx,%rdi
     b8f:	ff 50 10             	callq  *0x10(%rax)
     b92:	8b 43 0c             	mov    0xc(%rbx),%eax
     b95:	8d 50 ff             	lea    -0x1(%rax),%edx
     b98:	89 53 0c             	mov    %edx,0xc(%rbx)
     b9b:	e9 33 02 00 00       	jmpq   dd3 <_Z5test2v+0xdd3>
     ba0:	84 c0                	test   %al,%al
     ba2:	0f 85 4d fb ff ff    	jne    6f5 <_Z5test2v+0x6f5>
     ba8:	bf 20 00 00 00       	mov    $0x20,%edi
     bad:	e8 00 00 00 00       	callq  bb2 <_Z5test2v+0xbb2>
     bb2:	49 89 c5             	mov    %rax,%r13
     bb5:	e8 00 00 00 00       	callq  bba <_Z5test2v+0xbba>
     bba:	be 03 00 00 00       	mov    $0x3,%esi
     bbf:	48 89 c2             	mov    %rax,%rdx
     bc2:	4c 89 ef             	mov    %r13,%rdi
     bc5:	e8 00 00 00 00       	callq  bca <_Z5test2v+0xbca>
     bca:	ba 00 00 00 00       	mov    $0x0,%edx
     bcf:	be 00 00 00 00       	mov    $0x0,%esi
     bd4:	4c 89 ef             	mov    %r13,%rdi
     bd7:	e8 00 00 00 00       	callq  bdc <_Z5test2v+0xbdc>
     bdc:	0f 1f 40 00          	nopl   0x0(%rax)
     be0:	48 8b 8c 24 d8 00 00 	mov    0xd8(%rsp),%rcx
     be7:	00 
     be8:	48 8b 9c 24 e0 00 00 	mov    0xe0(%rsp),%rbx
     bef:	00 
     bf0:	48 89 8c 24 a8 00 00 	mov    %rcx,0xa8(%rsp)
     bf7:	00 
     bf8:	48 89 9c 24 b0 00 00 	mov    %rbx,0xb0(%rsp)
     bff:	00 
     c00:	e9 52 f9 ff ff       	jmpq   557 <_Z5test2v+0x557>
     c05:	48 8b 9c 24 b0 00 00 	mov    0xb0(%rsp),%rbx
     c0c:	00 
     c0d:	e8 00 00 00 00       	callq  c12 <_Z5test2v+0xc12>
     c12:	48 39 c3             	cmp    %rax,%rbx
     c15:	0f 84 61 02 00 00    	je     e7c <_Z5test2v+0xe7c>
     c1b:	4c 8b bc 24 b0 00 00 	mov    0xb0(%rsp),%r15
     c22:	00 
     c23:	44 8b b4 24 a8 00 00 	mov    0xa8(%rsp),%r14d
     c2a:	00 
     c2b:	48 8d 5c 24 20       	lea    0x20(%rsp),%rbx
     c30:	49 8b 07             	mov    (%r15),%rax
     c33:	48 8b 40 18          	mov    0x18(%rax),%rax
     c37:	48 3d 00 00 00 00    	cmp    $0x0,%rax
     c3d:	0f 85 f1 01 00 00    	jne    e34 <_Z5test2v+0xe34>
     c43:	41 83 fe 02          	cmp    $0x2,%r14d
     c47:	0f 84 d0 01 00 00    	je     e1d <_Z5test2v+0xe1d>
     c4d:	41 83 fe 03          	cmp    $0x3,%r14d
     c51:	0f 84 0e 02 00 00    	je     e65 <_Z5test2v+0xe65>
     c57:	41 83 fe 01          	cmp    $0x1,%r14d
     c5b:	0f 84 6f 03 00 00    	je     fd0 <_Z5test2v+0xfd0>
     c61:	48 8d 54 24 0f       	lea    0xf(%rsp),%rdx
     c66:	be 00 00 00 00       	mov    $0x0,%esi
     c6b:	48 89 df             	mov    %rbx,%rdi
     c6e:	e8 00 00 00 00       	callq  c73 <_Z5test2v+0xc73>
     c73:	4c 8d 6c 24 70       	lea    0x70(%rsp),%r13
     c78:	48 89 de             	mov    %rbx,%rsi
     c7b:	4c 89 ef             	mov    %r13,%rdi
     c7e:	e8 00 00 00 00       	callq  c83 <_Z5test2v+0xc83>
     c83:	48 8b 54 24 20       	mov    0x20(%rsp),%rdx
     c88:	48 8d 7a e8          	lea    -0x18(%rdx),%rdi
     c8c:	48 81 ff 00 00 00 00 	cmp    $0x0,%rdi
     c93:	0f 85 5a 04 00 00    	jne    10f3 <_Z5test2v+0x10f3>
     c99:	0f b6 84 24 b8 00 00 	movzbl 0xb8(%rsp),%eax
     ca0:	00 
     ca1:	48 c7 44 24 70 00 00 	movq   $0x0,0x70(%rsp)
     ca8:	00 00 
     caa:	44 89 b4 24 80 00 00 	mov    %r14d,0x80(%rsp)
     cb1:	00 
     cb2:	4c 89 bc 24 88 00 00 	mov    %r15,0x88(%rsp)
     cb9:	00 
     cba:	3c 02                	cmp    $0x2,%al
     cbc:	0f 84 8c 01 00 00    	je     e4e <_Z5test2v+0xe4e>
     cc2:	3c 03                	cmp    $0x3,%al
     cc4:	0f 84 7a 01 00 00    	je     e44 <_Z5test2v+0xe44>
     cca:	3c 01                	cmp    $0x1,%al
     ccc:	0f 84 7c 01 00 00    	je     e4e <_Z5test2v+0xe4e>
     cd2:	bf 20 00 00 00       	mov    $0x20,%edi
     cd7:	e8 00 00 00 00       	callq  cdc <_Z5test2v+0xcdc>
     cdc:	49 8d 75 08          	lea    0x8(%r13),%rsi
     ce0:	48 8d 78 08          	lea    0x8(%rax),%rdi
     ce4:	48 c7 00 00 00 00 00 	movq   $0x0,(%rax)
     ceb:	49 89 c6             	mov    %rax,%r14
     cee:	e8 00 00 00 00       	callq  cf3 <_Z5test2v+0xcf3>
     cf3:	48 8b 94 24 88 00 00 	mov    0x88(%rsp),%rdx
     cfa:	00 
     cfb:	48 8b 84 24 80 00 00 	mov    0x80(%rsp),%rax
     d02:	00 
     d03:	be 00 00 00 00       	mov    $0x0,%esi
     d08:	49 c7 06 00 00 00 00 	movq   $0x0,(%r14)
     d0f:	4c 89 f7             	mov    %r14,%rdi
     d12:	49 89 56 18          	mov    %rdx,0x18(%r14)
     d16:	49 89 46 10          	mov    %rax,0x10(%r14)
     d1a:	ba 00 00 00 00       	mov    $0x0,%edx
     d1f:	e8 00 00 00 00       	callq  d24 <_Z5test2v+0xd24>
     d24:	3c 01                	cmp    $0x1,%al
     d26:	0f 84 74 fd ff ff    	je     aa0 <_Z5test2v+0xaa0>
     d2c:	e9 5d fb ff ff       	jmpq   88e <_Z5test2v+0x88e>
     d31:	48 8b 03             	mov    (%rbx),%rax
     d34:	48 89 df             	mov    %rbx,%rdi
     d37:	ff 50 10             	callq  *0x10(%rax)
     d3a:	b8 ff ff ff ff       	mov    $0xffffffff,%eax
     d3f:	f0 0f c1 43 0c       	lock xadd %eax,0xc(%rbx)
     d44:	83 f8 01             	cmp    $0x1,%eax
     d47:	0f 85 af fb ff ff    	jne    8fc <_Z5test2v+0x8fc>
     d4d:	48 8b 03             	mov    (%rbx),%rax
     d50:	48 89 df             	mov    %rbx,%rdi
     d53:	ff 50 18             	callq  *0x18(%rax)
     d56:	e9 a1 fb ff ff       	jmpq   8fc <_Z5test2v+0x8fc>
     d5b:	48 89 c3             	mov    %rax,%rbx
     d5e:	48 8b 84 24 30 01 00 	mov    0x130(%rsp),%rax
     d65:	00 
     d66:	48 85 c0             	test   %rax,%rax
     d69:	74 0d                	je     d78 <_Z5test2v+0xd78>
     d6b:	ba 03 00 00 00       	mov    $0x3,%edx
     d70:	4c 89 ee             	mov    %r13,%rsi
     d73:	4c 89 ef             	mov    %r13,%rdi
     d76:	ff d0                	callq  *%rax
     d78:	48 8d 7c 24 50       	lea    0x50(%rsp),%rdi
     d7d:	e8 00 00 00 00       	callq  d82 <_Z5test2v+0xd82>
     d82:	48 8d 7c 24 40       	lea    0x40(%rsp),%rdi
     d87:	e8 00 00 00 00       	callq  d8c <_Z5test2v+0xd8c>
     d8c:	4c 89 e7             	mov    %r12,%rdi
     d8f:	e8 00 00 00 00       	callq  d94 <_Z5test2v+0xd94>
     d94:	48 89 ef             	mov    %rbp,%rdi
     d97:	e8 00 00 00 00       	callq  d9c <_Z5test2v+0xd9c>
     d9c:	48 89 df             	mov    %rbx,%rdi
     d9f:	e8 00 00 00 00       	callq  da4 <_Z5test2v+0xda4>
     da4:	48 89 c3             	mov    %rax,%rbx
     da7:	eb d9                	jmp    d82 <_Z5test2v+0xd82>
     da9:	48 89 df             	mov    %rbx,%rdi
     dac:	e8 00 00 00 00       	callq  db1 <_Z5test2v+0xdb1>
     db1:	c6 84 24 b8 00 00 00 	movb   $0x0,0xb8(%rsp)
     db8:	00 
     db9:	e9 78 f9 ff ff       	jmpq   736 <_Z5test2v+0x736>
     dbe:	66 90                	xchg   %ax,%ax
     dc0:	48 8b 03             	mov    (%rbx),%rax
     dc3:	48 89 df             	mov    %rbx,%rdi
     dc6:	ff 50 10             	callq  *0x10(%rax)
     dc9:	b8 ff ff ff ff       	mov    $0xffffffff,%eax
     dce:	f0 0f c1 43 0c       	lock xadd %eax,0xc(%rbx)
     dd3:	83 f8 01             	cmp    $0x1,%eax
     dd6:	0f 85 f9 f7 ff ff    	jne    5d5 <_Z5test2v+0x5d5>
     ddc:	48 8b 03             	mov    (%rbx),%rax
     ddf:	48 89 df             	mov    %rbx,%rdi
     de2:	ff 50 18             	callq  *0x18(%rax)
     de5:	e9 eb f7 ff ff       	jmpq   5d5 <_Z5test2v+0x5d5>
     dea:	48 89 c3             	mov    %rax,%rbx
     ded:	4c 89 ef             	mov    %r13,%rdi
     df0:	e8 00 00 00 00       	callq  df5 <_Z5test2v+0xdf5>
     df5:	48 8d 7c 24 50       	lea    0x50(%rsp),%rdi
     dfa:	e8 00 00 00 00       	callq  dff <_Z5test2v+0xdff>
     dff:	eb 8b                	jmp    d8c <_Z5test2v+0xd8c>
     e01:	0f 1f 80 00 00 00 00 	nopl   0x0(%rax)
     e08:	3c 01                	cmp    $0x1,%al
     e0a:	0f 84 e7 fc ff ff    	je     af7 <_Z5test2v+0xaf7>
     e10:	c6 84 24 f0 00 00 00 	movb   $0x0,0xf0(%rsp)
     e17:	00 
     e18:	e9 ad fa ff ff       	jmpq   8ca <_Z5test2v+0x8ca>
     e1d:	48 8d 54 24 0d       	lea    0xd(%rsp),%rdx
     e22:	be 00 00 00 00       	mov    $0x0,%esi
     e27:	48 89 df             	mov    %rbx,%rdi
     e2a:	e8 00 00 00 00       	callq  e2f <_Z5test2v+0xe2f>
     e2f:	e9 3f fe ff ff       	jmpq   c73 <_Z5test2v+0xc73>
     e34:	44 89 f2             	mov    %r14d,%edx
     e37:	4c 89 fe             	mov    %r15,%rsi
     e3a:	48 89 df             	mov    %rbx,%rdi
     e3d:	ff d0                	callq  *%rax
     e3f:	e9 2f fe ff ff       	jmpq   c73 <_Z5test2v+0xc73>
     e44:	49 8d 7c 24 08       	lea    0x8(%r12),%rdi
     e49:	e8 00 00 00 00       	callq  e4e <_Z5test2v+0xe4e>
     e4e:	c6 84 24 b8 00 00 00 	movb   $0x0,0xb8(%rsp)
     e55:	00 
     e56:	e9 77 fe ff ff       	jmpq   cd2 <_Z5test2v+0xcd2>
     e5b:	e8 00 00 00 00       	callq  e60 <_Z5test2v+0xe60>
     e60:	e9 3e f7 ff ff       	jmpq   5a3 <_Z5test2v+0x5a3>
     e65:	48 8d 54 24 0e       	lea    0xe(%rsp),%rdx
     e6a:	be 00 00 00 00       	mov    $0x0,%esi
     e6f:	48 89 df             	mov    %rbx,%rdi
     e72:	e8 00 00 00 00       	callq  e77 <_Z5test2v+0xe77>
     e77:	e9 f7 fd ff ff       	jmpq   c73 <_Z5test2v+0xc73>
     e7c:	4c 8b bc 24 b0 00 00 	mov    0xb0(%rsp),%r15
     e83:	00 
     e84:	8b 9c 24 a8 00 00 00 	mov    0xa8(%rsp),%ebx
     e8b:	4c 8d 6c 24 10       	lea    0x10(%rsp),%r13
     e90:	49 8b 07             	mov    (%r15),%rax
     e93:	48 8b 40 18          	mov    0x18(%rax),%rax
     e97:	48 3d 00 00 00 00    	cmp    $0x0,%rax
     e9d:	0f 85 41 02 00 00    	jne    10e4 <_Z5test2v+0x10e4>
     ea3:	83 fb 02             	cmp    $0x2,%ebx
     ea6:	0f 84 21 02 00 00    	je     10cd <_Z5test2v+0x10cd>
     eac:	83 fb 03             	cmp    $0x3,%ebx
     eaf:	0f 84 01 02 00 00    	je     10b6 <_Z5test2v+0x10b6>
     eb5:	83 fb 01             	cmp    $0x1,%ebx
     eb8:	0f 84 e1 01 00 00    	je     109f <_Z5test2v+0x109f>
     ebe:	48 8d 54 24 0b       	lea    0xb(%rsp),%rdx
     ec3:	be 00 00 00 00       	mov    $0x0,%esi
     ec8:	4c 89 ef             	mov    %r13,%rdi
     ecb:	e8 00 00 00 00       	callq  ed0 <_Z5test2v+0xed0>
     ed0:	b9 13 00 00 00       	mov    $0x13,%ecx
     ed5:	ba 00 00 00 00       	mov    $0x0,%edx
     eda:	31 f6                	xor    %esi,%esi
     edc:	4c 89 ef             	mov    %r13,%rdi
     edf:	e8 00 00 00 00       	callq  ee4 <_Z5test2v+0xee4>
     ee4:	48 8b 10             	mov    (%rax),%rdx
     ee7:	4c 8d 74 24 40       	lea    0x40(%rsp),%r14
     eec:	4c 8d 6c 24 70       	lea    0x70(%rsp),%r13
     ef1:	4c 89 f6             	mov    %r14,%rsi
     ef4:	4c 89 ef             	mov    %r13,%rdi
     ef7:	48 89 54 24 40       	mov    %rdx,0x40(%rsp)
     efc:	48 c7 00 00 00 00 00 	movq   $0x0,(%rax)
     f03:	e8 00 00 00 00       	callq  f08 <_Z5test2v+0xf08>
     f08:	48 8b 54 24 40       	mov    0x40(%rsp),%rdx
     f0d:	48 8d 7a e8          	lea    -0x18(%rdx),%rdi
     f11:	48 81 ff 00 00 00 00 	cmp    $0x0,%rdi
     f18:	0f 85 09 01 00 00    	jne    1027 <_Z5test2v+0x1027>
     f1e:	48 8b 54 24 10       	mov    0x10(%rsp),%rdx
     f23:	48 8d 7a e8          	lea    -0x18(%rdx),%rdi
     f27:	48 81 ff 00 00 00 00 	cmp    $0x0,%rdi
     f2e:	0f 85 dc 02 00 00    	jne    1210 <_Z5test2v+0x1210>
     f34:	0f b6 84 24 b8 00 00 	movzbl 0xb8(%rsp),%eax
     f3b:	00 
     f3c:	48 c7 44 24 70 00 00 	movq   $0x0,0x70(%rsp)
     f43:	00 00 
     f45:	89 9c 24 80 00 00 00 	mov    %ebx,0x80(%rsp)
     f4c:	4c 89 bc 24 88 00 00 	mov    %r15,0x88(%rsp)
     f53:	00 
     f54:	3c 02                	cmp    $0x2,%al
     f56:	0f 84 a7 02 00 00    	je     1203 <_Z5test2v+0x1203>
     f5c:	3c 03                	cmp    $0x3,%al
     f5e:	0f 84 95 02 00 00    	je     11f9 <_Z5test2v+0x11f9>
     f64:	3c 01                	cmp    $0x1,%al
     f66:	0f 84 97 02 00 00    	je     1203 <_Z5test2v+0x1203>
     f6c:	bf 20 00 00 00       	mov    $0x20,%edi
     f71:	e8 00 00 00 00       	callq  f76 <_Z5test2v+0xf76>
     f76:	49 8d 75 08          	lea    0x8(%r13),%rsi
     f7a:	48 8d 78 08          	lea    0x8(%rax),%rdi
     f7e:	48 c7 00 00 00 00 00 	movq   $0x0,(%rax)
     f85:	49 89 c6             	mov    %rax,%r14
     f88:	e8 00 00 00 00       	callq  f8d <_Z5test2v+0xf8d>
     f8d:	48 8b 94 24 88 00 00 	mov    0x88(%rsp),%rdx
     f94:	00 
     f95:	48 8b 84 24 80 00 00 	mov    0x80(%rsp),%rax
     f9c:	00 
     f9d:	be 00 00 00 00       	mov    $0x0,%esi
     fa2:	49 c7 06 00 00 00 00 	movq   $0x0,(%r14)
     fa9:	4c 89 f7             	mov    %r14,%rdi
     fac:	49 89 56 18          	mov    %rdx,0x18(%r14)
     fb0:	49 89 46 10          	mov    %rax,0x10(%r14)
     fb4:	ba 00 00 00 00       	mov    $0x0,%edx
     fb9:	e8 00 00 00 00       	callq  fbe <_Z5test2v+0xfbe>
     fbe:	48 89 c3             	mov    %rax,%rbx
     fc1:	4c 89 ef             	mov    %r13,%rdi
     fc4:	e8 00 00 00 00       	callq  fc9 <_Z5test2v+0xfc9>
     fc9:	e9 27 fe ff ff       	jmpq   df5 <_Z5test2v+0xdf5>
     fce:	66 90                	xchg   %ax,%ax
     fd0:	48 8d 54 24 0c       	lea    0xc(%rsp),%rdx
     fd5:	be 00 00 00 00       	mov    $0x0,%esi
     fda:	48 89 df             	mov    %rbx,%rdi
     fdd:	e8 00 00 00 00       	callq  fe2 <_Z5test2v+0xfe2>
     fe2:	e9 8c fc ff ff       	jmpq   c73 <_Z5test2v+0xc73>
     fe7:	48 89 c3             	mov    %rax,%rbx
     fea:	48 8b 44 24 20       	mov    0x20(%rsp),%rax
     fef:	48 8d 78 e8          	lea    -0x18(%rax),%rdi
     ff3:	48 81 ff 00 00 00 00 	cmp    $0x0,%rdi
     ffa:	0f 84 f5 fd ff ff    	je     df5 <_Z5test2v+0xdf5>
    1000:	48 8d 74 24 40       	lea    0x40(%rsp),%rsi
    1005:	e8 00 00 00 00       	callq  100a <_Z5test2v+0x100a>
    100a:	e9 e6 fd ff ff       	jmpq   df5 <_Z5test2v+0xdf5>
    100f:	48 89 c3             	mov    %rax,%rbx
    1012:	e9 de fd ff ff       	jmpq   df5 <_Z5test2v+0xdf5>
    1017:	4c 89 ef             	mov    %r13,%rdi
    101a:	48 89 c3             	mov    %rax,%rbx
    101d:	e8 00 00 00 00       	callq  1022 <_Z5test2v+0x1022>
    1022:	e9 ce fd ff ff       	jmpq   df5 <_Z5test2v+0xdf5>
    1027:	b8 00 00 00 00       	mov    $0x0,%eax
    102c:	48 8d 4f 10          	lea    0x10(%rdi),%rcx
    1030:	48 85 c0             	test   %rax,%rax
    1033:	74 5a                	je     108f <_Z5test2v+0x108f>
    1035:	b8 ff ff ff ff       	mov    $0xffffffff,%eax
    103a:	f0 0f c1 01          	lock xadd %eax,(%rcx)
    103e:	85 c0                	test   %eax,%eax
    1040:	0f 8f d8 fe ff ff    	jg     f1e <_Z5test2v+0xf1e>
    1046:	48 8d 74 24 30       	lea    0x30(%rsp),%rsi
    104b:	e8 00 00 00 00       	callq  1050 <_Z5test2v+0x1050>
    1050:	e9 c9 fe ff ff       	jmpq   f1e <_Z5test2v+0xf1e>
    1055:	48 89 c3             	mov    %rax,%rbx
    1058:	48 8b 44 24 40       	mov    0x40(%rsp),%rax
    105d:	48 8d 78 e8          	lea    -0x18(%rax),%rdi
    1061:	48 81 ff 00 00 00 00 	cmp    $0x0,%rdi
    1068:	74 0a                	je     1074 <_Z5test2v+0x1074>
    106a:	48 8d 74 24 30       	lea    0x30(%rsp),%rsi
    106f:	e8 00 00 00 00       	callq  1074 <_Z5test2v+0x1074>
    1074:	48 8b 44 24 10       	mov    0x10(%rsp),%rax
    1079:	48 8d 78 e8          	lea    -0x18(%rax),%rdi
    107d:	48 81 ff 00 00 00 00 	cmp    $0x0,%rdi
    1084:	0f 84 6b fd ff ff    	je     df5 <_Z5test2v+0xdf5>
    108a:	e9 71 ff ff ff       	jmpq   1000 <_Z5test2v+0x1000>
    108f:	8b 42 f8             	mov    -0x8(%rdx),%eax
    1092:	8d 48 ff             	lea    -0x1(%rax),%ecx
    1095:	89 4a f8             	mov    %ecx,-0x8(%rdx)
    1098:	eb a4                	jmp    103e <_Z5test2v+0x103e>
    109a:	48 89 c3             	mov    %rax,%rbx
    109d:	eb d5                	jmp    1074 <_Z5test2v+0x1074>
    109f:	48 8d 54 24 08       	lea    0x8(%rsp),%rdx
    10a4:	be 00 00 00 00       	mov    $0x0,%esi
    10a9:	4c 89 ef             	mov    %r13,%rdi
    10ac:	e8 00 00 00 00       	callq  10b1 <_Z5test2v+0x10b1>
    10b1:	e9 1a fe ff ff       	jmpq   ed0 <_Z5test2v+0xed0>
    10b6:	48 8d 54 24 0a       	lea    0xa(%rsp),%rdx
    10bb:	be 00 00 00 00       	mov    $0x0,%esi
    10c0:	4c 89 ef             	mov    %r13,%rdi
    10c3:	e8 00 00 00 00       	callq  10c8 <_Z5test2v+0x10c8>
    10c8:	e9 03 fe ff ff       	jmpq   ed0 <_Z5test2v+0xed0>
    10cd:	48 8d 54 24 09       	lea    0x9(%rsp),%rdx
    10d2:	be 00 00 00 00       	mov    $0x0,%esi
    10d7:	4c 89 ef             	mov    %r13,%rdi
    10da:	e8 00 00 00 00       	callq  10df <_Z5test2v+0x10df>
    10df:	e9 ec fd ff ff       	jmpq   ed0 <_Z5test2v+0xed0>
    10e4:	89 da                	mov    %ebx,%edx
    10e6:	4c 89 fe             	mov    %r15,%rsi
    10e9:	4c 89 ef             	mov    %r13,%rdi
    10ec:	ff d0                	callq  *%rax
    10ee:	e9 dd fd ff ff       	jmpq   ed0 <_Z5test2v+0xed0>
    10f3:	b8 00 00 00 00       	mov    $0x0,%eax
    10f8:	48 8d 4f 10          	lea    0x10(%rdi),%rcx
    10fc:	48 85 c0             	test   %rax,%rax
    10ff:	0f 84 37 01 00 00    	je     123c <_Z5test2v+0x123c>
    1105:	b8 ff ff ff ff       	mov    $0xffffffff,%eax
    110a:	f0 0f c1 01          	lock xadd %eax,(%rcx)
    110e:	85 c0                	test   %eax,%eax
    1110:	0f 8f 83 fb ff ff    	jg     c99 <_Z5test2v+0xc99>
    1116:	48 8d 74 24 40       	lea    0x40(%rsp),%rsi
    111b:	e8 00 00 00 00       	callq  1120 <_Z5test2v+0x1120>
    1120:	e9 74 fb ff ff       	jmpq   c99 <_Z5test2v+0xc99>
    1125:	4c 89 f7             	mov    %r14,%rdi
    1128:	48 89 c3             	mov    %rax,%rbx
    112b:	e8 00 00 00 00       	callq  1130 <_Z5test2v+0x1130>
    1130:	4c 89 f7             	mov    %r14,%rdi
    1133:	e8 00 00 00 00       	callq  1138 <_Z5test2v+0x1138>
    1138:	e9 84 fe ff ff       	jmpq   fc1 <_Z5test2v+0xfc1>
    113d:	48 8d 43 08          	lea    0x8(%rbx),%rax
    1141:	e9 85 f4 ff ff       	jmpq   5cb <_Z5test2v+0x5cb>
    1146:	4c 89 f7             	mov    %r14,%rdi
    1149:	48 89 c3             	mov    %rax,%rbx
    114c:	e8 00 00 00 00       	callq  1151 <_Z5test2v+0x1151>
    1151:	4c 89 f7             	mov    %r14,%rdi
    1154:	e8 00 00 00 00       	callq  1159 <_Z5test2v+0x1159>
    1159:	e9 8f fc ff ff       	jmpq   ded <_Z5test2v+0xded>
    115e:	48 89 c3             	mov    %rax,%rbx
    1161:	48 8d 7c 24 30       	lea    0x30(%rsp),%rdi
    1166:	e8 00 00 00 00       	callq  116b <_Z5test2v+0x116b>
    116b:	e9 24 fc ff ff       	jmpq   d94 <_Z5test2v+0xd94>
    1170:	48 89 c3             	mov    %rax,%rbx
    1173:	e9 14 fc ff ff       	jmpq   d8c <_Z5test2v+0xd8c>
    1178:	bf 20 00 00 00       	mov    $0x20,%edi
    117d:	e8 00 00 00 00       	callq  1182 <_Z5test2v+0x1182>
    1182:	49 89 c5             	mov    %rax,%r13
    1185:	e8 00 00 00 00       	callq  118a <_Z5test2v+0x118a>
    118a:	be 04 00 00 00       	mov    $0x4,%esi
    118f:	48 89 c2             	mov    %rax,%rdx
    1192:	4c 89 ef             	mov    %r13,%rdi
    1195:	e8 00 00 00 00       	callq  119a <_Z5test2v+0x119a>
    119a:	ba 00 00 00 00       	mov    $0x0,%edx
    119f:	be 00 00 00 00       	mov    $0x0,%esi
    11a4:	4c 89 ef             	mov    %r13,%rdi
    11a7:	e8 00 00 00 00       	callq  11ac <_Z5test2v+0x11ac>
    11ac:	bf 01 00 00 00       	mov    $0x1,%edi
    11b1:	e8 00 00 00 00       	callq  11b6 <_Z5test2v+0x11b6>
    11b6:	4c 89 e7             	mov    %r12,%rdi
    11b9:	48 89 c3             	mov    %rax,%rbx
    11bc:	e8 00 00 00 00       	callq  11c1 <_Z5test2v+0x11c1>
    11c1:	eb 9e                	jmp    1161 <_Z5test2v+0x1161>
    11c3:	e9 4f fe ff ff       	jmpq   1017 <_Z5test2v+0x1017>
    11c8:	bf 01 00 00 00       	mov    $0x1,%edi
    11cd:	e8 00 00 00 00       	callq  11d2 <_Z5test2v+0x11d2>
    11d2:	48 89 c3             	mov    %rax,%rbx
    11d5:	e9 9e fb ff ff       	jmpq   d78 <_Z5test2v+0xd78>
    11da:	48 8d 7c 24 70       	lea    0x70(%rsp),%rdi
    11df:	48 89 c3             	mov    %rax,%rbx
    11e2:	e8 00 00 00 00       	callq  11e7 <_Z5test2v+0x11e7>
    11e7:	4c 89 f7             	mov    %r14,%rdi
    11ea:	e8 00 00 00 00       	callq  11ef <_Z5test2v+0x11ef>
    11ef:	e9 01 fc ff ff       	jmpq   df5 <_Z5test2v+0xdf5>
    11f4:	e8 00 00 00 00       	callq  11f9 <_Z5test2v+0x11f9>
    11f9:	49 8d 7c 24 08       	lea    0x8(%r12),%rdi
    11fe:	e8 00 00 00 00       	callq  1203 <_Z5test2v+0x1203>
    1203:	c6 84 24 b8 00 00 00 	movb   $0x0,0xb8(%rsp)
    120a:	00 
    120b:	e9 5c fd ff ff       	jmpq   f6c <_Z5test2v+0xf6c>
    1210:	b8 00 00 00 00       	mov    $0x0,%eax
    1215:	48 8d 4f 10          	lea    0x10(%rdi),%rcx
    1219:	48 85 c0             	test   %rax,%rax
    121c:	74 2c                	je     124a <_Z5test2v+0x124a>
    121e:	b8 ff ff ff ff       	mov    $0xffffffff,%eax
    1223:	f0 0f c1 01          	lock xadd %eax,(%rcx)
    1227:	85 c0                	test   %eax,%eax
    1229:	0f 8f 05 fd ff ff    	jg     f34 <_Z5test2v+0xf34>
    122f:	4c 89 f6             	mov    %r14,%rsi
    1232:	e8 00 00 00 00       	callq  1237 <_Z5test2v+0x1237>
    1237:	e9 f8 fc ff ff       	jmpq   f34 <_Z5test2v+0xf34>
    123c:	8b 42 f8             	mov    -0x8(%rdx),%eax
    123f:	8d 48 ff             	lea    -0x1(%rax),%ecx
    1242:	89 4a f8             	mov    %ecx,-0x8(%rdx)
    1245:	e9 c4 fe ff ff       	jmpq   110e <_Z5test2v+0x110e>
    124a:	8b 42 f8             	mov    -0x8(%rdx),%eax
    124d:	8d 48 ff             	lea    -0x1(%rax),%ecx
    1250:	89 4a f8             	mov    %ecx,-0x8(%rdx)
    1253:	eb d2                	jmp    1227 <_Z5test2v+0x1227>
