      10:	41 57                	push   %r15
      12:	66 0f ef c0          	pxor   %xmm0,%xmm0
      16:	41 56                	push   %r14
      18:	41 55                	push   %r13
      1a:	41 54                	push   %r12
      1c:	55                   	push   %rbp
      1d:	53                   	push   %rbx
      1e:	48 81 ec 48 01 00 00 	sub    $0x148,%rsp
      25:	0f 29 84 24 f0 00 00 	movaps %xmm0,0xf0(%rsp)
      2c:	00 
      2d:	64 48 8b 04 25 28 00 	mov    %fs:0x28,%rax
      34:	00 00 
      36:	48 89 84 24 38 01 00 	mov    %rax,0x138(%rsp)
      3d:	00 
      3e:	31 c0                	xor    %eax,%eax
      40:	0f 29 84 24 00 01 00 	movaps %xmm0,0x100(%rsp)
      47:	00 
      48:	0f 29 44 24 30       	movaps %xmm0,0x30(%rsp)
      4d:	c6 84 24 e0 00 00 00 	movb   $0x0,0xe0(%rsp)
      54:	00 
      55:	c6 84 24 e8 00 00 00 	movb   $0x0,0xe8(%rsp)
      5c:	00 
      5d:	c6 84 24 e9 00 00 00 	movb   $0x0,0xe9(%rsp)
      64:	00 
      65:	0f 1f 00             	nopl   (%rax)
      68:	31 db                	xor    %ebx,%ebx
      6a:	eb 3c                	jmp    a8 <_Z5test2v+0xa8>
      6c:	0f 1f 40 00          	nopl   0x0(%rax)
      70:	48 81 fb f9 00 00 00 	cmp    $0xf9,%rbx
      77:	0f 86 83 00 00 00    	jbe    100 <_Z5test2v+0x100>
      7d:	48 8d bc 24 a0 00 00 	lea    0xa0(%rsp),%rdi
      84:	00 
      85:	31 f6                	xor    %esi,%esi
      87:	48 c7 84 24 a0 00 00 	movq   $0x0,0xa0(%rsp)
      8e:	00 00 00 00 00 
      93:	48 c7 84 24 a8 00 00 	movq   $0xf4240,0xa8(%rsp)
      9a:	00 40 42 0f 00 
      9f:	e8 00 00 00 00       	callq  a4 <_Z5test2v+0xa4>
      a4:	48 83 c3 01          	add    $0x1,%rbx
      a8:	0f b6 84 24 e8 00 00 	movzbl 0xe8(%rsp),%eax
      af:	00 
      b0:	84 c0                	test   %al,%al
      b2:	74 0c                	je     c0 <_Z5test2v+0xc0>
      b4:	48 83 fb 7c          	cmp    $0x7c,%rbx
      b8:	77 b6                	ja     70 <_Z5test2v+0x70>
      ba:	f3 90                	pause  
      bc:	eb e6                	jmp    a4 <_Z5test2v+0xa4>
      be:	66 90                	xchg   %ax,%ax
      c0:	b8 01 00 00 00       	mov    $0x1,%eax
      c5:	89 c2                	mov    %eax,%edx
      c7:	86 94 24 e8 00 00 00 	xchg   %dl,0xe8(%rsp)
      ce:	84 d2                	test   %dl,%dl
      d0:	75 e2                	jne    b4 <_Z5test2v+0xb4>
      d2:	48 8b 94 24 f0 00 00 	mov    0xf0(%rsp),%rdx
      d9:	00 
      da:	48 85 d2             	test   %rdx,%rdx
      dd:	0f 84 7d 00 00 00    	je     160 <_Z5test2v+0x160>
      e3:	0f b6 4a 18          	movzbl 0x18(%rdx),%ecx
      e7:	48 8d 72 18          	lea    0x18(%rdx),%rsi
      eb:	84 c9                	test   %cl,%cl
      ed:	74 21                	je     110 <_Z5test2v+0x110>
      ef:	c6 84 24 e8 00 00 00 	movb   $0x0,0xe8(%rsp)
      f6:	00 
      f7:	e9 6c ff ff ff       	jmpq   68 <_Z5test2v+0x68>
      fc:	0f 1f 40 00          	nopl   0x0(%rax)
     100:	e8 00 00 00 00       	callq  105 <_Z5test2v+0x105>
     105:	eb 9d                	jmp    a4 <_Z5test2v+0xa4>
     107:	66 0f 1f 84 00 00 00 	nopw   0x0(%rax,%rax,1)
     10e:	00 00 
     110:	86 06                	xchg   %al,(%rsi)
     112:	84 c0                	test   %al,%al
     114:	75 d9                	jne    ef <_Z5test2v+0xef>
     116:	48 8d ac 24 d0 00 00 	lea    0xd0(%rsp),%rbp
     11d:	00 
     11e:	48 89 54 24 38       	mov    %rdx,0x38(%rsp)
     123:	48 89 6c 24 30       	mov    %rbp,0x30(%rsp)
     128:	bf 20 00 00 00       	mov    $0x20,%edi
     12d:	e8 00 00 00 00       	callq  132 <_Z5test2v+0x132>
     132:	49 89 c4             	mov    %rax,%r12
     135:	e8 00 00 00 00       	callq  13a <_Z5test2v+0x13a>
     13a:	be 01 00 00 00       	mov    $0x1,%esi
     13f:	48 89 c2             	mov    %rax,%rdx
     142:	4c 89 e7             	mov    %r12,%rdi
     145:	e8 00 00 00 00       	callq  14a <_Z5test2v+0x14a>
     14a:	ba 00 00 00 00       	mov    $0x0,%edx
     14f:	be 00 00 00 00       	mov    $0x0,%esi
     154:	4c 89 e7             	mov    %r12,%rdi
     157:	e8 00 00 00 00       	callq  15c <_Z5test2v+0x15c>
     15c:	0f 1f 40 00          	nopl   0x0(%rax)
     160:	48 83 7c 24 38 00    	cmpq   $0x0,0x38(%rsp)
     166:	48 8d ac 24 d0 00 00 	lea    0xd0(%rsp),%rbp
     16d:	00 
     16e:	48 89 6c 24 30       	mov    %rbp,0x30(%rsp)
     173:	75 b3                	jne    128 <_Z5test2v+0x128>
     175:	80 bc 24 e9 00 00 00 	cmpb   $0x0,0xe9(%rsp)
     17c:	00 
     17d:	75 a9                	jne    128 <_Z5test2v+0x128>
     17f:	0f b6 84 24 e0 00 00 	movzbl 0xe0(%rsp),%eax
     186:	00 
     187:	c6 84 24 80 00 00 00 	movb   $0x0,0x80(%rsp)
     18e:	00 
     18f:	c6 84 24 88 00 00 00 	movb   $0x0,0x88(%rsp)
     196:	00 
     197:	c6 84 24 89 00 00 00 	movb   $0x0,0x89(%rsp)
     19e:	00 
     19f:	48 c7 84 24 90 00 00 	movq   $0x0,0x90(%rsp)
     1a6:	00 00 00 00 00 
     1ab:	84 c0                	test   %al,%al
     1ad:	0f 85 2a 07 00 00    	jne    8dd <_Z5test2v+0x8dd>
     1b3:	4c 8d 64 24 70       	lea    0x70(%rsp),%r12
     1b8:	48 89 ac 24 90 00 00 	mov    %rbp,0x90(%rsp)
     1bf:	00 
     1c0:	4c 89 a4 24 f0 00 00 	mov    %r12,0xf0(%rsp)
     1c7:	00 
     1c8:	c6 84 24 e8 00 00 00 	movb   $0x0,0xe8(%rsp)
     1cf:	00 
     1d0:	48 8b 44 24 38       	mov    0x38(%rsp),%rax
     1d5:	48 c7 44 24 30 00 00 	movq   $0x0,0x30(%rsp)
     1dc:	00 00 
     1de:	48 85 c0             	test   %rax,%rax
     1e1:	74 32                	je     215 <_Z5test2v+0x215>
     1e3:	c6 40 18 00          	movb   $0x0,0x18(%rax)
     1e7:	48 8b 44 24 30       	mov    0x30(%rsp),%rax
     1ec:	48 c7 44 24 38 00 00 	movq   $0x0,0x38(%rsp)
     1f3:	00 00 
     1f5:	48 85 c0             	test   %rax,%rax
     1f8:	74 1b                	je     215 <_Z5test2v+0x215>
     1fa:	c6 40 18 00          	movb   $0x0,0x18(%rax)
     1fe:	48 8b 44 24 38       	mov    0x38(%rsp),%rax
     203:	48 c7 44 24 30 00 00 	movq   $0x0,0x30(%rsp)
     20a:	00 00 
     20c:	48 85 c0             	test   %rax,%rax
     20f:	74 04                	je     215 <_Z5test2v+0x215>
     211:	c6 40 18 00          	movb   $0x0,0x18(%rax)
     215:	48 c7 44 24 40 00 00 	movq   $0x0,0x40(%rsp)
     21c:	00 00 
     21e:	48 c7 44 24 48 00 00 	movq   $0x0,0x48(%rsp)
     225:	00 00 
     227:	66 0f 1f 84 00 00 00 	nopw   0x0(%rax,%rax,1)
     22e:	00 00 
     230:	31 db                	xor    %ebx,%ebx
     232:	eb 3c                	jmp    270 <_Z5test2v+0x270>
     234:	0f 1f 40 00          	nopl   0x0(%rax)
     238:	48 81 fb f9 00 00 00 	cmp    $0xf9,%rbx
     23f:	0f 86 8b 00 00 00    	jbe    2d0 <_Z5test2v+0x2d0>
     245:	48 8d bc 24 a0 00 00 	lea    0xa0(%rsp),%rdi
     24c:	00 
     24d:	31 f6                	xor    %esi,%esi
     24f:	48 c7 84 24 a0 00 00 	movq   $0x0,0xa0(%rsp)
     256:	00 00 00 00 00 
     25b:	48 c7 84 24 a8 00 00 	movq   $0xf4240,0xa8(%rsp)
     262:	00 40 42 0f 00 
     267:	e8 00 00 00 00       	callq  26c <_Z5test2v+0x26c>
     26c:	48 83 c3 01          	add    $0x1,%rbx
     270:	0f b6 84 24 e8 00 00 	movzbl 0xe8(%rsp),%eax
     277:	00 
     278:	84 c0                	test   %al,%al
     27a:	74 14                	je     290 <_Z5test2v+0x290>
     27c:	48 83 fb 7c          	cmp    $0x7c,%rbx
     280:	77 b6                	ja     238 <_Z5test2v+0x238>
     282:	f3 90                	pause  
     284:	eb e6                	jmp    26c <_Z5test2v+0x26c>
     286:	66 2e 0f 1f 84 00 00 	nopw   %cs:0x0(%rax,%rax,1)
     28d:	00 00 00 
     290:	b8 01 00 00 00       	mov    $0x1,%eax
     295:	89 c2                	mov    %eax,%edx
     297:	86 94 24 e8 00 00 00 	xchg   %dl,0xe8(%rsp)
     29e:	84 d2                	test   %dl,%dl
     2a0:	75 da                	jne    27c <_Z5test2v+0x27c>
     2a2:	48 8b 94 24 f0 00 00 	mov    0xf0(%rsp),%rdx
     2a9:	00 
     2aa:	48 85 d2             	test   %rdx,%rdx
     2ad:	0f 84 ea 01 00 00    	je     49d <_Z5test2v+0x49d>
     2b3:	0f b6 4a 18          	movzbl 0x18(%rdx),%ecx
     2b7:	48 8d 72 18          	lea    0x18(%rdx),%rsi
     2bb:	84 c9                	test   %cl,%cl
     2bd:	74 21                	je     2e0 <_Z5test2v+0x2e0>
     2bf:	c6 84 24 e8 00 00 00 	movb   $0x0,0xe8(%rsp)
     2c6:	00 
     2c7:	e9 64 ff ff ff       	jmpq   230 <_Z5test2v+0x230>
     2cc:	0f 1f 40 00          	nopl   0x0(%rax)
     2d0:	e8 00 00 00 00       	callq  2d5 <_Z5test2v+0x2d5>
     2d5:	eb 95                	jmp    26c <_Z5test2v+0x26c>
     2d7:	66 0f 1f 84 00 00 00 	nopw   0x0(%rax,%rax,1)
     2de:	00 00 
     2e0:	86 06                	xchg   %al,(%rsi)
     2e2:	84 c0                	test   %al,%al
     2e4:	75 d9                	jne    2bf <_Z5test2v+0x2bf>
     2e6:	80 bc 24 e9 00 00 00 	cmpb   $0x0,0xe9(%rsp)
     2ed:	00 
     2ee:	48 89 6c 24 40       	mov    %rbp,0x40(%rsp)
     2f3:	48 89 54 24 48       	mov    %rdx,0x48(%rsp)
     2f8:	0f 85 17 06 00 00    	jne    915 <_Z5test2v+0x915>
     2fe:	80 7a 10 00          	cmpb   $0x0,0x10(%rdx)
     302:	0f 85 6b 0e 00 00    	jne    1173 <_Z5test2v+0x1173>
     308:	48 8b 84 24 f8 00 00 	mov    0xf8(%rsp),%rax
     30f:	00 
     310:	48 85 c0             	test   %rax,%rax
     313:	0f 84 76 07 00 00    	je     a8f <_Z5test2v+0xa8f>
     319:	c7 00 05 00 00 00    	movl   $0x5,(%rax)
     31f:	c6 40 10 01          	movb   $0x1,0x10(%rax)
     323:	48 8b 84 24 f8 00 00 	mov    0xf8(%rsp),%rax
     32a:	00 
     32b:	c6 84 24 e9 00 00 00 	movb   $0x1,0xe9(%rsp)
     332:	01 
     333:	48 89 44 24 50       	mov    %rax,0x50(%rsp)
     338:	48 8b 84 24 00 01 00 	mov    0x100(%rsp),%rax
     33f:	00 
     340:	48 c7 84 24 00 01 00 	movq   $0x0,0x100(%rsp)
     347:	00 00 00 00 00 
     34c:	48 89 44 24 58       	mov    %rax,0x58(%rsp)
     351:	48 8b 84 24 08 01 00 	mov    0x108(%rsp),%rax
     358:	00 
     359:	48 c7 84 24 08 01 00 	movq   $0x0,0x108(%rsp)
     360:	00 00 00 00 00 
     365:	48 89 44 24 60       	mov    %rax,0x60(%rsp)
     36a:	48 8b 44 24 48       	mov    0x48(%rsp),%rax
     36f:	48 c7 40 20 00 00 00 	movq   $0x0,0x20(%rax)
     376:	00 
     377:	48 8b 54 24 40       	mov    0x40(%rsp),%rdx
     37c:	48 c7 84 24 f0 00 00 	movq   $0x0,0xf0(%rsp)
     383:	00 00 00 00 00 
     388:	48 85 d2             	test   %rdx,%rdx
     38b:	74 17                	je     3a4 <_Z5test2v+0x3a4>
     38d:	c6 42 18 00          	movb   $0x0,0x18(%rdx)
     391:	48 8b 44 24 48       	mov    0x48(%rsp),%rax
     396:	48 c7 44 24 40 00 00 	movq   $0x0,0x40(%rsp)
     39d:	00 00 
     39f:	48 85 c0             	test   %rax,%rax
     3a2:	74 0d                	je     3b1 <_Z5test2v+0x3b1>
     3a4:	c6 40 18 00          	movb   $0x0,0x18(%rax)
     3a8:	48 c7 44 24 48 00 00 	movq   $0x0,0x48(%rsp)
     3af:	00 00 
     3b1:	48 8b 7c 24 58       	mov    0x58(%rsp),%rdi
     3b6:	48 85 ff             	test   %rdi,%rdi
     3b9:	74 15                	je     3d0 <_Z5test2v+0x3d0>
     3bb:	48 8b 44 24 50       	mov    0x50(%rsp),%rax
     3c0:	48 8d 74 24 28       	lea    0x28(%rsp),%rsi
     3c5:	48 89 44 24 28       	mov    %rax,0x28(%rsp)
     3ca:	48 8b 07             	mov    (%rdi),%rax
     3cd:	ff 50 10             	callq  *0x10(%rax)
     3d0:	48 8b 44 24 60       	mov    0x60(%rsp),%rax
     3d5:	48 85 c0             	test   %rax,%rax
     3d8:	0f 84 76 01 00 00    	je     554 <_Z5test2v+0x554>
     3de:	48 8b 00             	mov    (%rax),%rax
     3e1:	48 c7 84 24 28 01 00 	movq   $0x0,0x128(%rsp)
     3e8:	00 00 00 00 00 
     3ed:	48 8d 94 24 a0 00 00 	lea    0xa0(%rsp),%rdx
     3f4:	00 
     3f5:	48 c7 84 24 20 01 00 	movq   $0x0,0x120(%rsp)
     3fc:	00 00 00 00 00 
     401:	4c 8d ac 24 10 01 00 	lea    0x110(%rsp),%r13
     408:	00 
     409:	48 89 84 24 10 01 00 	mov    %rax,0x110(%rsp)
     410:	00 
     411:	48 8b 18             	mov    (%rax),%rbx
     414:	48 8d 44 24 07       	lea    0x7(%rsp),%rax
     419:	c6 44 24 07 00       	movb   $0x0,0x7(%rsp)
     41e:	4c 89 ac 24 a8 00 00 	mov    %r13,0xa8(%rsp)
     425:	00 
     426:	48 89 84 24 a0 00 00 	mov    %rax,0xa0(%rsp)
     42d:	00 
     42e:	48 8b 05 00 00 00 00 	mov    0x0(%rip),%rax        # 435 <_Z5test2v+0x435>
     435:	48 89 9c 24 b0 00 00 	mov    %rbx,0xb0(%rsp)
     43c:	00 
     43d:	48 c7 84 24 b8 00 00 	movq   $0x0,0xb8(%rsp)
     444:	00 00 00 00 00 
     449:	48 c7 84 24 c0 00 00 	movq   $0x0,0xc0(%rsp)
     450:	00 00 00 00 00 
     455:	64 48 89 10          	mov    %rdx,%fs:(%rax)
     459:	48 8b 05 00 00 00 00 	mov    0x0(%rip),%rax        # 460 <_Z5test2v+0x460>
     460:	64 48 c7 00 00 00 00 	movq   $0x0,%fs:(%rax)
     467:	00 
     468:	b8 00 00 00 00       	mov    $0x0,%eax
     46d:	48 85 c0             	test   %rax,%rax
     470:	0f 84 b3 04 00 00    	je     929 <_Z5test2v+0x929>
     476:	48 8d 7b 18          	lea    0x18(%rbx),%rdi
     47a:	be 00 00 00 00       	mov    $0x0,%esi
     47f:	e8 00 00 00 00       	callq  484 <_Z5test2v+0x484>
     484:	85 c0                	test   %eax,%eax
     486:	0f 85 a2 04 00 00    	jne    92e <_Z5test2v+0x92e>
     48c:	80 7c 24 07 00       	cmpb   $0x0,0x7(%rsp)
     491:	75 54                	jne    4e7 <_Z5test2v+0x4e7>
     493:	bf 02 00 00 00       	mov    $0x2,%edi
     498:	e8 00 00 00 00       	callq  49d <_Z5test2v+0x49d>
     49d:	80 bc 24 e9 00 00 00 	cmpb   $0x0,0xe9(%rsp)
     4a4:	00 
     4a5:	48 89 6c 24 40       	mov    %rbp,0x40(%rsp)
     4aa:	0f 85 65 04 00 00    	jne    915 <_Z5test2v+0x915>
     4b0:	48 8b 54 24 48       	mov    0x48(%rsp),%rdx
     4b5:	48 85 d2             	test   %rdx,%rdx
     4b8:	0f 85 40 fe ff ff    	jne    2fe <_Z5test2v+0x2fe>
     4be:	80 bc 24 e0 00 00 00 	cmpb   $0x0,0xe0(%rsp)
     4c5:	00 
     4c6:	0f 85 08 0c 00 00    	jne    10d4 <_Z5test2v+0x10d4>
     4cc:	c7 84 24 d0 00 00 00 	movl   $0x5,0xd0(%rsp)
     4d3:	05 00 00 00 
     4d7:	c6 84 24 e0 00 00 00 	movb   $0x1,0xe0(%rsp)
     4de:	01 
     4df:	48 89 e8             	mov    %rbp,%rax
     4e2:	e9 87 00 00 00       	jmpq   56e <_Z5test2v+0x56e>
     4e7:	48 8d 7b 10          	lea    0x10(%rbx),%rdi
     4eb:	b8 01 00 00 00       	mov    $0x1,%eax
     4f0:	87 07                	xchg   %eax,(%rdi)
     4f2:	85 c0                	test   %eax,%eax
     4f4:	0f 88 bf 08 00 00    	js     db9 <_Z5test2v+0xdb9>
     4fa:	48 8b 84 24 20 01 00 	mov    0x120(%rsp),%rax
     501:	00 
     502:	48 85 c0             	test   %rax,%rax
     505:	74 0d                	je     514 <_Z5test2v+0x514>
     507:	ba 03 00 00 00       	mov    $0x3,%edx
     50c:	4c 89 ee             	mov    %r13,%rsi
     50f:	4c 89 ef             	mov    %r13,%rdi
     512:	ff d0                	callq  *%rax
     514:	4c 8b 6c 24 60       	mov    0x60(%rsp),%r13
     519:	4d 85 ed             	test   %r13,%r13
     51c:	74 36                	je     554 <_Z5test2v+0x554>
     51e:	49 8b 5d 08          	mov    0x8(%r13),%rbx
     522:	48 85 db             	test   %rbx,%rbx
     525:	74 20                	je     547 <_Z5test2v+0x547>
     527:	f0 83 6b 08 01       	lock subl $0x1,0x8(%rbx)
     52c:	75 19                	jne    547 <_Z5test2v+0x547>
     52e:	48 8b 03             	mov    (%rbx),%rax
     531:	48 89 df             	mov    %rbx,%rdi
     534:	ff 50 10             	callq  *0x10(%rax)
     537:	f0 83 6b 0c 01       	lock subl $0x1,0xc(%rbx)
     53c:	75 09                	jne    547 <_Z5test2v+0x547>
     53e:	48 8b 03             	mov    (%rbx),%rax
     541:	48 89 df             	mov    %rbx,%rdi
     544:	ff 50 18             	callq  *0x18(%rax)
     547:	be 10 00 00 00       	mov    $0x10,%esi
     54c:	4c 89 ef             	mov    %r13,%rdi
     54f:	e8 00 00 00 00       	callq  554 <_Z5test2v+0x554>
     554:	48 8b 7c 24 58       	mov    0x58(%rsp),%rdi
     559:	48 85 ff             	test   %rdi,%rdi
     55c:	74 06                	je     564 <_Z5test2v+0x564>
     55e:	48 8b 07             	mov    (%rdi),%rax
     561:	ff 50 08             	callq  *0x8(%rax)
     564:	48 8b 44 24 40       	mov    0x40(%rsp),%rax
     569:	48 85 c0             	test   %rax,%rax
     56c:	74 0d                	je     57b <_Z5test2v+0x57b>
     56e:	c6 40 18 00          	movb   $0x0,0x18(%rax)
     572:	48 c7 44 24 40 00 00 	movq   $0x0,0x40(%rsp)
     579:	00 00 
     57b:	48 8b 44 24 48       	mov    0x48(%rsp),%rax
     580:	48 85 c0             	test   %rax,%rax
     583:	74 04                	je     589 <_Z5test2v+0x589>
     585:	c6 40 18 00          	movb   $0x0,0x18(%rax)
     589:	80 bc 24 80 00 00 00 	cmpb   $0x0,0x80(%rsp)
     590:	00 
     591:	0f 84 07 05 00 00    	je     a9e <_Z5test2v+0xa9e>
     597:	48 c7 44 24 50 00 00 	movq   $0x0,0x50(%rsp)
     59e:	00 00 
     5a0:	48 c7 44 24 58 00 00 	movq   $0x0,0x58(%rsp)
     5a7:	00 00 
     5a9:	0f 1f 80 00 00 00 00 	nopl   0x0(%rax)
     5b0:	31 db                	xor    %ebx,%ebx
     5b2:	eb 3c                	jmp    5f0 <_Z5test2v+0x5f0>
     5b4:	0f 1f 40 00          	nopl   0x0(%rax)
     5b8:	48 81 fb f9 00 00 00 	cmp    $0xf9,%rbx
     5bf:	0f 86 8b 00 00 00    	jbe    650 <_Z5test2v+0x650>
     5c5:	48 8d bc 24 a0 00 00 	lea    0xa0(%rsp),%rdi
     5cc:	00 
     5cd:	31 f6                	xor    %esi,%esi
     5cf:	48 c7 84 24 a0 00 00 	movq   $0x0,0xa0(%rsp)
     5d6:	00 00 00 00 00 
     5db:	48 c7 84 24 a8 00 00 	movq   $0xf4240,0xa8(%rsp)
     5e2:	00 40 42 0f 00 
     5e7:	e8 00 00 00 00       	callq  5ec <_Z5test2v+0x5ec>
     5ec:	48 83 c3 01          	add    $0x1,%rbx
     5f0:	0f b6 84 24 88 00 00 	movzbl 0x88(%rsp),%eax
     5f7:	00 
     5f8:	84 c0                	test   %al,%al
     5fa:	74 14                	je     610 <_Z5test2v+0x610>
     5fc:	48 83 fb 7c          	cmp    $0x7c,%rbx
     600:	77 b6                	ja     5b8 <_Z5test2v+0x5b8>
     602:	f3 90                	pause  
     604:	eb e6                	jmp    5ec <_Z5test2v+0x5ec>
     606:	66 2e 0f 1f 84 00 00 	nopw   %cs:0x0(%rax,%rax,1)
     60d:	00 00 00 
     610:	b8 01 00 00 00       	mov    $0x1,%eax
     615:	89 c2                	mov    %eax,%edx
     617:	86 94 24 88 00 00 00 	xchg   %dl,0x88(%rsp)
     61e:	84 d2                	test   %dl,%dl
     620:	75 da                	jne    5fc <_Z5test2v+0x5fc>
     622:	48 8b 94 24 90 00 00 	mov    0x90(%rsp),%rdx
     629:	00 
     62a:	48 85 d2             	test   %rdx,%rdx
     62d:	0f 84 ec 02 00 00    	je     91f <_Z5test2v+0x91f>
     633:	0f b6 4a 18          	movzbl 0x18(%rdx),%ecx
     637:	48 8d 72 18          	lea    0x18(%rdx),%rsi
     63b:	84 c9                	test   %cl,%cl
     63d:	74 21                	je     660 <_Z5test2v+0x660>
     63f:	c6 84 24 88 00 00 00 	movb   $0x0,0x88(%rsp)
     646:	00 
     647:	e9 64 ff ff ff       	jmpq   5b0 <_Z5test2v+0x5b0>
     64c:	0f 1f 40 00          	nopl   0x0(%rax)
     650:	e8 00 00 00 00       	callq  655 <_Z5test2v+0x655>
     655:	eb 95                	jmp    5ec <_Z5test2v+0x5ec>
     657:	66 0f 1f 84 00 00 00 	nopw   0x0(%rax,%rax,1)
     65e:	00 00 
     660:	86 06                	xchg   %al,(%rsi)
     662:	84 c0                	test   %al,%al
     664:	75 d9                	jne    63f <_Z5test2v+0x63f>
     666:	48 89 54 24 50       	mov    %rdx,0x50(%rsp)
     66b:	4c 89 64 24 58       	mov    %r12,0x58(%rsp)
     670:	80 bc 24 89 00 00 00 	cmpb   $0x0,0x89(%rsp)
     677:	00 
     678:	0f 85 1a 0a 00 00    	jne    1098 <_Z5test2v+0x1098>
     67e:	48 83 bc 24 90 00 00 	cmpq   $0x0,0x90(%rsp)
     685:	00 00 
     687:	0f b6 84 24 80 00 00 	movzbl 0x80(%rsp),%eax
     68e:	00 
     68f:	0f 84 76 04 00 00    	je     b0b <_Z5test2v+0xb0b>
     695:	3c 02                	cmp    $0x2,%al
     697:	0f 84 b3 04 00 00    	je     b50 <_Z5test2v+0xb50>
     69d:	3c 03                	cmp    $0x3,%al
     69f:	75 4f                	jne    6f0 <_Z5test2v+0x6f0>
     6a1:	4c 8d 74 24 40       	lea    0x40(%rsp),%r14
     6a6:	4c 89 e6             	mov    %r12,%rsi
     6a9:	4c 89 f7             	mov    %r14,%rdi
     6ac:	e8 00 00 00 00       	callq  6b1 <_Z5test2v+0x6b1>
     6b1:	0f b6 84 24 80 00 00 	movzbl 0x80(%rsp),%eax
     6b8:	00 
     6b9:	3c 02                	cmp    $0x2,%al
     6bb:	0f 84 68 06 00 00    	je     d29 <_Z5test2v+0xd29>
     6c1:	3c 03                	cmp    $0x3,%al
     6c3:	0f 84 58 06 00 00    	je     d21 <_Z5test2v+0xd21>
     6c9:	3c 01                	cmp    $0x1,%al
     6cb:	0f 84 58 06 00 00    	je     d29 <_Z5test2v+0xd29>
     6d1:	48 8d bc 24 a0 00 00 	lea    0xa0(%rsp),%rdi
     6d8:	00 
     6d9:	4c 89 f6             	mov    %r14,%rsi
     6dc:	e8 00 00 00 00       	callq  6e1 <_Z5test2v+0x6e1>
     6e1:	48 8d bc 24 a0 00 00 	lea    0xa0(%rsp),%rdi
     6e8:	00 
     6e9:	e8 00 00 00 00       	callq  6ee <_Z5test2v+0x6ee>
     6ee:	66 90                	xchg   %ax,%ax
     6f0:	3c 01                	cmp    $0x1,%al
     6f2:	44 8b 6c 24 70       	mov    0x70(%rsp),%r13d
     6f7:	75 08                	jne    701 <_Z5test2v+0x701>
     6f9:	c6 84 24 80 00 00 00 	movb   $0x0,0x80(%rsp)
     700:	00 
     701:	48 8b 44 24 50       	mov    0x50(%rsp),%rax
     706:	48 85 c0             	test   %rax,%rax
     709:	74 0d                	je     718 <_Z5test2v+0x718>
     70b:	c6 40 18 00          	movb   $0x0,0x18(%rax)
     70f:	48 c7 44 24 50 00 00 	movq   $0x0,0x50(%rsp)
     716:	00 00 
     718:	48 8b 44 24 58       	mov    0x58(%rsp),%rax
     71d:	48 85 c0             	test   %rax,%rax
     720:	74 04                	je     726 <_Z5test2v+0x726>
     722:	c6 40 18 00          	movb   $0x0,0x18(%rax)
     726:	48 83 bc 24 90 00 00 	cmpq   $0x0,0x90(%rsp)
     72d:	00 00 
     72f:	0f 84 bb 02 00 00    	je     9f0 <_Z5test2v+0x9f0>
     735:	0f 1f 00             	nopl   (%rax)
     738:	31 db                	xor    %ebx,%ebx
     73a:	eb 3c                	jmp    778 <_Z5test2v+0x778>
     73c:	0f 1f 40 00          	nopl   0x0(%rax)
     740:	48 81 fb f9 00 00 00 	cmp    $0xf9,%rbx
     747:	0f 86 83 00 00 00    	jbe    7d0 <_Z5test2v+0x7d0>
     74d:	48 8d bc 24 a0 00 00 	lea    0xa0(%rsp),%rdi
     754:	00 
     755:	31 f6                	xor    %esi,%esi
     757:	48 c7 84 24 a0 00 00 	movq   $0x0,0xa0(%rsp)
     75e:	00 00 00 00 00 
     763:	48 c7 84 24 a8 00 00 	movq   $0xf4240,0xa8(%rsp)
     76a:	00 40 42 0f 00 
     76f:	e8 00 00 00 00       	callq  774 <_Z5test2v+0x774>
     774:	48 83 c3 01          	add    $0x1,%rbx
     778:	0f b6 84 24 88 00 00 	movzbl 0x88(%rsp),%eax
     77f:	00 
     780:	84 c0                	test   %al,%al
     782:	74 0c                	je     790 <_Z5test2v+0x790>
     784:	48 83 fb 7c          	cmp    $0x7c,%rbx
     788:	77 b6                	ja     740 <_Z5test2v+0x740>
     78a:	f3 90                	pause  
     78c:	eb e6                	jmp    774 <_Z5test2v+0x774>
     78e:	66 90                	xchg   %ax,%ax
     790:	b8 01 00 00 00       	mov    $0x1,%eax
     795:	89 c2                	mov    %eax,%edx
     797:	86 94 24 88 00 00 00 	xchg   %dl,0x88(%rsp)
     79e:	84 d2                	test   %dl,%dl
     7a0:	75 e2                	jne    784 <_Z5test2v+0x784>
     7a2:	48 8b 9c 24 90 00 00 	mov    0x90(%rsp),%rbx
     7a9:	00 
     7aa:	48 85 db             	test   %rbx,%rbx
     7ad:	0f 84 b7 02 00 00    	je     a6a <_Z5test2v+0xa6a>
     7b3:	0f b6 53 18          	movzbl 0x18(%rbx),%edx
     7b7:	48 8d 4b 18          	lea    0x18(%rbx),%rcx
     7bb:	84 d2                	test   %dl,%dl
     7bd:	74 18                	je     7d7 <_Z5test2v+0x7d7>
     7bf:	c6 84 24 88 00 00 00 	movb   $0x0,0x88(%rsp)
     7c6:	00 
     7c7:	e9 6c ff ff ff       	jmpq   738 <_Z5test2v+0x738>
     7cc:	0f 1f 40 00          	nopl   0x0(%rax)
     7d0:	e8 00 00 00 00       	callq  7d5 <_Z5test2v+0x7d5>
     7d5:	eb 9d                	jmp    774 <_Z5test2v+0x774>
     7d7:	86 01                	xchg   %al,(%rcx)
     7d9:	84 c0                	test   %al,%al
     7db:	75 e2                	jne    7bf <_Z5test2v+0x7bf>
     7dd:	48 8b 84 24 90 00 00 	mov    0x90(%rsp),%rax
     7e4:	00 
     7e5:	48 85 c0             	test   %rax,%rax
     7e8:	74 18                	je     802 <_Z5test2v+0x802>
     7ea:	48 c7 40 20 00 00 00 	movq   $0x0,0x20(%rax)
     7f1:	00 
     7f2:	c6 40 19 01          	movb   $0x1,0x19(%rax)
     7f6:	48 c7 84 24 90 00 00 	movq   $0x0,0x90(%rsp)
     7fd:	00 00 00 00 00 
     802:	0f b6 84 24 80 00 00 	movzbl 0x80(%rsp),%eax
     809:	00 
     80a:	3c 02                	cmp    $0x2,%al
     80c:	74 10                	je     81e <_Z5test2v+0x81e>
     80e:	3c 03                	cmp    $0x3,%al
     810:	0f 85 56 04 00 00    	jne    c6c <_Z5test2v+0xc6c>
     816:	4c 89 e7             	mov    %r12,%rdi
     819:	e8 00 00 00 00       	callq  81e <_Z5test2v+0x81e>
     81e:	48 85 db             	test   %rbx,%rbx
     821:	c6 84 24 80 00 00 00 	movb   $0x0,0x80(%rsp)
     828:	00 
     829:	74 04                	je     82f <_Z5test2v+0x82f>
     82b:	c6 43 18 00          	movb   $0x0,0x18(%rbx)
     82f:	c6 84 24 88 00 00 00 	movb   $0x0,0x88(%rsp)
     836:	00 
     837:	80 bc 24 80 00 00 00 	cmpb   $0x3,0x80(%rsp)
     83e:	03 
     83f:	0f 84 ac 02 00 00    	je     af1 <_Z5test2v+0xaf1>
     845:	80 bc 24 e9 00 00 00 	cmpb   $0x0,0xe9(%rsp)
     84c:	00 
     84d:	0f 84 20 01 00 00    	je     973 <_Z5test2v+0x973>
     853:	4c 8b a4 24 08 01 00 	mov    0x108(%rsp),%r12
     85a:	00 
     85b:	4d 85 e4             	test   %r12,%r12
     85e:	74 30                	je     890 <_Z5test2v+0x890>
     860:	49 8b 5c 24 08       	mov    0x8(%r12),%rbx
     865:	48 85 db             	test   %rbx,%rbx
     868:	74 19                	je     883 <_Z5test2v+0x883>
     86a:	b8 00 00 00 00       	mov    $0x0,%eax
     86f:	48 85 c0             	test   %rax,%rax
     872:	0f 84 01 04 00 00    	je     c79 <_Z5test2v+0xc79>
     878:	f0 83 6b 08 01       	lock subl $0x1,0x8(%rbx)
     87d:	0f 84 1e 05 00 00    	je     da1 <_Z5test2v+0xda1>
     883:	be 10 00 00 00       	mov    $0x10,%esi
     888:	4c 89 e7             	mov    %r12,%rdi
     88b:	e8 00 00 00 00       	callq  890 <_Z5test2v+0x890>
     890:	48 8b bc 24 00 01 00 	mov    0x100(%rsp),%rdi
     897:	00 
     898:	48 85 ff             	test   %rdi,%rdi
     89b:	74 06                	je     8a3 <_Z5test2v+0x8a3>
     89d:	48 8b 07             	mov    (%rdi),%rax
     8a0:	ff 50 08             	callq  *0x8(%rax)
     8a3:	80 bc 24 e0 00 00 00 	cmpb   $0x3,0xe0(%rsp)
     8aa:	03 
     8ab:	0f 84 4d 02 00 00    	je     afe <_Z5test2v+0xafe>
     8b1:	48 8b 8c 24 38 01 00 	mov    0x138(%rsp),%rcx
     8b8:	00 
     8b9:	64 48 33 0c 25 28 00 	xor    %fs:0x28,%rcx
     8c0:	00 00 
     8c2:	44 89 e8             	mov    %r13d,%eax
     8c5:	0f 85 a3 07 00 00    	jne    106e <_Z5test2v+0x106e>
     8cb:	48 81 c4 48 01 00 00 	add    $0x148,%rsp
     8d2:	5b                   	pop    %rbx
     8d3:	5d                   	pop    %rbp
     8d4:	41 5c                	pop    %r12
     8d6:	41 5d                	pop    %r13
     8d8:	41 5e                	pop    %r14
     8da:	41 5f                	pop    %r15
     8dc:	c3                   	retq   
     8dd:	3c 02                	cmp    $0x2,%al
     8df:	0f 84 cf 03 00 00    	je     cb4 <_Z5test2v+0xcb4>
     8e5:	3c 03                	cmp    $0x3,%al
     8e7:	0f 84 e5 00 00 00    	je     9d2 <_Z5test2v+0x9d2>
     8ed:	3c 01                	cmp    $0x1,%al
     8ef:	75 0b                	jne    8fc <_Z5test2v+0x8fc>
     8f1:	8b 94 24 d0 00 00 00 	mov    0xd0(%rsp),%edx
     8f8:	89 54 24 70          	mov    %edx,0x70(%rsp)
     8fc:	88 84 24 80 00 00 00 	mov    %al,0x80(%rsp)
     903:	c6 84 24 e9 00 00 00 	movb   $0x1,0xe9(%rsp)
     90a:	01 
     90b:	4c 8d 64 24 70       	lea    0x70(%rsp),%r12
     910:	e9 b3 f8 ff ff       	jmpq   1c8 <_Z5test2v+0x1c8>
     915:	bf 01 00 00 00       	mov    $0x1,%edi
     91a:	e8 00 00 00 00       	callq  91f <_Z5test2v+0x91f>
     91f:	4c 89 64 24 58       	mov    %r12,0x58(%rsp)
     924:	e9 47 fd ff ff       	jmpq   670 <_Z5test2v+0x670>
     929:	b8 ff ff ff ff       	mov    $0xffffffff,%eax
     92e:	89 c7                	mov    %eax,%edi
     930:	e8 00 00 00 00       	callq  935 <_Z5test2v+0x935>
     935:	0f 1f 00             	nopl   (%rax)
     938:	b8 01 00 00 00       	mov    $0x1,%eax
     93d:	89 c2                	mov    %eax,%edx
     93f:	86 94 24 e8 00 00 00 	xchg   %dl,0xe8(%rsp)
     946:	84 d2                	test   %dl,%dl
     948:	75 7e                	jne    9c8 <_Z5test2v+0x9c8>
     94a:	48 8b 9c 24 f0 00 00 	mov    0xf0(%rsp),%rbx
     951:	00 
     952:	48 85 db             	test   %rbx,%rbx
     955:	0f 84 50 01 00 00    	je     aab <_Z5test2v+0xaab>
     95b:	0f b6 53 18          	movzbl 0x18(%rbx),%edx
     95f:	48 8d 4b 18          	lea    0x18(%rbx),%rcx
     963:	84 d2                	test   %dl,%dl
     965:	0f 84 b4 00 00 00    	je     a1f <_Z5test2v+0xa1f>
     96b:	c6 84 24 e8 00 00 00 	movb   $0x0,0xe8(%rsp)
     972:	00 
     973:	31 db                	xor    %ebx,%ebx
     975:	eb 41                	jmp    9b8 <_Z5test2v+0x9b8>
     977:	66 0f 1f 84 00 00 00 	nopw   0x0(%rax,%rax,1)
     97e:	00 00 
     980:	48 81 fb f9 00 00 00 	cmp    $0xf9,%rbx
     987:	0f 86 8b 00 00 00    	jbe    a18 <_Z5test2v+0xa18>
     98d:	48 8d bc 24 a0 00 00 	lea    0xa0(%rsp),%rdi
     994:	00 
     995:	31 f6                	xor    %esi,%esi
     997:	48 c7 84 24 a0 00 00 	movq   $0x0,0xa0(%rsp)
     99e:	00 00 00 00 00 
     9a3:	48 c7 84 24 a8 00 00 	movq   $0xf4240,0xa8(%rsp)
     9aa:	00 40 42 0f 00 
     9af:	e8 00 00 00 00       	callq  9b4 <_Z5test2v+0x9b4>
     9b4:	48 83 c3 01          	add    $0x1,%rbx
     9b8:	0f b6 84 24 e8 00 00 	movzbl 0xe8(%rsp),%eax
     9bf:	00 
     9c0:	84 c0                	test   %al,%al
     9c2:	0f 84 70 ff ff ff    	je     938 <_Z5test2v+0x938>
     9c8:	48 83 fb 7c          	cmp    $0x7c,%rbx
     9cc:	77 b2                	ja     980 <_Z5test2v+0x980>
     9ce:	f3 90                	pause  
     9d0:	eb e2                	jmp    9b4 <_Z5test2v+0x9b4>
     9d2:	48 8b 94 24 d0 00 00 	mov    0xd0(%rsp),%rdx
     9d9:	00 
     9da:	48 c7 84 24 d0 00 00 	movq   $0x0,0xd0(%rsp)
     9e1:	00 00 00 00 00 
     9e6:	48 89 54 24 70       	mov    %rdx,0x70(%rsp)
     9eb:	e9 0c ff ff ff       	jmpq   8fc <_Z5test2v+0x8fc>
     9f0:	80 bc 24 80 00 00 00 	cmpb   $0x0,0x80(%rsp)
     9f7:	00 
     9f8:	0f 85 3a fd ff ff    	jne    738 <_Z5test2v+0x738>
     9fe:	80 bc 24 89 00 00 00 	cmpb   $0x0,0x89(%rsp)
     a05:	00 
     a06:	0f 84 39 fe ff ff    	je     845 <_Z5test2v+0x845>
     a0c:	e9 27 fd ff ff       	jmpq   738 <_Z5test2v+0x738>
     a11:	0f 1f 80 00 00 00 00 	nopl   0x0(%rax)
     a18:	e8 00 00 00 00       	callq  a1d <_Z5test2v+0xa1d>
     a1d:	eb 95                	jmp    9b4 <_Z5test2v+0x9b4>
     a1f:	86 01                	xchg   %al,(%rcx)
     a21:	84 c0                	test   %al,%al
     a23:	0f 85 42 ff ff ff    	jne    96b <_Z5test2v+0x96b>
     a29:	0f b6 84 24 e0 00 00 	movzbl 0xe0(%rsp),%eax
     a30:	00 
     a31:	c6 43 19 01          	movb   $0x1,0x19(%rbx)
     a35:	48 c7 43 20 00 00 00 	movq   $0x0,0x20(%rbx)
     a3c:	00 
     a3d:	48 c7 84 24 f0 00 00 	movq   $0x0,0xf0(%rsp)
     a44:	00 00 00 00 00 
     a49:	3c 02                	cmp    $0x2,%al
     a4b:	0f 84 82 00 00 00    	je     ad3 <_Z5test2v+0xad3>
     a51:	3c 03                	cmp    $0x3,%al
     a53:	74 76                	je     acb <_Z5test2v+0xacb>
     a55:	3c 01                	cmp    $0x1,%al
     a57:	74 7a                	je     ad3 <_Z5test2v+0xad3>
     a59:	c6 84 24 e8 00 00 00 	movb   $0x0,0xe8(%rsp)
     a60:	00 
     a61:	c6 43 18 00          	movb   $0x0,0x18(%rbx)
     a65:	e9 e9 fd ff ff       	jmpq   853 <_Z5test2v+0x853>
     a6a:	0f b6 84 24 80 00 00 	movzbl 0x80(%rsp),%eax
     a71:	00 
     a72:	3c 02                	cmp    $0x2,%al
     a74:	0f 84 a4 fd ff ff    	je     81e <_Z5test2v+0x81e>
     a7a:	3c 03                	cmp    $0x3,%al
     a7c:	0f 84 94 fd ff ff    	je     816 <_Z5test2v+0x816>
     a82:	3c 01                	cmp    $0x1,%al
     a84:	0f 85 a5 fd ff ff    	jne    82f <_Z5test2v+0x82f>
     a8a:	e9 8f fd ff ff       	jmpq   81e <_Z5test2v+0x81e>
     a8f:	c7 02 05 00 00 00    	movl   $0x5,(%rdx)
     a95:	c6 42 10 01          	movb   $0x1,0x10(%rdx)
     a99:	e9 85 f8 ff ff       	jmpq   323 <_Z5test2v+0x323>
     a9e:	4c 89 e7             	mov    %r12,%rdi
     aa1:	e8 00 00 00 00       	callq  aa6 <_Z5test2v+0xaa6>
     aa6:	e9 ec fa ff ff       	jmpq   597 <_Z5test2v+0x597>
     aab:	0f b6 84 24 e0 00 00 	movzbl 0xe0(%rsp),%eax
     ab2:	00 
     ab3:	48 c7 84 24 f0 00 00 	movq   $0x0,0xf0(%rsp)
     aba:	00 00 00 00 00 
     abf:	3c 02                	cmp    $0x2,%al
     ac1:	74 10                	je     ad3 <_Z5test2v+0xad3>
     ac3:	3c 03                	cmp    $0x3,%al
     ac5:	0f 85 85 02 00 00    	jne    d50 <_Z5test2v+0xd50>
     acb:	48 89 ef             	mov    %rbp,%rdi
     ace:	e8 00 00 00 00       	callq  ad3 <_Z5test2v+0xad3>
     ad3:	48 85 db             	test   %rbx,%rbx
     ad6:	c6 84 24 e0 00 00 00 	movb   $0x0,0xe0(%rsp)
     add:	00 
     ade:	c6 84 24 e8 00 00 00 	movb   $0x0,0xe8(%rsp)
     ae5:	00 
     ae6:	0f 85 75 ff ff ff    	jne    a61 <_Z5test2v+0xa61>
     aec:	e9 62 fd ff ff       	jmpq   853 <_Z5test2v+0x853>
     af1:	4c 89 e7             	mov    %r12,%rdi
     af4:	e8 00 00 00 00       	callq  af9 <_Z5test2v+0xaf9>
     af9:	e9 47 fd ff ff       	jmpq   845 <_Z5test2v+0x845>
     afe:	48 89 ef             	mov    %rbp,%rdi
     b01:	e8 00 00 00 00       	callq  b06 <_Z5test2v+0xb06>
     b06:	e9 a6 fd ff ff       	jmpq   8b1 <_Z5test2v+0x8b1>
     b0b:	84 c0                	test   %al,%al
     b0d:	0f 85 82 fb ff ff    	jne    695 <_Z5test2v+0x695>
     b13:	bf 20 00 00 00       	mov    $0x20,%edi
     b18:	e8 00 00 00 00       	callq  b1d <_Z5test2v+0xb1d>
     b1d:	49 89 c5             	mov    %rax,%r13
     b20:	e8 00 00 00 00       	callq  b25 <_Z5test2v+0xb25>
     b25:	be 03 00 00 00       	mov    $0x3,%esi
     b2a:	48 89 c2             	mov    %rax,%rdx
     b2d:	4c 89 ef             	mov    %r13,%rdi
     b30:	e8 00 00 00 00       	callq  b35 <_Z5test2v+0xb35>
     b35:	ba 00 00 00 00       	mov    $0x0,%edx
     b3a:	be 00 00 00 00       	mov    $0x0,%esi
     b3f:	4c 89 ef             	mov    %r13,%rdi
     b42:	e8 00 00 00 00       	callq  b47 <_Z5test2v+0xb47>
     b47:	66 0f 1f 84 00 00 00 	nopw   0x0(%rax,%rax,1)
     b4e:	00 00 
     b50:	48 8b 5c 24 78       	mov    0x78(%rsp),%rbx
     b55:	e8 00 00 00 00       	callq  b5a <_Z5test2v+0xb5a>
     b5a:	48 39 c3             	cmp    %rax,%rbx
     b5d:	0f 84 60 02 00 00    	je     dc3 <_Z5test2v+0xdc3>
     b63:	4c 8b 7c 24 78       	mov    0x78(%rsp),%r15
     b68:	44 8b 74 24 70       	mov    0x70(%rsp),%r14d
     b6d:	48 8d 5c 24 20       	lea    0x20(%rsp),%rbx
     b72:	49 8b 07             	mov    (%r15),%rax
     b75:	48 8b 40 18          	mov    0x18(%rax),%rax
     b79:	48 3d 00 00 00 00    	cmp    $0x0,%rax
     b7f:	0f 85 f7 01 00 00    	jne    d7c <_Z5test2v+0xd7c>
     b85:	41 83 fe 02          	cmp    $0x2,%r14d
     b89:	0f 84 d6 01 00 00    	je     d65 <_Z5test2v+0xd65>
     b8f:	41 83 fe 03          	cmp    $0x3,%r14d
     b93:	0f 84 96 03 00 00    	je     f2f <_Z5test2v+0xf2f>
     b99:	41 83 fe 01          	cmp    $0x1,%r14d
     b9d:	0f 84 75 03 00 00    	je     f18 <_Z5test2v+0xf18>
     ba3:	48 8d 54 24 0f       	lea    0xf(%rsp),%rdx
     ba8:	be 00 00 00 00       	mov    $0x0,%esi
     bad:	48 89 df             	mov    %rbx,%rdi
     bb0:	e8 00 00 00 00       	callq  bb5 <_Z5test2v+0xbb5>
     bb5:	4c 8d ac 24 a0 00 00 	lea    0xa0(%rsp),%r13
     bbc:	00 
     bbd:	48 89 de             	mov    %rbx,%rsi
     bc0:	4c 89 ef             	mov    %r13,%rdi
     bc3:	e8 00 00 00 00       	callq  bc8 <_Z5test2v+0xbc8>
     bc8:	48 8b 54 24 20       	mov    0x20(%rsp),%rdx
     bcd:	48 8d 7a e8          	lea    -0x18(%rdx),%rdi
     bd1:	48 81 ff 00 00 00 00 	cmp    $0x0,%rdi
     bd8:	0f 85 68 03 00 00    	jne    f46 <_Z5test2v+0xf46>
     bde:	0f b6 84 24 80 00 00 	movzbl 0x80(%rsp),%eax
     be5:	00 
     be6:	48 c7 84 24 a0 00 00 	movq   $0x0,0xa0(%rsp)
     bed:	00 00 00 00 00 
     bf2:	44 89 b4 24 b0 00 00 	mov    %r14d,0xb0(%rsp)
     bf9:	00 
     bfa:	4c 89 bc 24 b8 00 00 	mov    %r15,0xb8(%rsp)
     c01:	00 
     c02:	3c 02                	cmp    $0x2,%al
     c04:	0f 84 8a 01 00 00    	je     d94 <_Z5test2v+0xd94>
     c0a:	3c 03                	cmp    $0x3,%al
     c0c:	0f 84 7a 01 00 00    	je     d8c <_Z5test2v+0xd8c>
     c12:	3c 01                	cmp    $0x1,%al
     c14:	0f 84 7a 01 00 00    	je     d94 <_Z5test2v+0xd94>
     c1a:	bf 20 00 00 00       	mov    $0x20,%edi
     c1f:	e8 00 00 00 00       	callq  c24 <_Z5test2v+0xc24>
     c24:	49 8d 75 08          	lea    0x8(%r13),%rsi
     c28:	48 8d 78 08          	lea    0x8(%rax),%rdi
     c2c:	48 c7 00 00 00 00 00 	movq   $0x0,(%rax)
     c33:	49 89 c6             	mov    %rax,%r14
     c36:	e8 00 00 00 00       	callq  c3b <_Z5test2v+0xc3b>
     c3b:	48 8b 94 24 b8 00 00 	mov    0xb8(%rsp),%rdx
     c42:	00 
     c43:	48 8b 84 24 b0 00 00 	mov    0xb0(%rsp),%rax
     c4a:	00 
     c4b:	be 00 00 00 00       	mov    $0x0,%esi
     c50:	49 c7 06 00 00 00 00 	movq   $0x0,(%r14)
     c57:	4c 89 f7             	mov    %r14,%rdi
     c5a:	49 89 56 18          	mov    %rdx,0x18(%r14)
     c5e:	49 89 46 10          	mov    %rax,0x10(%r14)
     c62:	ba 00 00 00 00       	mov    $0x0,%edx
     c67:	e8 00 00 00 00       	callq  c6c <_Z5test2v+0xc6c>
     c6c:	3c 01                	cmp    $0x1,%al
     c6e:	0f 84 aa fb ff ff    	je     81e <_Z5test2v+0x81e>
     c74:	e9 b2 fb ff ff       	jmpq   82b <_Z5test2v+0x82b>
     c79:	8b 43 08             	mov    0x8(%rbx),%eax
     c7c:	8d 50 ff             	lea    -0x1(%rax),%edx
     c7f:	83 f8 01             	cmp    $0x1,%eax
     c82:	89 53 08             	mov    %edx,0x8(%rbx)
     c85:	0f 85 f8 fb ff ff    	jne    883 <_Z5test2v+0x883>
     c8b:	48 8b 03             	mov    (%rbx),%rax
     c8e:	48 89 df             	mov    %rbx,%rdi
     c91:	ff 50 10             	callq  *0x10(%rax)
     c94:	8b 43 0c             	mov    0xc(%rbx),%eax
     c97:	8d 50 ff             	lea    -0x1(%rax),%edx
     c9a:	89 53 0c             	mov    %edx,0xc(%rbx)
     c9d:	83 f8 01             	cmp    $0x1,%eax
     ca0:	0f 85 dd fb ff ff    	jne    883 <_Z5test2v+0x883>
     ca6:	48 8b 03             	mov    (%rbx),%rax
     ca9:	48 89 df             	mov    %rbx,%rdi
     cac:	ff 50 18             	callq  *0x18(%rax)
     caf:	e9 cf fb ff ff       	jmpq   883 <_Z5test2v+0x883>
     cb4:	48 8b 8c 24 d0 00 00 	mov    0xd0(%rsp),%rcx
     cbb:	00 
     cbc:	48 8b 9c 24 d8 00 00 	mov    0xd8(%rsp),%rbx
     cc3:	00 
     cc4:	48 89 4c 24 70       	mov    %rcx,0x70(%rsp)
     cc9:	48 89 5c 24 78       	mov    %rbx,0x78(%rsp)
     cce:	e9 29 fc ff ff       	jmpq   8fc <_Z5test2v+0x8fc>
     cd3:	48 89 c3             	mov    %rax,%rbx
     cd6:	48 8b 84 24 20 01 00 	mov    0x120(%rsp),%rax
     cdd:	00 
     cde:	48 85 c0             	test   %rax,%rax
     ce1:	74 0d                	je     cf0 <_Z5test2v+0xcf0>
     ce3:	ba 03 00 00 00       	mov    $0x3,%edx
     ce8:	4c 89 ee             	mov    %r13,%rsi
     ceb:	4c 89 ef             	mov    %r13,%rdi
     cee:	ff d0                	callq  *%rax
     cf0:	48 8d 7c 24 50       	lea    0x50(%rsp),%rdi
     cf5:	e8 00 00 00 00       	callq  cfa <_Z5test2v+0xcfa>
     cfa:	48 8d 7c 24 40       	lea    0x40(%rsp),%rdi
     cff:	e8 00 00 00 00       	callq  d04 <_Z5test2v+0xd04>
     d04:	4c 89 e7             	mov    %r12,%rdi
     d07:	e8 00 00 00 00       	callq  d0c <_Z5test2v+0xd0c>
     d0c:	48 89 ef             	mov    %rbp,%rdi
     d0f:	e8 00 00 00 00       	callq  d14 <_Z5test2v+0xd14>
     d14:	48 89 df             	mov    %rbx,%rdi
     d17:	e8 00 00 00 00       	callq  d1c <_Z5test2v+0xd1c>
     d1c:	48 89 c3             	mov    %rax,%rbx
     d1f:	eb d9                	jmp    cfa <_Z5test2v+0xcfa>
     d21:	4c 89 e7             	mov    %r12,%rdi
     d24:	e8 00 00 00 00       	callq  d29 <_Z5test2v+0xd29>
     d29:	c6 84 24 80 00 00 00 	movb   $0x0,0x80(%rsp)
     d30:	00 
     d31:	e9 9b f9 ff ff       	jmpq   6d1 <_Z5test2v+0x6d1>
     d36:	48 89 c3             	mov    %rax,%rbx
     d39:	4c 89 ef             	mov    %r13,%rdi
     d3c:	e8 00 00 00 00       	callq  d41 <_Z5test2v+0xd41>
     d41:	48 8d 7c 24 50       	lea    0x50(%rsp),%rdi
     d46:	e8 00 00 00 00       	callq  d4b <_Z5test2v+0xd4b>
     d4b:	eb b7                	jmp    d04 <_Z5test2v+0xd04>
     d4d:	0f 1f 00             	nopl   (%rax)
     d50:	3c 01                	cmp    $0x1,%al
     d52:	0f 84 7b fd ff ff    	je     ad3 <_Z5test2v+0xad3>
     d58:	c6 84 24 e8 00 00 00 	movb   $0x0,0xe8(%rsp)
     d5f:	00 
     d60:	e9 ee fa ff ff       	jmpq   853 <_Z5test2v+0x853>
     d65:	48 8d 54 24 0d       	lea    0xd(%rsp),%rdx
     d6a:	be 00 00 00 00       	mov    $0x0,%esi
     d6f:	48 89 df             	mov    %rbx,%rdi
     d72:	e8 00 00 00 00       	callq  d77 <_Z5test2v+0xd77>
     d77:	e9 39 fe ff ff       	jmpq   bb5 <_Z5test2v+0xbb5>
     d7c:	44 89 f2             	mov    %r14d,%edx
     d7f:	4c 89 fe             	mov    %r15,%rsi
     d82:	48 89 df             	mov    %rbx,%rdi
     d85:	ff d0                	callq  *%rax
     d87:	e9 29 fe ff ff       	jmpq   bb5 <_Z5test2v+0xbb5>
     d8c:	4c 89 e7             	mov    %r12,%rdi
     d8f:	e8 00 00 00 00       	callq  d94 <_Z5test2v+0xd94>
     d94:	c6 84 24 80 00 00 00 	movb   $0x0,0x80(%rsp)
     d9b:	00 
     d9c:	e9 79 fe ff ff       	jmpq   c1a <_Z5test2v+0xc1a>
     da1:	48 8b 03             	mov    (%rbx),%rax
     da4:	48 89 df             	mov    %rbx,%rdi
     da7:	ff 50 10             	callq  *0x10(%rax)
     daa:	b8 ff ff ff ff       	mov    $0xffffffff,%eax
     daf:	f0 0f c1 43 0c       	lock xadd %eax,0xc(%rbx)
     db4:	e9 e4 fe ff ff       	jmpq   c9d <_Z5test2v+0xc9d>
     db9:	e8 00 00 00 00       	callq  dbe <_Z5test2v+0xdbe>
     dbe:	e9 37 f7 ff ff       	jmpq   4fa <_Z5test2v+0x4fa>
     dc3:	4c 8b 7c 24 78       	mov    0x78(%rsp),%r15
     dc8:	8b 5c 24 70          	mov    0x70(%rsp),%ebx
     dcc:	4c 8d 6c 24 10       	lea    0x10(%rsp),%r13
     dd1:	49 8b 07             	mov    (%r15),%rax
     dd4:	48 8b 40 18          	mov    0x18(%rax),%rax
     dd8:	48 3d 00 00 00 00    	cmp    $0x0,%rax
     dde:	0f 85 44 02 00 00    	jne    1028 <_Z5test2v+0x1028>
     de4:	83 fb 02             	cmp    $0x2,%ebx
     de7:	0f 84 24 02 00 00    	je     1011 <_Z5test2v+0x1011>
     ded:	83 fb 03             	cmp    $0x3,%ebx
     df0:	0f 84 04 02 00 00    	je     ffa <_Z5test2v+0xffa>
     df6:	83 fb 01             	cmp    $0x1,%ebx
     df9:	0f 84 e4 01 00 00    	je     fe3 <_Z5test2v+0xfe3>
     dff:	48 8d 54 24 0b       	lea    0xb(%rsp),%rdx
     e04:	be 00 00 00 00       	mov    $0x0,%esi
     e09:	4c 89 ef             	mov    %r13,%rdi
     e0c:	e8 00 00 00 00       	callq  e11 <_Z5test2v+0xe11>
     e11:	b9 13 00 00 00       	mov    $0x13,%ecx
     e16:	ba 00 00 00 00       	mov    $0x0,%edx
     e1b:	31 f6                	xor    %esi,%esi
     e1d:	4c 89 ef             	mov    %r13,%rdi
     e20:	e8 00 00 00 00       	callq  e25 <_Z5test2v+0xe25>
     e25:	48 8b 10             	mov    (%rax),%rdx
     e28:	4c 8d 74 24 40       	lea    0x40(%rsp),%r14
     e2d:	4c 8d ac 24 a0 00 00 	lea    0xa0(%rsp),%r13
     e34:	00 
     e35:	4c 89 f6             	mov    %r14,%rsi
     e38:	4c 89 ef             	mov    %r13,%rdi
     e3b:	48 89 54 24 40       	mov    %rdx,0x40(%rsp)
     e40:	48 c7 00 00 00 00 00 	movq   $0x0,(%rax)
     e47:	e8 00 00 00 00       	callq  e4c <_Z5test2v+0xe4c>
     e4c:	48 8b 54 24 40       	mov    0x40(%rsp),%rdx
     e51:	48 8d 7a e8          	lea    -0x18(%rdx),%rdi
     e55:	48 81 ff 00 00 00 00 	cmp    $0x0,%rdi
     e5c:	0f 85 cd 02 00 00    	jne    112f <_Z5test2v+0x112f>
     e62:	48 8b 54 24 10       	mov    0x10(%rsp),%rdx
     e67:	48 8d 7a e8          	lea    -0x18(%rdx),%rdi
     e6b:	48 81 ff 00 00 00 00 	cmp    $0x0,%rdi
     e72:	0f 85 8b 02 00 00    	jne    1103 <_Z5test2v+0x1103>
     e78:	0f b6 84 24 80 00 00 	movzbl 0x80(%rsp),%eax
     e7f:	00 
     e80:	48 c7 84 24 a0 00 00 	movq   $0x0,0xa0(%rsp)
     e87:	00 00 00 00 00 
     e8c:	89 9c 24 b0 00 00 00 	mov    %ebx,0xb0(%rsp)
     e93:	4c 89 bc 24 b8 00 00 	mov    %r15,0xb8(%rsp)
     e9a:	00 
     e9b:	3c 02                	cmp    $0x2,%al
     e9d:	0f 84 53 02 00 00    	je     10f6 <_Z5test2v+0x10f6>
     ea3:	3c 03                	cmp    $0x3,%al
     ea5:	0f 84 43 02 00 00    	je     10ee <_Z5test2v+0x10ee>
     eab:	3c 01                	cmp    $0x1,%al
     ead:	0f 84 43 02 00 00    	je     10f6 <_Z5test2v+0x10f6>
     eb3:	bf 20 00 00 00       	mov    $0x20,%edi
     eb8:	e8 00 00 00 00       	callq  ebd <_Z5test2v+0xebd>
     ebd:	49 8d 75 08          	lea    0x8(%r13),%rsi
     ec1:	48 8d 78 08          	lea    0x8(%rax),%rdi
     ec5:	48 c7 00 00 00 00 00 	movq   $0x0,(%rax)
     ecc:	49 89 c6             	mov    %rax,%r14
     ecf:	e8 00 00 00 00       	callq  ed4 <_Z5test2v+0xed4>
     ed4:	48 8b 94 24 b8 00 00 	mov    0xb8(%rsp),%rdx
     edb:	00 
     edc:	48 8b 84 24 b0 00 00 	mov    0xb0(%rsp),%rax
     ee3:	00 
     ee4:	be 00 00 00 00       	mov    $0x0,%esi
     ee9:	49 c7 06 00 00 00 00 	movq   $0x0,(%r14)
     ef0:	4c 89 f7             	mov    %r14,%rdi
     ef3:	49 89 56 18          	mov    %rdx,0x18(%r14)
     ef7:	49 89 46 10          	mov    %rax,0x10(%r14)
     efb:	ba 00 00 00 00       	mov    $0x0,%edx
     f00:	e8 00 00 00 00       	callq  f05 <_Z5test2v+0xf05>
     f05:	48 89 c3             	mov    %rax,%rbx
     f08:	4c 89 ef             	mov    %r13,%rdi
     f0b:	e8 00 00 00 00       	callq  f10 <_Z5test2v+0xf10>
     f10:	e9 2c fe ff ff       	jmpq   d41 <_Z5test2v+0xd41>
     f15:	0f 1f 00             	nopl   (%rax)
     f18:	48 8d 54 24 0c       	lea    0xc(%rsp),%rdx
     f1d:	be 00 00 00 00       	mov    $0x0,%esi
     f22:	48 89 df             	mov    %rbx,%rdi
     f25:	e8 00 00 00 00       	callq  f2a <_Z5test2v+0xf2a>
     f2a:	e9 86 fc ff ff       	jmpq   bb5 <_Z5test2v+0xbb5>
     f2f:	48 8d 54 24 0e       	lea    0xe(%rsp),%rdx
     f34:	be 00 00 00 00       	mov    $0x0,%esi
     f39:	48 89 df             	mov    %rbx,%rdi
     f3c:	e8 00 00 00 00       	callq  f41 <_Z5test2v+0xf41>
     f41:	e9 6f fc ff ff       	jmpq   bb5 <_Z5test2v+0xbb5>
     f46:	b8 00 00 00 00       	mov    $0x0,%eax
     f4b:	48 8d 4f 10          	lea    0x10(%rdi),%rcx
     f4f:	48 85 c0             	test   %rax,%rax
     f52:	74 48                	je     f9c <_Z5test2v+0xf9c>
     f54:	b8 ff ff ff ff       	mov    $0xffffffff,%eax
     f59:	f0 0f c1 01          	lock xadd %eax,(%rcx)
     f5d:	85 c0                	test   %eax,%eax
     f5f:	0f 8f 79 fc ff ff    	jg     bde <_Z5test2v+0xbde>
     f65:	48 8d 74 24 40       	lea    0x40(%rsp),%rsi
     f6a:	e8 00 00 00 00       	callq  f6f <_Z5test2v+0xf6f>
     f6f:	e9 6a fc ff ff       	jmpq   bde <_Z5test2v+0xbde>
     f74:	48 89 c3             	mov    %rax,%rbx
     f77:	48 8b 44 24 20       	mov    0x20(%rsp),%rax
     f7c:	48 8d 78 e8          	lea    -0x18(%rax),%rdi
     f80:	48 81 ff 00 00 00 00 	cmp    $0x0,%rdi
     f87:	0f 84 b4 fd ff ff    	je     d41 <_Z5test2v+0xd41>
     f8d:	48 8d 74 24 40       	lea    0x40(%rsp),%rsi
     f92:	e8 00 00 00 00       	callq  f97 <_Z5test2v+0xf97>
     f97:	e9 a5 fd ff ff       	jmpq   d41 <_Z5test2v+0xd41>
     f9c:	8b 42 f8             	mov    -0x8(%rdx),%eax
     f9f:	8d 48 ff             	lea    -0x1(%rax),%ecx
     fa2:	89 4a f8             	mov    %ecx,-0x8(%rdx)
     fa5:	eb b6                	jmp    f5d <_Z5test2v+0xf5d>
     fa7:	48 89 c3             	mov    %rax,%rbx
     faa:	48 8b 44 24 40       	mov    0x40(%rsp),%rax
     faf:	48 8d 78 e8          	lea    -0x18(%rax),%rdi
     fb3:	48 81 ff 00 00 00 00 	cmp    $0x0,%rdi
     fba:	74 0a                	je     fc6 <_Z5test2v+0xfc6>
     fbc:	48 8d 74 24 30       	lea    0x30(%rsp),%rsi
     fc1:	e8 00 00 00 00       	callq  fc6 <_Z5test2v+0xfc6>
     fc6:	48 8b 44 24 10       	mov    0x10(%rsp),%rax
     fcb:	48 8d 78 e8          	lea    -0x18(%rax),%rdi
     fcf:	48 81 ff 00 00 00 00 	cmp    $0x0,%rdi
     fd6:	0f 84 65 fd ff ff    	je     d41 <_Z5test2v+0xd41>
     fdc:	eb af                	jmp    f8d <_Z5test2v+0xf8d>
     fde:	48 89 c3             	mov    %rax,%rbx
     fe1:	eb e3                	jmp    fc6 <_Z5test2v+0xfc6>
     fe3:	48 8d 54 24 08       	lea    0x8(%rsp),%rdx
     fe8:	be 00 00 00 00       	mov    $0x0,%esi
     fed:	4c 89 ef             	mov    %r13,%rdi
     ff0:	e8 00 00 00 00       	callq  ff5 <_Z5test2v+0xff5>
     ff5:	e9 17 fe ff ff       	jmpq   e11 <_Z5test2v+0xe11>
     ffa:	48 8d 54 24 0a       	lea    0xa(%rsp),%rdx
     fff:	be 00 00 00 00       	mov    $0x0,%esi
    1004:	4c 89 ef             	mov    %r13,%rdi
    1007:	e8 00 00 00 00       	callq  100c <_Z5test2v+0x100c>
    100c:	e9 00 fe ff ff       	jmpq   e11 <_Z5test2v+0xe11>
    1011:	48 8d 54 24 09       	lea    0x9(%rsp),%rdx
    1016:	be 00 00 00 00       	mov    $0x0,%esi
    101b:	4c 89 ef             	mov    %r13,%rdi
    101e:	e8 00 00 00 00       	callq  1023 <_Z5test2v+0x1023>
    1023:	e9 e9 fd ff ff       	jmpq   e11 <_Z5test2v+0xe11>
    1028:	89 da                	mov    %ebx,%edx
    102a:	4c 89 fe             	mov    %r15,%rsi
    102d:	4c 89 ef             	mov    %r13,%rdi
    1030:	ff d0                	callq  *%rax
    1032:	e9 da fd ff ff       	jmpq   e11 <_Z5test2v+0xe11>
    1037:	48 89 c3             	mov    %rax,%rbx
    103a:	48 8d 7c 24 30       	lea    0x30(%rsp),%rdi
    103f:	e8 00 00 00 00       	callq  1044 <_Z5test2v+0x1044>
    1044:	e9 c3 fc ff ff       	jmpq   d0c <_Z5test2v+0xd0c>
    1049:	4c 89 f7             	mov    %r14,%rdi
    104c:	48 89 c3             	mov    %rax,%rbx
    104f:	e8 00 00 00 00       	callq  1054 <_Z5test2v+0x1054>
    1054:	4c 89 f7             	mov    %r14,%rdi
    1057:	e8 00 00 00 00       	callq  105c <_Z5test2v+0x105c>
    105c:	e9 a7 fe ff ff       	jmpq   f08 <_Z5test2v+0xf08>
    1061:	4c 89 e7             	mov    %r12,%rdi
    1064:	48 89 c3             	mov    %rax,%rbx
    1067:	e8 00 00 00 00       	callq  106c <_Z5test2v+0x106c>
    106c:	eb cc                	jmp    103a <_Z5test2v+0x103a>
    106e:	e8 00 00 00 00       	callq  1073 <_Z5test2v+0x1073>
    1073:	48 8d bc 24 a0 00 00 	lea    0xa0(%rsp),%rdi
    107a:	00 
    107b:	48 89 c3             	mov    %rax,%rbx
    107e:	e8 00 00 00 00       	callq  1083 <_Z5test2v+0x1083>
    1083:	4c 89 f7             	mov    %r14,%rdi
    1086:	e8 00 00 00 00       	callq  108b <_Z5test2v+0x108b>
    108b:	e9 b1 fc ff ff       	jmpq   d41 <_Z5test2v+0xd41>
    1090:	48 89 c3             	mov    %rax,%rbx
    1093:	e9 58 fc ff ff       	jmpq   cf0 <_Z5test2v+0xcf0>
    1098:	bf 20 00 00 00       	mov    $0x20,%edi
    109d:	e8 00 00 00 00       	callq  10a2 <_Z5test2v+0x10a2>
    10a2:	49 89 c5             	mov    %rax,%r13
    10a5:	e8 00 00 00 00       	callq  10aa <_Z5test2v+0x10aa>
    10aa:	be 04 00 00 00       	mov    $0x4,%esi
    10af:	48 89 c2             	mov    %rax,%rdx
    10b2:	4c 89 ef             	mov    %r13,%rdi
    10b5:	e8 00 00 00 00       	callq  10ba <_Z5test2v+0x10ba>
    10ba:	ba 00 00 00 00       	mov    $0x0,%edx
    10bf:	be 00 00 00 00       	mov    $0x0,%esi
    10c4:	4c 89 ef             	mov    %r13,%rdi
    10c7:	e8 00 00 00 00       	callq  10cc <_Z5test2v+0x10cc>
    10cc:	48 89 c3             	mov    %rax,%rbx
    10cf:	e9 30 fc ff ff       	jmpq   d04 <_Z5test2v+0xd04>
    10d4:	bf 01 00 00 00       	mov    $0x1,%edi
    10d9:	e8 00 00 00 00       	callq  10de <_Z5test2v+0x10de>
    10de:	4c 89 ef             	mov    %r13,%rdi
    10e1:	48 89 c3             	mov    %rax,%rbx
    10e4:	e8 00 00 00 00       	callq  10e9 <_Z5test2v+0x10e9>
    10e9:	e9 53 fc ff ff       	jmpq   d41 <_Z5test2v+0xd41>
    10ee:	4c 89 e7             	mov    %r12,%rdi
    10f1:	e8 00 00 00 00       	callq  10f6 <_Z5test2v+0x10f6>
    10f6:	c6 84 24 80 00 00 00 	movb   $0x0,0x80(%rsp)
    10fd:	00 
    10fe:	e9 b0 fd ff ff       	jmpq   eb3 <_Z5test2v+0xeb3>
    1103:	b8 00 00 00 00       	mov    $0x0,%eax
    1108:	48 8d 4f 10          	lea    0x10(%rdi),%rcx
    110c:	48 85 c0             	test   %rax,%rax
    110f:	74 4c                	je     115d <_Z5test2v+0x115d>
    1111:	b8 ff ff ff ff       	mov    $0xffffffff,%eax
    1116:	f0 0f c1 01          	lock xadd %eax,(%rcx)
    111a:	85 c0                	test   %eax,%eax
    111c:	0f 8f 56 fd ff ff    	jg     e78 <_Z5test2v+0xe78>
    1122:	4c 89 f6             	mov    %r14,%rsi
    1125:	e8 00 00 00 00       	callq  112a <_Z5test2v+0x112a>
    112a:	e9 49 fd ff ff       	jmpq   e78 <_Z5test2v+0xe78>
    112f:	b8 00 00 00 00       	mov    $0x0,%eax
    1134:	48 8d 4f 10          	lea    0x10(%rdi),%rcx
    1138:	48 85 c0             	test   %rax,%rax
    113b:	74 2b                	je     1168 <_Z5test2v+0x1168>
    113d:	b8 ff ff ff ff       	mov    $0xffffffff,%eax
    1142:	f0 0f c1 01          	lock xadd %eax,(%rcx)
    1146:	85 c0                	test   %eax,%eax
    1148:	0f 8f 14 fd ff ff    	jg     e62 <_Z5test2v+0xe62>
    114e:	48 8d 74 24 30       	lea    0x30(%rsp),%rsi
    1153:	e8 00 00 00 00       	callq  1158 <_Z5test2v+0x1158>
    1158:	e9 05 fd ff ff       	jmpq   e62 <_Z5test2v+0xe62>
    115d:	8b 42 f8             	mov    -0x8(%rdx),%eax
    1160:	8d 48 ff             	lea    -0x1(%rax),%ecx
    1163:	89 4a f8             	mov    %ecx,-0x8(%rdx)
    1166:	eb b2                	jmp    111a <_Z5test2v+0x111a>
    1168:	8b 42 f8             	mov    -0x8(%rdx),%eax
    116b:	8d 48 ff             	lea    -0x1(%rax),%ecx
    116e:	89 4a f8             	mov    %ecx,-0x8(%rdx)
    1171:	eb d3                	jmp    1146 <_Z5test2v+0x1146>
    1173:	bf 01 00 00 00       	mov    $0x1,%edi
    1178:	e8 00 00 00 00       	callq  117d <_Z5test2v+0x117d>
    117d:	48 89 c3             	mov    %rax,%rbx
    1180:	e9 bc fb ff ff       	jmpq   d41 <_Z5test2v+0xd41>
    1185:	4c 89 f7             	mov    %r14,%rdi
    1188:	48 89 c3             	mov    %rax,%rbx
    118b:	e8 00 00 00 00       	callq  1190 <_Z5test2v+0x1190>
    1190:	4c 89 f7             	mov    %r14,%rdi
    1193:	e8 00 00 00 00       	callq  1198 <_Z5test2v+0x1198>
    1198:	e9 9c fb ff ff       	jmpq   d39 <_Z5test2v+0xd39>
    119d:	e9 3c ff ff ff       	jmpq   10de <_Z5test2v+0x10de>
