   0:	41 55                	push   %r13
   2:	41 54                	push   %r12
   4:	55                   	push   %rbp
   5:	53                   	push   %rbx
   6:	48 89 fb             	mov    %rdi,%rbx
   9:	48 83 ec 78          	sub    $0x78,%rsp
   d:	48 8d 7c 24 30       	lea    0x30(%rsp),%rdi
  12:	e8 00 00 00 00       	callq  17 <_Z5test1v+0x17>
  17:	0f b6 44 24 40       	movzbl 0x40(%rsp),%eax
  1c:	84 c0                	test   %al,%al
  1e:	74 38                	je     58 <_Z5test1v+0x58>
  20:	3c 02                	cmp    $0x2,%al
  22:	0f 84 20 01 00 00    	je     148 <_Z5test1v+0x148>
  28:	3c 03                	cmp    $0x3,%al
  2a:	0f 84 a8 00 00 00    	je     d8 <_Z5test1v+0xd8>
  30:	48 89 df             	mov    %rbx,%rdi
  33:	e8 00 00 00 00       	callq  38 <_Z5test1v+0x38>
  38:	80 7c 24 40 03       	cmpb   $0x3,0x40(%rsp)
  3d:	0f 84 ad 00 00 00    	je     f0 <_Z5test1v+0xf0>
  43:	48 83 c4 78          	add    $0x78,%rsp
  47:	48 89 d8             	mov    %rbx,%rax
  4a:	5b                   	pop    %rbx
  4b:	5d                   	pop    %rbp
  4c:	41 5c                	pop    %r12
  4e:	41 5d                	pop    %r13
  50:	c3                   	retq   
  51:	0f 1f 80 00 00 00 00 	nopl   0x0(%rax)
  58:	bf 20 00 00 00       	mov    $0x20,%edi
  5d:	e8 00 00 00 00       	callq  62 <_Z5test1v+0x62>
  62:	80 3d 00 00 00 00 00 	cmpb   $0x0,0x0(%rip)        # 69 <_Z5test1v+0x69>
  69:	48 89 c3             	mov    %rax,%rbx
  6c:	0f 84 9e 00 00 00    	je     110 <_Z5test1v+0x110>
  72:	48 8d 54 24 0c       	lea    0xc(%rsp),%rdx
  77:	48 8d 7c 24 10       	lea    0x10(%rsp),%rdi
  7c:	be 00 00 00 00       	mov    $0x0,%esi
  81:	e8 00 00 00 00       	callq  86 <_Z5test1v+0x86>
  86:	48 8d 74 24 10       	lea    0x10(%rsp),%rsi
  8b:	48 89 df             	mov    %rbx,%rdi
  8e:	e8 00 00 00 00       	callq  93 <_Z5test1v+0x93>
  93:	48 8b 44 24 10       	mov    0x10(%rsp),%rax
  98:	48 8d 78 e8          	lea    -0x18(%rax),%rdi
  9c:	48 81 ff 00 00 00 00 	cmp    $0x0,%rdi
  a3:	0f 85 c7 01 00 00    	jne    270 <_Z5test1v+0x270>
  a9:	48 c7 03 00 00 00 00 	movq   $0x0,(%rbx)
  b0:	c7 43 10 02 00 00 00 	movl   $0x2,0x10(%rbx)
  b7:	ba 00 00 00 00       	mov    $0x0,%edx
  bc:	48 c7 43 18 00 00 00 	movq   $0x0,0x18(%rbx)
  c3:	00 
  c4:	be 00 00 00 00       	mov    $0x0,%esi
  c9:	48 89 df             	mov    %rbx,%rdi
  cc:	e8 00 00 00 00       	callq  d1 <_Z5test1v+0xd1>
  d1:	0f 1f 80 00 00 00 00 	nopl   0x0(%rax)
  d8:	48 8d 74 24 30       	lea    0x30(%rsp),%rsi
  dd:	48 89 df             	mov    %rbx,%rdi
  e0:	e8 00 00 00 00       	callq  e5 <_Z5test1v+0xe5>
  e5:	e9 4e ff ff ff       	jmpq   38 <_Z5test1v+0x38>
  ea:	66 0f 1f 44 00 00    	nopw   0x0(%rax,%rax,1)
  f0:	48 8d 7c 24 30       	lea    0x30(%rsp),%rdi
  f5:	e8 00 00 00 00       	callq  fa <_Z5test1v+0xfa>
  fa:	48 83 c4 78          	add    $0x78,%rsp
  fe:	48 89 d8             	mov    %rbx,%rax
 101:	5b                   	pop    %rbx
 102:	5d                   	pop    %rbp
 103:	41 5c                	pop    %r12
 105:	41 5d                	pop    %r13
 107:	c3                   	retq   
 108:	0f 1f 84 00 00 00 00 	nopl   0x0(%rax,%rax,1)
 10f:	00 
 110:	bf 00 00 00 00       	mov    $0x0,%edi
 115:	e8 00 00 00 00       	callq  11a <_Z5test1v+0x11a>
 11a:	85 c0                	test   %eax,%eax
 11c:	0f 84 50 ff ff ff    	je     72 <_Z5test1v+0x72>
 122:	bf 00 00 00 00       	mov    $0x0,%edi
 127:	e8 00 00 00 00       	callq  12c <_Z5test1v+0x12c>
 12c:	ba 00 00 00 00       	mov    $0x0,%edx
 131:	be 00 00 00 00       	mov    $0x0,%esi
 136:	bf 00 00 00 00       	mov    $0x0,%edi
 13b:	e8 00 00 00 00       	callq  140 <_Z5test1v+0x140>
 140:	e9 2d ff ff ff       	jmpq   72 <_Z5test1v+0x72>
 145:	0f 1f 00             	nopl   (%rax)
 148:	4c 8b 64 24 38       	mov    0x38(%rsp),%r12
 14d:	8b 6c 24 30          	mov    0x30(%rsp),%ebp
 151:	49 8b 04 24          	mov    (%r12),%rax
 155:	48 8b 40 18          	mov    0x18(%rax),%rax
 159:	48 3d 00 00 00 00    	cmp    $0x0,%rax
 15f:	0f 85 f3 00 00 00    	jne    258 <_Z5test1v+0x258>
 165:	83 fd 01             	cmp    $0x1,%ebp
 168:	0f 84 32 01 00 00    	je     2a0 <_Z5test1v+0x2a0>
 16e:	83 fd 02             	cmp    $0x2,%ebp
 171:	0f 85 49 01 00 00    	jne    2c0 <_Z5test1v+0x2c0>
 177:	4c 8d 6c 24 20       	lea    0x20(%rsp),%r13
 17c:	48 8d 54 24 0e       	lea    0xe(%rsp),%rdx
 181:	be 00 00 00 00       	mov    $0x0,%esi
 186:	4c 89 ef             	mov    %r13,%rdi
 189:	e8 00 00 00 00       	callq  18e <_Z5test1v+0x18e>
 18e:	48 8d 7c 24 50       	lea    0x50(%rsp),%rdi
 193:	4c 89 ee             	mov    %r13,%rsi
 196:	e8 00 00 00 00       	callq  19b <_Z5test1v+0x19b>
 19b:	48 8b 44 24 20       	mov    0x20(%rsp),%rax
 1a0:	48 8d 78 e8          	lea    -0x18(%rax),%rdi
 1a4:	48 81 ff 00 00 00 00 	cmp    $0x0,%rdi
 1ab:	0f 85 38 01 00 00    	jne    2e9 <_Z5test1v+0x2e9>
 1b1:	bf 20 00 00 00       	mov    $0x20,%edi
 1b6:	89 6c 24 60          	mov    %ebp,0x60(%rsp)
 1ba:	48 c7 44 24 50 00 00 	movq   $0x0,0x50(%rsp)
 1c1:	00 00 
 1c3:	4c 89 64 24 68       	mov    %r12,0x68(%rsp)
 1c8:	e8 00 00 00 00       	callq  1cd <_Z5test1v+0x1cd>
 1cd:	48 89 c5             	mov    %rax,%rbp
 1d0:	48 c7 00 00 00 00 00 	movq   $0x0,(%rax)
 1d7:	48 8d 44 24 50       	lea    0x50(%rsp),%rax
 1dc:	48 8d 7d 08          	lea    0x8(%rbp),%rdi
 1e0:	48 8d 70 08          	lea    0x8(%rax),%rsi
 1e4:	e8 00 00 00 00       	callq  1e9 <_Z5test1v+0x1e9>
 1e9:	48 8b 54 24 68       	mov    0x68(%rsp),%rdx
 1ee:	48 8b 44 24 60       	mov    0x60(%rsp),%rax
 1f3:	be 00 00 00 00       	mov    $0x0,%esi
 1f8:	48 c7 45 00 00 00 00 	movq   $0x0,0x0(%rbp)
 1ff:	00 
 200:	48 89 ef             	mov    %rbp,%rdi
 203:	48 89 55 18          	mov    %rdx,0x18(%rbp)
 207:	48 89 45 10          	mov    %rax,0x10(%rbp)
 20b:	ba 00 00 00 00       	mov    $0x0,%edx
 210:	e8 00 00 00 00       	callq  215 <_Z5test1v+0x215>
 215:	48 89 c3             	mov    %rax,%rbx
 218:	80 7c 24 40 03       	cmpb   $0x3,0x40(%rsp)
 21d:	75 0a                	jne    229 <_Z5test1v+0x229>
 21f:	48 8d 7c 24 30       	lea    0x30(%rsp),%rdi
 224:	e8 00 00 00 00       	callq  229 <_Z5test1v+0x229>
 229:	48 89 df             	mov    %rbx,%rdi
 22c:	e8 00 00 00 00       	callq  231 <_Z5test1v+0x231>
 231:	48 89 c7             	mov    %rax,%rdi
 234:	e8 00 00 00 00       	callq  239 <_Z5test1v+0x239>
 239:	48 89 df             	mov    %rbx,%rdi
 23c:	e8 00 00 00 00       	callq  241 <_Z5test1v+0x241>
 241:	e8 00 00 00 00       	callq  246 <_Z5test1v+0x246>
 246:	48 8d 7c 24 50       	lea    0x50(%rsp),%rdi
 24b:	e8 00 00 00 00       	callq  250 <_Z5test1v+0x250>
 250:	e9 e3 fd ff ff       	jmpq   38 <_Z5test1v+0x38>
 255:	0f 1f 00             	nopl   (%rax)
 258:	4c 8d 6c 24 20       	lea    0x20(%rsp),%r13
 25d:	89 ea                	mov    %ebp,%edx
 25f:	4c 89 e6             	mov    %r12,%rsi
 262:	4c 89 ef             	mov    %r13,%rdi
 265:	ff d0                	callq  *%rax
 267:	e9 22 ff ff ff       	jmpq   18e <_Z5test1v+0x18e>
 26c:	0f 1f 40 00          	nopl   0x0(%rax)
 270:	ba 00 00 00 00       	mov    $0x0,%edx
 275:	48 85 d2             	test   %rdx,%rdx
 278:	74 62                	je     2dc <_Z5test1v+0x2dc>
 27a:	ba ff ff ff ff       	mov    $0xffffffff,%edx
 27f:	f0 0f c1 50 f8       	lock xadd %edx,-0x8(%rax)
 284:	89 d0                	mov    %edx,%eax
 286:	85 c0                	test   %eax,%eax
 288:	0f 8f 1b fe ff ff    	jg     a9 <_Z5test1v+0xa9>
 28e:	48 8d 74 24 50       	lea    0x50(%rsp),%rsi
 293:	e8 00 00 00 00       	callq  298 <_Z5test1v+0x298>
 298:	e9 0c fe ff ff       	jmpq   a9 <_Z5test1v+0xa9>
 29d:	0f 1f 00             	nopl   (%rax)
 2a0:	4c 8d 6c 24 20       	lea    0x20(%rsp),%r13
 2a5:	48 8d 54 24 0d       	lea    0xd(%rsp),%rdx
 2aa:	be 00 00 00 00       	mov    $0x0,%esi
 2af:	4c 89 ef             	mov    %r13,%rdi
 2b2:	e8 00 00 00 00       	callq  2b7 <_Z5test1v+0x2b7>
 2b7:	e9 d2 fe ff ff       	jmpq   18e <_Z5test1v+0x18e>
 2bc:	0f 1f 40 00          	nopl   0x0(%rax)
 2c0:	4c 8d 6c 24 20       	lea    0x20(%rsp),%r13
 2c5:	48 8d 54 24 0f       	lea    0xf(%rsp),%rdx
 2ca:	be 00 00 00 00       	mov    $0x0,%esi
 2cf:	4c 89 ef             	mov    %r13,%rdi
 2d2:	e8 00 00 00 00       	callq  2d7 <_Z5test1v+0x2d7>
 2d7:	e9 b2 fe ff ff       	jmpq   18e <_Z5test1v+0x18e>
 2dc:	8b 50 f8             	mov    -0x8(%rax),%edx
 2df:	8d 4a ff             	lea    -0x1(%rdx),%ecx
 2e2:	89 48 f8             	mov    %ecx,-0x8(%rax)
 2e5:	89 d0                	mov    %edx,%eax
 2e7:	eb 9d                	jmp    286 <_Z5test1v+0x286>
 2e9:	ba 00 00 00 00       	mov    $0x0,%edx
 2ee:	48 85 d2             	test   %rdx,%rdx
 2f1:	74 23                	je     316 <_Z5test1v+0x316>
 2f3:	ba ff ff ff ff       	mov    $0xffffffff,%edx
 2f8:	f0 0f c1 50 f8       	lock xadd %edx,-0x8(%rax)
 2fd:	89 d0                	mov    %edx,%eax
 2ff:	85 c0                	test   %eax,%eax
 301:	0f 8f aa fe ff ff    	jg     1b1 <_Z5test1v+0x1b1>
 307:	48 8d 74 24 10       	lea    0x10(%rsp),%rsi
 30c:	e8 00 00 00 00       	callq  311 <_Z5test1v+0x311>
 311:	e9 9b fe ff ff       	jmpq   1b1 <_Z5test1v+0x1b1>
 316:	8b 50 f8             	mov    -0x8(%rax),%edx
 319:	8d 4a ff             	lea    -0x1(%rdx),%ecx
 31c:	89 48 f8             	mov    %ecx,-0x8(%rax)
 31f:	89 d0                	mov    %edx,%eax
 321:	eb dc                	jmp    2ff <_Z5test1v+0x2ff>
 323:	48 89 c3             	mov    %rax,%rbx
 326:	48 8b 44 24 20       	mov    0x20(%rsp),%rax
 32b:	48 8d 78 e8          	lea    -0x18(%rax),%rdi
 32f:	48 81 ff 00 00 00 00 	cmp    $0x0,%rdi
 336:	0f 84 dc fe ff ff    	je     218 <_Z5test1v+0x218>
 33c:	48 8d 74 24 10       	lea    0x10(%rsp),%rsi
 341:	e8 00 00 00 00       	callq  346 <_Z5test1v+0x346>
 346:	e9 cd fe ff ff       	jmpq   218 <_Z5test1v+0x218>
 34b:	48 89 ef             	mov    %rbp,%rdi
 34e:	49 89 c4             	mov    %rax,%r12
 351:	e8 00 00 00 00       	callq  356 <_Z5test1v+0x356>
 356:	48 89 ef             	mov    %rbp,%rdi
 359:	e8 00 00 00 00       	callq  35e <_Z5test1v+0x35e>
 35e:	4c 89 e0             	mov    %r12,%rax
 361:	e9 cb fe ff ff       	jmpq   231 <_Z5test1v+0x231>
 366:	48 89 c5             	mov    %rax,%rbp
 369:	48 89 df             	mov    %rbx,%rdi
 36c:	48 89 eb             	mov    %rbp,%rbx
 36f:	e8 00 00 00 00       	callq  374 <_Z5test1v+0x374>
 374:	e9 9f fe ff ff       	jmpq   218 <_Z5test1v+0x218>
 379:	48 89 c5             	mov    %rax,%rbp
 37c:	48 8b 44 24 10       	mov    0x10(%rsp),%rax
 381:	48 8d 78 e8          	lea    -0x18(%rax),%rdi
 385:	48 81 ff 00 00 00 00 	cmp    $0x0,%rdi
 38c:	74 db                	je     369 <_Z5test1v+0x369>
 38e:	48 8d 74 24 50       	lea    0x50(%rsp),%rsi
 393:	e8 00 00 00 00       	callq  398 <_Z5test1v+0x398>
 398:	eb cf                	jmp    369 <_Z5test1v+0x369>
 39a:	66 0f 1f 44 00 00    	nopw   0x0(%rax,%rax,1)
