      10:	41 57                	push   %r15
      12:	41 56                	push   %r14
      14:	41 55                	push   %r13
      16:	41 54                	push   %r12
      18:	55                   	push   %rbp
      19:	53                   	push   %rbx
      1a:	48 81 ec 08 01 00 00 	sub    $0x108,%rsp
      21:	c6 84 24 80 00 00 00 	movb   $0x0,0x80(%rsp)
      28:	00 
      29:	c6 84 24 88 00 00 00 	movb   $0x0,0x88(%rsp)
      30:	00 
      31:	c6 84 24 89 00 00 00 	movb   $0x0,0x89(%rsp)
      38:	00 
      39:	48 c7 44 24 40 00 00 	movq   $0x0,0x40(%rsp)
      40:	00 00 
      42:	48 c7 44 24 48 00 00 	movq   $0x0,0x48(%rsp)
      49:	00 00 
      4b:	0f 1f 44 00 00       	nopl   0x0(%rax,%rax,1)
      50:	31 db                	xor    %ebx,%ebx
      52:	eb 3c                	jmp    90 <_Z5test2v+0x90>
      54:	0f 1f 40 00          	nopl   0x0(%rax)
      58:	48 81 fb f9 00 00 00 	cmp    $0xf9,%rbx
      5f:	0f 86 8b 00 00 00    	jbe    f0 <_Z5test2v+0xf0>
      65:	48 8d bc 24 d0 00 00 	lea    0xd0(%rsp),%rdi
      6c:	00 
      6d:	31 f6                	xor    %esi,%esi
      6f:	48 c7 84 24 d0 00 00 	movq   $0x0,0xd0(%rsp)
      76:	00 00 00 00 00 
      7b:	48 c7 84 24 d8 00 00 	movq   $0xf4240,0xd8(%rsp)
      82:	00 40 42 0f 00 
      87:	e8 00 00 00 00       	callq  8c <_Z5test2v+0x8c>
      8c:	48 83 c3 01          	add    $0x1,%rbx
      90:	0f b6 84 24 89 00 00 	movzbl 0x89(%rsp),%eax
      97:	00 
      98:	84 c0                	test   %al,%al
      9a:	74 14                	je     b0 <_Z5test2v+0xb0>
      9c:	48 83 fb 7c          	cmp    $0x7c,%rbx
      a0:	77 b6                	ja     58 <_Z5test2v+0x58>
      a2:	f3 90                	pause  
      a4:	eb e6                	jmp    8c <_Z5test2v+0x8c>
      a6:	66 2e 0f 1f 84 00 00 	nopw   %cs:0x0(%rax,%rax,1)
      ad:	00 00 00 
      b0:	b8 01 00 00 00       	mov    $0x1,%eax
      b5:	89 c2                	mov    %eax,%edx
      b7:	86 94 24 89 00 00 00 	xchg   %dl,0x89(%rsp)
      be:	84 d2                	test   %dl,%dl
      c0:	75 da                	jne    9c <_Z5test2v+0x9c>
      c2:	80 bc 24 80 00 00 00 	cmpb   $0x4,0x80(%rsp)
      c9:	04 
      ca:	0f 85 96 01 00 00    	jne    266 <_Z5test2v+0x266>
      d0:	48 8b 54 24 70       	mov    0x70(%rsp),%rdx
      d5:	48 8d 4a 19          	lea    0x19(%rdx),%rcx
      d9:	0f b6 52 19          	movzbl 0x19(%rdx),%edx
      dd:	84 d2                	test   %dl,%dl
      df:	74 1f                	je     100 <_Z5test2v+0x100>
      e1:	c6 84 24 89 00 00 00 	movb   $0x0,0x89(%rsp)
      e8:	00 
      e9:	e9 62 ff ff ff       	jmpq   50 <_Z5test2v+0x50>
      ee:	66 90                	xchg   %ax,%ax
      f0:	e8 00 00 00 00       	callq  f5 <_Z5test2v+0xf5>
      f5:	eb 95                	jmp    8c <_Z5test2v+0x8c>
      f7:	66 0f 1f 84 00 00 00 	nopw   0x0(%rax,%rax,1)
      fe:	00 00 
     100:	86 01                	xchg   %al,(%rcx)
     102:	84 c0                	test   %al,%al
     104:	75 db                	jne    e1 <_Z5test2v+0xe1>
     106:	48 8b 44 24 70       	mov    0x70(%rsp),%rax
     10b:	48 8d 6c 24 70       	lea    0x70(%rsp),%rbp
     110:	48 89 6c 24 40       	mov    %rbp,0x40(%rsp)
     115:	48 89 44 24 48       	mov    %rax,0x48(%rsp)
     11a:	48 85 c0             	test   %rax,%rax
     11d:	0f 85 be 10 00 00    	jne    11e1 <_Z5test2v+0x11e1>
     123:	80 bc 24 88 00 00 00 	cmpb   $0x0,0x88(%rsp)
     12a:	00 
     12b:	0f 85 b0 10 00 00    	jne    11e1 <_Z5test2v+0x11e1>
     131:	0f b6 84 24 80 00 00 	movzbl 0x80(%rsp),%eax
     138:	00 
     139:	3c 02                	cmp    $0x2,%al
     13b:	0f 84 32 09 00 00    	je     a73 <_Z5test2v+0xa73>
     141:	0f 86 d1 05 00 00    	jbe    718 <_Z5test2v+0x718>
     147:	3c 03                	cmp    $0x3,%al
     149:	0f 84 f9 07 00 00    	je     948 <_Z5test2v+0x948>
     14f:	3c 04                	cmp    $0x4,%al
     151:	0f 85 ed 05 00 00    	jne    744 <_Z5test2v+0x744>
     157:	48 8b 44 24 70       	mov    0x70(%rsp),%rax
     15c:	c6 84 24 e0 00 00 00 	movb   $0x4,0xe0(%rsp)
     163:	04 
     164:	c6 84 24 e8 00 00 00 	movb   $0x0,0xe8(%rsp)
     16b:	00 
     16c:	c6 84 24 e9 00 00 00 	movb   $0x0,0xe9(%rsp)
     173:	00 
     174:	48 89 84 24 d0 00 00 	mov    %rax,0xd0(%rsp)
     17b:	00 
     17c:	48 c7 44 24 70 00 00 	movq   $0x0,0x70(%rsp)
     183:	00 00 
     185:	c6 84 24 80 00 00 00 	movb   $0x0,0x80(%rsp)
     18c:	00 
     18d:	4c 8d a4 24 d0 00 00 	lea    0xd0(%rsp),%r12
     194:	00 
     195:	c6 84 24 88 00 00 00 	movb   $0x1,0x88(%rsp)
     19c:	01 
     19d:	48 c7 84 24 f0 00 00 	movq   $0x0,0xf0(%rsp)
     1a4:	00 00 00 00 00 
     1a9:	48 8b 44 24 40       	mov    0x40(%rsp),%rax
     1ae:	48 85 c0             	test   %rax,%rax
     1b1:	74 0d                	je     1c0 <_Z5test2v+0x1c0>
     1b3:	c6 40 19 00          	movb   $0x0,0x19(%rax)
     1b7:	48 c7 44 24 40 00 00 	movq   $0x0,0x40(%rsp)
     1be:	00 00 
     1c0:	48 8b 44 24 48       	mov    0x48(%rsp),%rax
     1c5:	48 85 c0             	test   %rax,%rax
     1c8:	74 32                	je     1fc <_Z5test2v+0x1fc>
     1ca:	c6 40 19 00          	movb   $0x0,0x19(%rax)
     1ce:	48 8b 44 24 40       	mov    0x40(%rsp),%rax
     1d3:	48 c7 44 24 48 00 00 	movq   $0x0,0x48(%rsp)
     1da:	00 00 
     1dc:	48 85 c0             	test   %rax,%rax
     1df:	74 1b                	je     1fc <_Z5test2v+0x1fc>
     1e1:	c6 40 19 00          	movb   $0x0,0x19(%rax)
     1e5:	48 8b 44 24 48       	mov    0x48(%rsp),%rax
     1ea:	48 c7 44 24 40 00 00 	movq   $0x0,0x40(%rsp)
     1f1:	00 00 
     1f3:	48 85 c0             	test   %rax,%rax
     1f6:	74 04                	je     1fc <_Z5test2v+0x1fc>
     1f8:	c6 40 19 00          	movb   $0x0,0x19(%rax)
     1fc:	48 c7 44 24 50 00 00 	movq   $0x0,0x50(%rsp)
     203:	00 00 
     205:	48 c7 44 24 58 00 00 	movq   $0x0,0x58(%rsp)
     20c:	00 00 
     20e:	66 90                	xchg   %ax,%ax
     210:	31 db                	xor    %ebx,%ebx
     212:	eb 3c                	jmp    250 <_Z5test2v+0x250>
     214:	0f 1f 40 00          	nopl   0x0(%rax)
     218:	48 81 fb f9 00 00 00 	cmp    $0xf9,%rbx
     21f:	0f 86 9b 00 00 00    	jbe    2c0 <_Z5test2v+0x2c0>
     225:	48 8d bc 24 b0 00 00 	lea    0xb0(%rsp),%rdi
     22c:	00 
     22d:	31 f6                	xor    %esi,%esi
     22f:	48 c7 84 24 b0 00 00 	movq   $0x0,0xb0(%rsp)
     236:	00 00 00 00 00 
     23b:	48 c7 84 24 b8 00 00 	movq   $0xf4240,0xb8(%rsp)
     242:	00 40 42 0f 00 
     247:	e8 00 00 00 00       	callq  24c <_Z5test2v+0x24c>
     24c:	48 83 c3 01          	add    $0x1,%rbx
     250:	0f b6 84 24 89 00 00 	movzbl 0x89(%rsp),%eax
     257:	00 
     258:	84 c0                	test   %al,%al
     25a:	74 24                	je     280 <_Z5test2v+0x280>
     25c:	48 83 fb 7c          	cmp    $0x7c,%rbx
     260:	77 b6                	ja     218 <_Z5test2v+0x218>
     262:	f3 90                	pause  
     264:	eb e6                	jmp    24c <_Z5test2v+0x24c>
     266:	48 8d 6c 24 70       	lea    0x70(%rsp),%rbp
     26b:	48 8b 44 24 48       	mov    0x48(%rsp),%rax
     270:	48 89 6c 24 40       	mov    %rbp,0x40(%rsp)
     275:	e9 a0 fe ff ff       	jmpq   11a <_Z5test2v+0x11a>
     27a:	66 0f 1f 44 00 00    	nopw   0x0(%rax,%rax,1)
     280:	b8 01 00 00 00       	mov    $0x1,%eax
     285:	89 c2                	mov    %eax,%edx
     287:	86 94 24 89 00 00 00 	xchg   %dl,0x89(%rsp)
     28e:	84 d2                	test   %dl,%dl
     290:	75 ca                	jne    25c <_Z5test2v+0x25c>
     292:	80 bc 24 80 00 00 00 	cmpb   $0x4,0x80(%rsp)
     299:	04 
     29a:	0f 85 b0 03 00 00    	jne    650 <_Z5test2v+0x650>
     2a0:	48 8b 54 24 70       	mov    0x70(%rsp),%rdx
     2a5:	48 8d 4a 19          	lea    0x19(%rdx),%rcx
     2a9:	0f b6 52 19          	movzbl 0x19(%rdx),%edx
     2ad:	84 d2                	test   %dl,%dl
     2af:	74 1f                	je     2d0 <_Z5test2v+0x2d0>
     2b1:	c6 84 24 89 00 00 00 	movb   $0x0,0x89(%rsp)
     2b8:	00 
     2b9:	e9 52 ff ff ff       	jmpq   210 <_Z5test2v+0x210>
     2be:	66 90                	xchg   %ax,%ax
     2c0:	e8 00 00 00 00       	callq  2c5 <_Z5test2v+0x2c5>
     2c5:	eb 85                	jmp    24c <_Z5test2v+0x24c>
     2c7:	66 0f 1f 84 00 00 00 	nopw   0x0(%rax,%rax,1)
     2ce:	00 00 
     2d0:	86 01                	xchg   %al,(%rcx)
     2d2:	84 c0                	test   %al,%al
     2d4:	75 db                	jne    2b1 <_Z5test2v+0x2b1>
     2d6:	48 8b 44 24 70       	mov    0x70(%rsp),%rax
     2db:	48 89 6c 24 50       	mov    %rbp,0x50(%rsp)
     2e0:	48 89 44 24 58       	mov    %rax,0x58(%rsp)
     2e5:	80 bc 24 88 00 00 00 	cmpb   $0x0,0x88(%rsp)
     2ec:	00 
     2ed:	0f 85 99 0e 00 00    	jne    118c <_Z5test2v+0x118c>
     2f3:	48 8b 44 24 58       	mov    0x58(%rsp),%rax
     2f8:	48 85 c0             	test   %rax,%rax
     2fb:	0f 84 a9 07 00 00    	je     aaa <_Z5test2v+0xaaa>
     301:	80 78 10 00          	cmpb   $0x0,0x10(%rax)
     305:	0f 85 8b 0e 00 00    	jne    1196 <_Z5test2v+0x1196>
     30b:	c7 00 05 00 00 00    	movl   $0x5,(%rax)
     311:	c6 40 10 01          	movb   $0x1,0x10(%rax)
     315:	48 c7 40 20 00 00 00 	movq   $0x0,0x20(%rax)
     31c:	00 
     31d:	0f b6 84 24 80 00 00 	movzbl 0x80(%rsp),%eax
     324:	00 
     325:	3c 02                	cmp    $0x2,%al
     327:	74 1b                	je     344 <_Z5test2v+0x344>
     329:	0f 86 61 04 00 00    	jbe    790 <_Z5test2v+0x790>
     32f:	3c 03                	cmp    $0x3,%al
     331:	0f 84 e2 05 00 00    	je     919 <_Z5test2v+0x919>
     337:	3c 04                	cmp    $0x4,%al
     339:	75 11                	jne    34c <_Z5test2v+0x34c>
     33b:	48 c7 44 24 70 00 00 	movq   $0x0,0x70(%rsp)
     342:	00 00 
     344:	c6 84 24 80 00 00 00 	movb   $0x0,0x80(%rsp)
     34b:	00 
     34c:	c6 84 24 88 00 00 00 	movb   $0x1,0x88(%rsp)
     353:	01 
     354:	48 89 e8             	mov    %rbp,%rax
     357:	c6 40 19 00          	movb   $0x0,0x19(%rax)
     35b:	48 c7 44 24 50 00 00 	movq   $0x0,0x50(%rsp)
     362:	00 00 
     364:	48 8b 44 24 58       	mov    0x58(%rsp),%rax
     369:	48 85 c0             	test   %rax,%rax
     36c:	74 04                	je     372 <_Z5test2v+0x372>
     36e:	c6 40 19 00          	movb   $0x0,0x19(%rax)
     372:	80 bc 24 e0 00 00 00 	cmpb   $0x0,0xe0(%rsp)
     379:	00 
     37a:	0f 84 da 02 00 00    	je     65a <_Z5test2v+0x65a>
     380:	48 c7 44 24 60 00 00 	movq   $0x0,0x60(%rsp)
     387:	00 00 
     389:	48 c7 44 24 68 00 00 	movq   $0x0,0x68(%rsp)
     390:	00 00 
     392:	66 0f 1f 44 00 00    	nopw   0x0(%rax,%rax,1)
     398:	31 db                	xor    %ebx,%ebx
     39a:	eb 3c                	jmp    3d8 <_Z5test2v+0x3d8>
     39c:	0f 1f 40 00          	nopl   0x0(%rax)
     3a0:	48 81 fb f9 00 00 00 	cmp    $0xf9,%rbx
     3a7:	0f 86 83 00 00 00    	jbe    430 <_Z5test2v+0x430>
     3ad:	48 8d bc 24 b0 00 00 	lea    0xb0(%rsp),%rdi
     3b4:	00 
     3b5:	31 f6                	xor    %esi,%esi
     3b7:	48 c7 84 24 b0 00 00 	movq   $0x0,0xb0(%rsp)
     3be:	00 00 00 00 00 
     3c3:	48 c7 84 24 b8 00 00 	movq   $0xf4240,0xb8(%rsp)
     3ca:	00 40 42 0f 00 
     3cf:	e8 00 00 00 00       	callq  3d4 <_Z5test2v+0x3d4>
     3d4:	48 83 c3 01          	add    $0x1,%rbx
     3d8:	0f b6 84 24 e9 00 00 	movzbl 0xe9(%rsp),%eax
     3df:	00 
     3e0:	84 c0                	test   %al,%al
     3e2:	74 0c                	je     3f0 <_Z5test2v+0x3f0>
     3e4:	48 83 fb 7c          	cmp    $0x7c,%rbx
     3e8:	77 b6                	ja     3a0 <_Z5test2v+0x3a0>
     3ea:	f3 90                	pause  
     3ec:	eb e6                	jmp    3d4 <_Z5test2v+0x3d4>
     3ee:	66 90                	xchg   %ax,%ax
     3f0:	b8 01 00 00 00       	mov    $0x1,%eax
     3f5:	89 c2                	mov    %eax,%edx
     3f7:	86 94 24 e9 00 00 00 	xchg   %dl,0xe9(%rsp)
     3fe:	84 d2                	test   %dl,%dl
     400:	75 e2                	jne    3e4 <_Z5test2v+0x3e4>
     402:	48 8b 94 24 f0 00 00 	mov    0xf0(%rsp),%rdx
     409:	00 
     40a:	48 85 d2             	test   %rdx,%rdx
     40d:	0f 84 ed 01 00 00    	je     600 <_Z5test2v+0x600>
     413:	48 8d 4a 19          	lea    0x19(%rdx),%rcx
     417:	0f b6 52 19          	movzbl 0x19(%rdx),%edx
     41b:	84 d2                	test   %dl,%dl
     41d:	74 21                	je     440 <_Z5test2v+0x440>
     41f:	c6 84 24 e9 00 00 00 	movb   $0x0,0xe9(%rsp)
     426:	00 
     427:	e9 6c ff ff ff       	jmpq   398 <_Z5test2v+0x398>
     42c:	0f 1f 40 00          	nopl   0x0(%rax)
     430:	e8 00 00 00 00       	callq  435 <_Z5test2v+0x435>
     435:	eb 9d                	jmp    3d4 <_Z5test2v+0x3d4>
     437:	66 0f 1f 84 00 00 00 	nopw   0x0(%rax,%rax,1)
     43e:	00 00 
     440:	86 01                	xchg   %al,(%rcx)
     442:	84 c0                	test   %al,%al
     444:	75 d9                	jne    41f <_Z5test2v+0x41f>
     446:	80 bc 24 e8 00 00 00 	cmpb   $0x0,0xe8(%rsp)
     44d:	00 
     44e:	48 8b 84 24 f0 00 00 	mov    0xf0(%rsp),%rax
     455:	00 
     456:	4c 89 64 24 68       	mov    %r12,0x68(%rsp)
     45b:	48 89 44 24 60       	mov    %rax,0x60(%rsp)
     460:	0f 85 ad 01 00 00    	jne    613 <_Z5test2v+0x613>
     466:	48 85 c0             	test   %rax,%rax
     469:	0f 84 61 06 00 00    	je     ad0 <_Z5test2v+0xad0>
     46f:	0f b6 84 24 e0 00 00 	movzbl 0xe0(%rsp),%eax
     476:	00 
     477:	3c 02                	cmp    $0x2,%al
     479:	0f 84 99 06 00 00    	je     b18 <_Z5test2v+0xb18>
     47f:	3c 03                	cmp    $0x3,%al
     481:	0f 84 1e 03 00 00    	je     7a5 <_Z5test2v+0x7a5>
     487:	3c 01                	cmp    $0x1,%al
     489:	44 8b ac 24 d0 00 00 	mov    0xd0(%rsp),%r13d
     490:	00 
     491:	74 10                	je     4a3 <_Z5test2v+0x4a3>
     493:	3c 04                	cmp    $0x4,%al
     495:	75 14                	jne    4ab <_Z5test2v+0x4ab>
     497:	48 c7 84 24 d0 00 00 	movq   $0x0,0xd0(%rsp)
     49e:	00 00 00 00 00 
     4a3:	c6 84 24 e0 00 00 00 	movb   $0x0,0xe0(%rsp)
     4aa:	00 
     4ab:	48 8b 44 24 60       	mov    0x60(%rsp),%rax
     4b0:	48 85 c0             	test   %rax,%rax
     4b3:	74 0d                	je     4c2 <_Z5test2v+0x4c2>
     4b5:	c6 40 19 00          	movb   $0x0,0x19(%rax)
     4b9:	48 c7 44 24 60 00 00 	movq   $0x0,0x60(%rsp)
     4c0:	00 00 
     4c2:	48 8b 44 24 68       	mov    0x68(%rsp),%rax
     4c7:	48 85 c0             	test   %rax,%rax
     4ca:	74 04                	je     4d0 <_Z5test2v+0x4d0>
     4cc:	c6 40 19 00          	movb   $0x0,0x19(%rax)
     4d0:	48 83 bc 24 f0 00 00 	cmpq   $0x0,0xf0(%rsp)
     4d7:	00 00 
     4d9:	0f 84 e2 04 00 00    	je     9c1 <_Z5test2v+0x9c1>
     4df:	90                   	nop
     4e0:	31 db                	xor    %ebx,%ebx
     4e2:	eb 3c                	jmp    520 <_Z5test2v+0x520>
     4e4:	0f 1f 40 00          	nopl   0x0(%rax)
     4e8:	48 81 fb f9 00 00 00 	cmp    $0xf9,%rbx
     4ef:	0f 86 8b 00 00 00    	jbe    580 <_Z5test2v+0x580>
     4f5:	48 8d bc 24 b0 00 00 	lea    0xb0(%rsp),%rdi
     4fc:	00 
     4fd:	31 f6                	xor    %esi,%esi
     4ff:	48 c7 84 24 b0 00 00 	movq   $0x0,0xb0(%rsp)
     506:	00 00 00 00 00 
     50b:	48 c7 84 24 b8 00 00 	movq   $0xf4240,0xb8(%rsp)
     512:	00 40 42 0f 00 
     517:	e8 00 00 00 00       	callq  51c <_Z5test2v+0x51c>
     51c:	48 83 c3 01          	add    $0x1,%rbx
     520:	0f b6 84 24 e9 00 00 	movzbl 0xe9(%rsp),%eax
     527:	00 
     528:	84 c0                	test   %al,%al
     52a:	74 14                	je     540 <_Z5test2v+0x540>
     52c:	48 83 fb 7c          	cmp    $0x7c,%rbx
     530:	77 b6                	ja     4e8 <_Z5test2v+0x4e8>
     532:	f3 90                	pause  
     534:	eb e6                	jmp    51c <_Z5test2v+0x51c>
     536:	66 2e 0f 1f 84 00 00 	nopw   %cs:0x0(%rax,%rax,1)
     53d:	00 00 00 
     540:	b8 01 00 00 00       	mov    $0x1,%eax
     545:	89 c2                	mov    %eax,%edx
     547:	86 94 24 e9 00 00 00 	xchg   %dl,0xe9(%rsp)
     54e:	84 d2                	test   %dl,%dl
     550:	75 da                	jne    52c <_Z5test2v+0x52c>
     552:	48 8b 94 24 f0 00 00 	mov    0xf0(%rsp),%rdx
     559:	00 
     55a:	48 85 d2             	test   %rdx,%rdx
     55d:	0f 84 31 01 00 00    	je     694 <_Z5test2v+0x694>
     563:	48 8d 4a 19          	lea    0x19(%rdx),%rcx
     567:	0f b6 52 19          	movzbl 0x19(%rdx),%edx
     56b:	84 d2                	test   %dl,%dl
     56d:	74 21                	je     590 <_Z5test2v+0x590>
     56f:	c6 84 24 e9 00 00 00 	movb   $0x0,0xe9(%rsp)
     576:	00 
     577:	e9 64 ff ff ff       	jmpq   4e0 <_Z5test2v+0x4e0>
     57c:	0f 1f 40 00          	nopl   0x0(%rax)
     580:	e8 00 00 00 00       	callq  585 <_Z5test2v+0x585>
     585:	eb 95                	jmp    51c <_Z5test2v+0x51c>
     587:	66 0f 1f 84 00 00 00 	nopw   0x0(%rax,%rax,1)
     58e:	00 00 
     590:	86 01                	xchg   %al,(%rcx)
     592:	84 c0                	test   %al,%al
     594:	75 d9                	jne    56f <_Z5test2v+0x56f>
     596:	48 8b 9c 24 f0 00 00 	mov    0xf0(%rsp),%rbx
     59d:	00 
     59e:	48 85 db             	test   %rbx,%rbx
     5a1:	0f 84 ed 00 00 00    	je     694 <_Z5test2v+0x694>
     5a7:	0f b6 43 10          	movzbl 0x10(%rbx),%eax
     5ab:	3c 02                	cmp    $0x2,%al
     5ad:	74 19                	je     5c8 <_Z5test2v+0x5c8>
     5af:	0f 86 7b 04 00 00    	jbe    a30 <_Z5test2v+0xa30>
     5b5:	3c 03                	cmp    $0x3,%al
     5b7:	0f 84 d3 06 00 00    	je     c90 <_Z5test2v+0xc90>
     5bd:	3c 04                	cmp    $0x4,%al
     5bf:	75 0b                	jne    5cc <_Z5test2v+0x5cc>
     5c1:	48 c7 03 00 00 00 00 	movq   $0x0,(%rbx)
     5c8:	c6 43 10 00          	movb   $0x0,0x10(%rbx)
     5cc:	0f b6 84 24 e0 00 00 	movzbl 0xe0(%rsp),%eax
     5d3:	00 
     5d4:	3c 02                	cmp    $0x2,%al
     5d6:	0f 84 e4 00 00 00    	je     6c0 <_Z5test2v+0x6c0>
     5dc:	0f 86 89 06 00 00    	jbe    c6b <_Z5test2v+0xc6b>
     5e2:	3c 03                	cmp    $0x3,%al
     5e4:	0f 84 65 06 00 00    	je     c4f <_Z5test2v+0xc4f>
     5ea:	3c 04                	cmp    $0x4,%al
     5ec:	0f 84 c2 00 00 00    	je     6b4 <_Z5test2v+0x6b4>
     5f2:	e9 d6 00 00 00       	jmpq   6cd <_Z5test2v+0x6cd>
     5f7:	66 0f 1f 84 00 00 00 	nopw   0x0(%rax,%rax,1)
     5fe:	00 00 
     600:	80 bc 24 e8 00 00 00 	cmpb   $0x0,0xe8(%rsp)
     607:	00 
     608:	4c 89 64 24 68       	mov    %r12,0x68(%rsp)
     60d:	0f 84 bd 04 00 00    	je     ad0 <_Z5test2v+0xad0>
     613:	bf 20 00 00 00       	mov    $0x20,%edi
     618:	e8 00 00 00 00       	callq  61d <_Z5test2v+0x61d>
     61d:	49 89 c5             	mov    %rax,%r13
     620:	e8 00 00 00 00       	callq  625 <_Z5test2v+0x625>
     625:	be 04 00 00 00       	mov    $0x4,%esi
     62a:	48 89 c2             	mov    %rax,%rdx
     62d:	4c 89 ef             	mov    %r13,%rdi
     630:	e8 00 00 00 00       	callq  635 <_Z5test2v+0x635>
     635:	ba 00 00 00 00       	mov    $0x0,%edx
     63a:	be 00 00 00 00       	mov    $0x0,%esi
     63f:	4c 89 ef             	mov    %r13,%rdi
     642:	e8 00 00 00 00       	callq  647 <_Z5test2v+0x647>
     647:	66 0f 1f 84 00 00 00 	nopw   0x0(%rax,%rax,1)
     64e:	00 00 
     650:	48 89 6c 24 50       	mov    %rbp,0x50(%rsp)
     655:	e9 8b fc ff ff       	jmpq   2e5 <_Z5test2v+0x2e5>
     65a:	80 bc 24 e8 00 00 00 	cmpb   $0x0,0xe8(%rsp)
     661:	00 
     662:	0f 85 45 0b 00 00    	jne    11ad <_Z5test2v+0x11ad>
     668:	48 83 bc 24 f0 00 00 	cmpq   $0x0,0xf0(%rsp)
     66f:	00 00 
     671:	0f 84 e0 06 00 00    	je     d57 <_Z5test2v+0xd57>
     677:	66 0f 1f 84 00 00 00 	nopw   0x0(%rax,%rax,1)
     67e:	00 00 
     680:	e8 00 00 00 00       	callq  685 <_Z5test2v+0x685>
     685:	80 bc 24 e0 00 00 00 	cmpb   $0x0,0xe0(%rsp)
     68c:	00 
     68d:	74 f1                	je     680 <_Z5test2v+0x680>
     68f:	e9 ec fc ff ff       	jmpq   380 <_Z5test2v+0x380>
     694:	0f b6 84 24 e0 00 00 	movzbl 0xe0(%rsp),%eax
     69b:	00 
     69c:	31 db                	xor    %ebx,%ebx
     69e:	3c 02                	cmp    $0x2,%al
     6a0:	74 1e                	je     6c0 <_Z5test2v+0x6c0>
     6a2:	0f 86 5d 03 00 00    	jbe    a05 <_Z5test2v+0xa05>
     6a8:	3c 03                	cmp    $0x3,%al
     6aa:	0f 84 9f 05 00 00    	je     c4f <_Z5test2v+0xc4f>
     6b0:	3c 04                	cmp    $0x4,%al
     6b2:	75 1d                	jne    6d1 <_Z5test2v+0x6d1>
     6b4:	48 c7 84 24 d0 00 00 	movq   $0x0,0xd0(%rsp)
     6bb:	00 00 00 00 00 
     6c0:	c6 84 24 e0 00 00 00 	movb   $0x0,0xe0(%rsp)
     6c7:	00 
     6c8:	48 85 db             	test   %rbx,%rbx
     6cb:	74 04                	je     6d1 <_Z5test2v+0x6d1>
     6cd:	c6 43 19 00          	movb   $0x0,0x19(%rbx)
     6d1:	c6 84 24 e9 00 00 00 	movb   $0x0,0xe9(%rsp)
     6d8:	00 
     6d9:	80 bc 24 e0 00 00 00 	cmpb   $0x3,0xe0(%rsp)
     6e0:	03 
     6e1:	0f 84 7f 03 00 00    	je     a66 <_Z5test2v+0xa66>
     6e7:	80 bc 24 88 00 00 00 	cmpb   $0x0,0x88(%rsp)
     6ee:	00 
     6ef:	0f 84 37 01 00 00    	je     82c <_Z5test2v+0x82c>
     6f5:	80 bc 24 80 00 00 00 	cmpb   $0x3,0x80(%rsp)
     6fc:	03 
     6fd:	0f 84 09 02 00 00    	je     90c <_Z5test2v+0x90c>
     703:	48 81 c4 08 01 00 00 	add    $0x108,%rsp
     70a:	44 89 e8             	mov    %r13d,%eax
     70d:	5b                   	pop    %rbx
     70e:	5d                   	pop    %rbp
     70f:	41 5c                	pop    %r12
     711:	41 5d                	pop    %r13
     713:	41 5e                	pop    %r14
     715:	41 5f                	pop    %r15
     717:	c3                   	retq   
     718:	3c 01                	cmp    $0x1,%al
     71a:	75 28                	jne    744 <_Z5test2v+0x744>
     71c:	8b 44 24 70          	mov    0x70(%rsp),%eax
     720:	c6 84 24 e0 00 00 00 	movb   $0x1,0xe0(%rsp)
     727:	01 
     728:	c6 84 24 e8 00 00 00 	movb   $0x0,0xe8(%rsp)
     72f:	00 
     730:	c6 84 24 e9 00 00 00 	movb   $0x0,0xe9(%rsp)
     737:	00 
     738:	89 84 24 d0 00 00 00 	mov    %eax,0xd0(%rsp)
     73f:	e9 41 fa ff ff       	jmpq   185 <_Z5test2v+0x185>
     744:	3c 02                	cmp    $0x2,%al
     746:	88 84 24 e0 00 00 00 	mov    %al,0xe0(%rsp)
     74d:	c6 84 24 e8 00 00 00 	movb   $0x0,0xe8(%rsp)
     754:	00 
     755:	c6 84 24 e9 00 00 00 	movb   $0x0,0xe9(%rsp)
     75c:	00 
     75d:	48 89 ac 24 f0 00 00 	mov    %rbp,0xf0(%rsp)
     764:	00 
     765:	0f 84 1a fa ff ff    	je     185 <_Z5test2v+0x185>
     76b:	0f 86 71 02 00 00    	jbe    9e2 <_Z5test2v+0x9e2>
     771:	3c 03                	cmp    $0x3,%al
     773:	0f 84 05 02 00 00    	je     97e <_Z5test2v+0x97e>
     779:	3c 04                	cmp    $0x4,%al
     77b:	0f 85 15 02 00 00    	jne    996 <_Z5test2v+0x996>
     781:	e9 f6 f9 ff ff       	jmpq   17c <_Z5test2v+0x17c>
     786:	66 2e 0f 1f 84 00 00 	nopw   %cs:0x0(%rax,%rax,1)
     78d:	00 00 00 
     790:	3c 01                	cmp    $0x1,%al
     792:	0f 85 b4 fb ff ff    	jne    34c <_Z5test2v+0x34c>
     798:	c6 84 24 80 00 00 00 	movb   $0x0,0x80(%rsp)
     79f:	00 
     7a0:	e9 a7 fb ff ff       	jmpq   34c <_Z5test2v+0x34c>
     7a5:	48 8d 7c 24 10       	lea    0x10(%rsp),%rdi
     7aa:	4c 89 e6             	mov    %r12,%rsi
     7ad:	e8 00 00 00 00       	callq  7b2 <_Z5test2v+0x7b2>
     7b2:	0f b6 84 24 e0 00 00 	movzbl 0xe0(%rsp),%eax
     7b9:	00 
     7ba:	3c 02                	cmp    $0x2,%al
     7bc:	0f 84 58 02 00 00    	je     a1a <_Z5test2v+0xa1a>
     7c2:	0f 86 4a 02 00 00    	jbe    a12 <_Z5test2v+0xa12>
     7c8:	3c 03                	cmp    $0x3,%al
     7ca:	0f 84 a9 08 00 00    	je     1079 <_Z5test2v+0x1079>
     7d0:	3c 04                	cmp    $0x4,%al
     7d2:	0f 85 b1 08 00 00    	jne    1089 <_Z5test2v+0x1089>
     7d8:	48 c7 84 24 d0 00 00 	movq   $0x0,0xd0(%rsp)
     7df:	00 00 00 00 00 
     7e4:	e9 31 02 00 00       	jmpq   a1a <_Z5test2v+0xa1a>
     7e9:	0f 1f 80 00 00 00 00 	nopl   0x0(%rax)
     7f0:	b8 01 00 00 00       	mov    $0x1,%eax
     7f5:	89 c2                	mov    %eax,%edx
     7f7:	86 94 24 89 00 00 00 	xchg   %dl,0x89(%rsp)
     7fe:	84 d2                	test   %dl,%dl
     800:	75 72                	jne    874 <_Z5test2v+0x874>
     802:	0f b6 94 24 80 00 00 	movzbl 0x80(%rsp),%edx
     809:	00 
     80a:	80 fa 04             	cmp    $0x4,%dl
     80d:	0f 85 2a 02 00 00    	jne    a3d <_Z5test2v+0xa3d>
     813:	48 8b 54 24 70       	mov    0x70(%rsp),%rdx
     818:	48 8d 4a 19          	lea    0x19(%rdx),%rcx
     81c:	0f b6 52 19          	movzbl 0x19(%rdx),%edx
     820:	84 d2                	test   %dl,%dl
     822:	74 6c                	je     890 <_Z5test2v+0x890>
     824:	c6 84 24 89 00 00 00 	movb   $0x0,0x89(%rsp)
     82b:	00 
     82c:	31 db                	xor    %ebx,%ebx
     82e:	eb 34                	jmp    864 <_Z5test2v+0x864>
     830:	48 81 fb f9 00 00 00 	cmp    $0xf9,%rbx
     837:	76 47                	jbe    880 <_Z5test2v+0x880>
     839:	48 8d bc 24 b0 00 00 	lea    0xb0(%rsp),%rdi
     840:	00 
     841:	31 f6                	xor    %esi,%esi
     843:	48 c7 84 24 b0 00 00 	movq   $0x0,0xb0(%rsp)
     84a:	00 00 00 00 00 
     84f:	48 c7 84 24 b8 00 00 	movq   $0xf4240,0xb8(%rsp)
     856:	00 40 42 0f 00 
     85b:	e8 00 00 00 00       	callq  860 <_Z5test2v+0x860>
     860:	48 83 c3 01          	add    $0x1,%rbx
     864:	0f b6 84 24 89 00 00 	movzbl 0x89(%rsp),%eax
     86b:	00 
     86c:	84 c0                	test   %al,%al
     86e:	0f 84 7c ff ff ff    	je     7f0 <_Z5test2v+0x7f0>
     874:	48 83 fb 7c          	cmp    $0x7c,%rbx
     878:	77 b6                	ja     830 <_Z5test2v+0x830>
     87a:	f3 90                	pause  
     87c:	eb e2                	jmp    860 <_Z5test2v+0x860>
     87e:	66 90                	xchg   %ax,%ax
     880:	e8 00 00 00 00       	callq  885 <_Z5test2v+0x885>
     885:	eb d9                	jmp    860 <_Z5test2v+0x860>
     887:	66 0f 1f 84 00 00 00 	nopw   0x0(%rax,%rax,1)
     88e:	00 00 
     890:	86 01                	xchg   %al,(%rcx)
     892:	84 c0                	test   %al,%al
     894:	75 8e                	jne    824 <_Z5test2v+0x824>
     896:	48 8b 5c 24 70       	mov    0x70(%rsp),%rbx
     89b:	48 85 db             	test   %rbx,%rbx
     89e:	0f 84 04 08 00 00    	je     10a8 <_Z5test2v+0x10a8>
     8a4:	80 7b 10 00          	cmpb   $0x0,0x10(%rbx)
     8a8:	0f 84 0a 01 00 00    	je     9b8 <_Z5test2v+0x9b8>
     8ae:	0f b6 84 24 80 00 00 	movzbl 0x80(%rsp),%eax
     8b5:	00 
     8b6:	48 c7 43 20 00 00 00 	movq   $0x0,0x20(%rbx)
     8bd:	00 
     8be:	3c 02                	cmp    $0x2,%al
     8c0:	74 1f                	je     8e1 <_Z5test2v+0x8e1>
     8c2:	0f 86 28 01 00 00    	jbe    9f0 <_Z5test2v+0x9f0>
     8c8:	3c 03                	cmp    $0x3,%al
     8ca:	0f 84 81 01 00 00    	je     a51 <_Z5test2v+0xa51>
     8d0:	3c 04                	cmp    $0x4,%al
     8d2:	0f 85 20 01 00 00    	jne    9f8 <_Z5test2v+0x9f8>
     8d8:	48 c7 44 24 70 00 00 	movq   $0x0,0x70(%rsp)
     8df:	00 00 
     8e1:	c6 84 24 80 00 00 00 	movb   $0x0,0x80(%rsp)
     8e8:	00 
     8e9:	48 85 db             	test   %rbx,%rbx
     8ec:	c6 84 24 89 00 00 00 	movb   $0x0,0x89(%rsp)
     8f3:	00 
     8f4:	0f 84 fb fd ff ff    	je     6f5 <_Z5test2v+0x6f5>
     8fa:	c6 43 19 00          	movb   $0x0,0x19(%rbx)
     8fe:	80 bc 24 80 00 00 00 	cmpb   $0x3,0x80(%rsp)
     905:	03 
     906:	0f 85 f7 fd ff ff    	jne    703 <_Z5test2v+0x703>
     90c:	48 89 ef             	mov    %rbp,%rdi
     90f:	e8 00 00 00 00       	callq  914 <_Z5test2v+0x914>
     914:	e9 ea fd ff ff       	jmpq   703 <_Z5test2v+0x703>
     919:	48 89 ef             	mov    %rbp,%rdi
     91c:	e8 00 00 00 00       	callq  921 <_Z5test2v+0x921>
     921:	48 8b 44 24 50       	mov    0x50(%rsp),%rax
     926:	c6 84 24 80 00 00 00 	movb   $0x0,0x80(%rsp)
     92d:	00 
     92e:	c6 84 24 88 00 00 00 	movb   $0x1,0x88(%rsp)
     935:	01 
     936:	48 85 c0             	test   %rax,%rax
     939:	0f 84 25 fa ff ff    	je     364 <_Z5test2v+0x364>
     93f:	e9 13 fa ff ff       	jmpq   357 <_Z5test2v+0x357>
     944:	0f 1f 40 00          	nopl   0x0(%rax)
     948:	48 8b 44 24 70       	mov    0x70(%rsp),%rax
     94d:	c6 84 24 e0 00 00 00 	movb   $0x3,0xe0(%rsp)
     954:	03 
     955:	48 c7 44 24 70 00 00 	movq   $0x0,0x70(%rsp)
     95c:	00 00 
     95e:	c6 84 24 e8 00 00 00 	movb   $0x0,0xe8(%rsp)
     965:	00 
     966:	c6 84 24 e9 00 00 00 	movb   $0x0,0xe9(%rsp)
     96d:	00 
     96e:	48 89 ac 24 f0 00 00 	mov    %rbp,0xf0(%rsp)
     975:	00 
     976:	48 89 84 24 d0 00 00 	mov    %rax,0xd0(%rsp)
     97d:	00 
     97e:	48 89 ef             	mov    %rbp,%rdi
     981:	e8 00 00 00 00       	callq  986 <_Z5test2v+0x986>
     986:	0f b6 84 24 e0 00 00 	movzbl 0xe0(%rsp),%eax
     98d:	00 
     98e:	c6 84 24 80 00 00 00 	movb   $0x0,0x80(%rsp)
     995:	00 
     996:	84 c0                	test   %al,%al
     998:	0f 85 ef f7 ff ff    	jne    18d <_Z5test2v+0x18d>
     99e:	4c 8d a4 24 d0 00 00 	lea    0xd0(%rsp),%r12
     9a5:	00 
     9a6:	c6 84 24 80 00 00 00 	movb   $0x4,0x80(%rsp)
     9ad:	04 
     9ae:	4c 89 64 24 70       	mov    %r12,0x70(%rsp)
     9b3:	e9 f1 f7 ff ff       	jmpq   1a9 <_Z5test2v+0x1a9>
     9b8:	c6 43 18 01          	movb   $0x1,0x18(%rbx)
     9bc:	e9 ed fe ff ff       	jmpq   8ae <_Z5test2v+0x8ae>
     9c1:	80 bc 24 e0 00 00 00 	cmpb   $0x0,0xe0(%rsp)
     9c8:	00 
     9c9:	0f 85 11 fb ff ff    	jne    4e0 <_Z5test2v+0x4e0>
     9cf:	80 bc 24 e8 00 00 00 	cmpb   $0x0,0xe8(%rsp)
     9d6:	00 
     9d7:	0f 84 0a fd ff ff    	je     6e7 <_Z5test2v+0x6e7>
     9dd:	e9 fe fa ff ff       	jmpq   4e0 <_Z5test2v+0x4e0>
     9e2:	3c 01                	cmp    $0x1,%al
     9e4:	75 b0                	jne    996 <_Z5test2v+0x996>
     9e6:	e9 9a f7 ff ff       	jmpq   185 <_Z5test2v+0x185>
     9eb:	0f 1f 44 00 00       	nopl   0x0(%rax,%rax,1)
     9f0:	3c 01                	cmp    $0x1,%al
     9f2:	0f 84 e9 fe ff ff    	je     8e1 <_Z5test2v+0x8e1>
     9f8:	c6 84 24 89 00 00 00 	movb   $0x0,0x89(%rsp)
     9ff:	00 
     a00:	e9 f5 fe ff ff       	jmpq   8fa <_Z5test2v+0x8fa>
     a05:	3c 01                	cmp    $0x1,%al
     a07:	0f 84 b3 fc ff ff    	je     6c0 <_Z5test2v+0x6c0>
     a0d:	e9 bf fc ff ff       	jmpq   6d1 <_Z5test2v+0x6d1>
     a12:	3c 01                	cmp    $0x1,%al
     a14:	0f 85 6f 06 00 00    	jne    1089 <_Z5test2v+0x1089>
     a1a:	c6 84 24 e0 00 00 00 	movb   $0x0,0xe0(%rsp)
     a21:	00 
     a22:	e9 62 06 00 00       	jmpq   1089 <_Z5test2v+0x1089>
     a27:	66 0f 1f 84 00 00 00 	nopw   0x0(%rax,%rax,1)
     a2e:	00 00 
     a30:	3c 01                	cmp    $0x1,%al
     a32:	0f 84 90 fb ff ff    	je     5c8 <_Z5test2v+0x5c8>
     a38:	e9 8f fb ff ff       	jmpq   5cc <_Z5test2v+0x5cc>
     a3d:	80 fa 02             	cmp    $0x2,%dl
     a40:	0f 84 1e 02 00 00    	je     c64 <_Z5test2v+0xc64>
     a46:	80 fa 03             	cmp    $0x3,%dl
     a49:	0f 85 29 02 00 00    	jne    c78 <_Z5test2v+0xc78>
     a4f:	31 db                	xor    %ebx,%ebx
     a51:	48 89 ef             	mov    %rbp,%rdi
     a54:	e8 00 00 00 00       	callq  a59 <_Z5test2v+0xa59>
     a59:	c6 84 24 80 00 00 00 	movb   $0x0,0x80(%rsp)
     a60:	00 
     a61:	e9 83 fe ff ff       	jmpq   8e9 <_Z5test2v+0x8e9>
     a66:	4c 89 e7             	mov    %r12,%rdi
     a69:	e8 00 00 00 00       	callq  a6e <_Z5test2v+0xa6e>
     a6e:	e9 74 fc ff ff       	jmpq   6e7 <_Z5test2v+0x6e7>
     a73:	48 8b 44 24 70       	mov    0x70(%rsp),%rax
     a78:	48 8b 54 24 78       	mov    0x78(%rsp),%rdx
     a7d:	c6 84 24 e0 00 00 00 	movb   $0x2,0xe0(%rsp)
     a84:	02 
     a85:	c6 84 24 e8 00 00 00 	movb   $0x0,0xe8(%rsp)
     a8c:	00 
     a8d:	c6 84 24 e9 00 00 00 	movb   $0x0,0xe9(%rsp)
     a94:	00 
     a95:	48 89 84 24 d0 00 00 	mov    %rax,0xd0(%rsp)
     a9c:	00 
     a9d:	48 89 94 24 d8 00 00 	mov    %rdx,0xd8(%rsp)
     aa4:	00 
     aa5:	e9 db f6 ff ff       	jmpq   185 <_Z5test2v+0x185>
     aaa:	80 bc 24 80 00 00 00 	cmpb   $0x0,0x80(%rsp)
     ab1:	00 
     ab2:	0f 85 53 06 00 00    	jne    110b <_Z5test2v+0x110b>
     ab8:	c7 44 24 70 05 00 00 	movl   $0x5,0x70(%rsp)
     abf:	00 
     ac0:	c6 84 24 80 00 00 00 	movb   $0x1,0x80(%rsp)
     ac7:	01 
     ac8:	48 89 e8             	mov    %rbp,%rax
     acb:	e9 87 f8 ff ff       	jmpq   357 <_Z5test2v+0x357>
     ad0:	0f b6 84 24 e0 00 00 	movzbl 0xe0(%rsp),%eax
     ad7:	00 
     ad8:	84 c0                	test   %al,%al
     ada:	0f 85 97 f9 ff ff    	jne    477 <_Z5test2v+0x477>
     ae0:	bf 20 00 00 00       	mov    $0x20,%edi
     ae5:	e8 00 00 00 00       	callq  aea <_Z5test2v+0xaea>
     aea:	49 89 c5             	mov    %rax,%r13
     aed:	e8 00 00 00 00       	callq  af2 <_Z5test2v+0xaf2>
     af2:	be 03 00 00 00       	mov    $0x3,%esi
     af7:	48 89 c2             	mov    %rax,%rdx
     afa:	4c 89 ef             	mov    %r13,%rdi
     afd:	e8 00 00 00 00       	callq  b02 <_Z5test2v+0xb02>
     b02:	ba 00 00 00 00       	mov    $0x0,%edx
     b07:	be 00 00 00 00       	mov    $0x0,%esi
     b0c:	4c 89 ef             	mov    %r13,%rdi
     b0f:	e8 00 00 00 00       	callq  b14 <_Z5test2v+0xb14>
     b14:	0f 1f 40 00          	nopl   0x0(%rax)
     b18:	48 8b 9c 24 d8 00 00 	mov    0xd8(%rsp),%rbx
     b1f:	00 
     b20:	e8 00 00 00 00       	callq  b25 <_Z5test2v+0xb25>
     b25:	4c 8b bc 24 d8 00 00 	mov    0xd8(%rsp),%r15
     b2c:	00 
     b2d:	44 8b b4 24 d0 00 00 	mov    0xd0(%rsp),%r14d
     b34:	00 
     b35:	48 39 c3             	cmp    %rax,%rbx
     b38:	49 8b 07             	mov    (%r15),%rax
     b3b:	48 8b 40 18          	mov    0x18(%rax),%rax
     b3f:	0f 84 5b 02 00 00    	je     da0 <_Z5test2v+0xda0>
     b45:	48 3d 00 00 00 00    	cmp    $0x0,%rax
     b4b:	48 8d 5c 24 30       	lea    0x30(%rsp),%rbx
     b50:	0f 85 3a 02 00 00    	jne    d90 <_Z5test2v+0xd90>
     b56:	41 83 fe 02          	cmp    $0x2,%r14d
     b5a:	0f 84 b0 03 00 00    	je     f10 <_Z5test2v+0xf10>
     b60:	41 83 fe 03          	cmp    $0x3,%r14d
     b64:	0f 84 d6 01 00 00    	je     d40 <_Z5test2v+0xd40>
     b6a:	41 83 fe 01          	cmp    $0x1,%r14d
     b6e:	0f 84 5c 01 00 00    	je     cd0 <_Z5test2v+0xcd0>
     b74:	48 8d 54 24 0f       	lea    0xf(%rsp),%rdx
     b79:	be 00 00 00 00       	mov    $0x0,%esi
     b7e:	48 89 df             	mov    %rbx,%rdi
     b81:	e8 00 00 00 00       	callq  b86 <_Z5test2v+0xb86>
     b86:	4c 8d ac 24 b0 00 00 	lea    0xb0(%rsp),%r13
     b8d:	00 
     b8e:	48 89 de             	mov    %rbx,%rsi
     b91:	4c 89 ef             	mov    %r13,%rdi
     b94:	e8 00 00 00 00       	callq  b99 <_Z5test2v+0xb99>
     b99:	48 8b 54 24 30       	mov    0x30(%rsp),%rdx
     b9e:	48 8d 7a e8          	lea    -0x18(%rdx),%rdi
     ba2:	48 81 ff 00 00 00 00 	cmp    $0x0,%rdi
     ba9:	0f 85 5a 01 00 00    	jne    d09 <_Z5test2v+0xd09>
     baf:	0f b6 84 24 e0 00 00 	movzbl 0xe0(%rsp),%eax
     bb6:	00 
     bb7:	48 c7 84 24 b0 00 00 	movq   $0x0,0xb0(%rsp)
     bbe:	00 00 00 00 00 
     bc3:	44 89 b4 24 c0 00 00 	mov    %r14d,0xc0(%rsp)
     bca:	00 
     bcb:	4c 89 bc 24 c8 00 00 	mov    %r15,0xc8(%rsp)
     bd2:	00 
     bd3:	3c 02                	cmp    $0x2,%al
     bd5:	74 1e                	je     bf5 <_Z5test2v+0xbf5>
     bd7:	0f 86 0a 01 00 00    	jbe    ce7 <_Z5test2v+0xce7>
     bdd:	3c 03                	cmp    $0x3,%al
     bdf:	0f 84 0f 01 00 00    	je     cf4 <_Z5test2v+0xcf4>
     be5:	3c 04                	cmp    $0x4,%al
     be7:	75 14                	jne    bfd <_Z5test2v+0xbfd>
     be9:	48 c7 84 24 d0 00 00 	movq   $0x0,0xd0(%rsp)
     bf0:	00 00 00 00 00 
     bf5:	c6 84 24 e0 00 00 00 	movb   $0x0,0xe0(%rsp)
     bfc:	00 
     bfd:	bf 20 00 00 00       	mov    $0x20,%edi
     c02:	e8 00 00 00 00       	callq  c07 <_Z5test2v+0xc07>
     c07:	49 8d 75 08          	lea    0x8(%r13),%rsi
     c0b:	48 8d 78 08          	lea    0x8(%rax),%rdi
     c0f:	48 c7 00 00 00 00 00 	movq   $0x0,(%rax)
     c16:	49 89 c6             	mov    %rax,%r14
     c19:	e8 00 00 00 00       	callq  c1e <_Z5test2v+0xc1e>
     c1e:	48 8b 94 24 c8 00 00 	mov    0xc8(%rsp),%rdx
     c25:	00 
     c26:	48 8b 84 24 c0 00 00 	mov    0xc0(%rsp),%rax
     c2d:	00 
     c2e:	be 00 00 00 00       	mov    $0x0,%esi
     c33:	49 c7 06 00 00 00 00 	movq   $0x0,(%r14)
     c3a:	4c 89 f7             	mov    %r14,%rdi
     c3d:	49 89 56 18          	mov    %rdx,0x18(%r14)
     c41:	49 89 46 10          	mov    %rax,0x10(%r14)
     c45:	ba 00 00 00 00       	mov    $0x0,%edx
     c4a:	e8 00 00 00 00       	callq  c4f <_Z5test2v+0xc4f>
     c4f:	4c 89 e7             	mov    %r12,%rdi
     c52:	e8 00 00 00 00       	callq  c57 <_Z5test2v+0xc57>
     c57:	c6 84 24 e0 00 00 00 	movb   $0x0,0xe0(%rsp)
     c5e:	00 
     c5f:	e9 64 fa ff ff       	jmpq   6c8 <_Z5test2v+0x6c8>
     c64:	31 db                	xor    %ebx,%ebx
     c66:	e9 76 fc ff ff       	jmpq   8e1 <_Z5test2v+0x8e1>
     c6b:	3c 01                	cmp    $0x1,%al
     c6d:	0f 84 4d fa ff ff    	je     6c0 <_Z5test2v+0x6c0>
     c73:	e9 55 fa ff ff       	jmpq   6cd <_Z5test2v+0x6cd>
     c78:	80 fa 01             	cmp    $0x1,%dl
     c7b:	74 e7                	je     c64 <_Z5test2v+0xc64>
     c7d:	c6 84 24 89 00 00 00 	movb   $0x0,0x89(%rsp)
     c84:	00 
     c85:	e9 6b fa ff ff       	jmpq   6f5 <_Z5test2v+0x6f5>
     c8a:	66 0f 1f 44 00 00    	nopw   0x0(%rax,%rax,1)
     c90:	48 89 df             	mov    %rbx,%rdi
     c93:	e8 00 00 00 00       	callq  c98 <_Z5test2v+0xc98>
     c98:	c6 43 10 00          	movb   $0x0,0x10(%rbx)
     c9c:	e9 2b f9 ff ff       	jmpq   5cc <_Z5test2v+0x5cc>
     ca1:	48 89 c3             	mov    %rax,%rbx
     ca4:	4c 89 ef             	mov    %r13,%rdi
     ca7:	e8 00 00 00 00       	callq  cac <_Z5test2v+0xcac>
     cac:	48 8d 7c 24 60       	lea    0x60(%rsp),%rdi
     cb1:	e8 00 00 00 00       	callq  cb6 <_Z5test2v+0xcb6>
     cb6:	4c 89 e7             	mov    %r12,%rdi
     cb9:	e8 00 00 00 00       	callq  cbe <_Z5test2v+0xcbe>
     cbe:	48 89 ef             	mov    %rbp,%rdi
     cc1:	e8 00 00 00 00       	callq  cc6 <_Z5test2v+0xcc6>
     cc6:	48 89 df             	mov    %rbx,%rdi
     cc9:	e8 00 00 00 00       	callq  cce <_Z5test2v+0xcce>
     cce:	66 90                	xchg   %ax,%ax
     cd0:	48 8d 54 24 0c       	lea    0xc(%rsp),%rdx
     cd5:	be 00 00 00 00       	mov    $0x0,%esi
     cda:	48 89 df             	mov    %rbx,%rdi
     cdd:	e8 00 00 00 00       	callq  ce2 <_Z5test2v+0xce2>
     ce2:	e9 9f fe ff ff       	jmpq   b86 <_Z5test2v+0xb86>
     ce7:	3c 01                	cmp    $0x1,%al
     ce9:	0f 84 06 ff ff ff    	je     bf5 <_Z5test2v+0xbf5>
     cef:	e9 09 ff ff ff       	jmpq   bfd <_Z5test2v+0xbfd>
     cf4:	4c 89 e7             	mov    %r12,%rdi
     cf7:	e8 00 00 00 00       	callq  cfc <_Z5test2v+0xcfc>
     cfc:	c6 84 24 e0 00 00 00 	movb   $0x0,0xe0(%rsp)
     d03:	00 
     d04:	e9 f4 fe ff ff       	jmpq   bfd <_Z5test2v+0xbfd>
     d09:	b8 00 00 00 00       	mov    $0x0,%eax
     d0e:	48 85 c0             	test   %rax,%rax
     d11:	0f 84 10 02 00 00    	je     f27 <_Z5test2v+0xf27>
     d17:	b8 ff ff ff ff       	mov    $0xffffffff,%eax
     d1c:	f0 0f c1 42 f8       	lock xadd %eax,-0x8(%rdx)
     d21:	85 c0                	test   %eax,%eax
     d23:	0f 8f 86 fe ff ff    	jg     baf <_Z5test2v+0xbaf>
     d29:	48 8d b4 24 90 00 00 	lea    0x90(%rsp),%rsi
     d30:	00 
     d31:	e8 00 00 00 00       	callq  d36 <_Z5test2v+0xd36>
     d36:	e9 74 fe ff ff       	jmpq   baf <_Z5test2v+0xbaf>
     d3b:	0f 1f 44 00 00       	nopl   0x0(%rax,%rax,1)
     d40:	48 8d 54 24 0e       	lea    0xe(%rsp),%rdx
     d45:	be 00 00 00 00       	mov    $0x0,%esi
     d4a:	48 89 df             	mov    %rbx,%rdi
     d4d:	e8 00 00 00 00       	callq  d52 <_Z5test2v+0xd52>
     d52:	e9 2f fe ff ff       	jmpq   b86 <_Z5test2v+0xb86>
     d57:	bf 20 00 00 00       	mov    $0x20,%edi
     d5c:	e8 00 00 00 00       	callq  d61 <_Z5test2v+0xd61>
     d61:	49 89 c5             	mov    %rax,%r13
     d64:	e8 00 00 00 00       	callq  d69 <_Z5test2v+0xd69>
     d69:	be 03 00 00 00       	mov    $0x3,%esi
     d6e:	48 89 c2             	mov    %rax,%rdx
     d71:	4c 89 ef             	mov    %r13,%rdi
     d74:	e8 00 00 00 00       	callq  d79 <_Z5test2v+0xd79>
     d79:	ba 00 00 00 00       	mov    $0x0,%edx
     d7e:	be 00 00 00 00       	mov    $0x0,%esi
     d83:	4c 89 ef             	mov    %r13,%rdi
     d86:	e8 00 00 00 00       	callq  d8b <_Z5test2v+0xd8b>
     d8b:	0f 1f 44 00 00       	nopl   0x0(%rax,%rax,1)
     d90:	44 89 f2             	mov    %r14d,%edx
     d93:	4c 89 fe             	mov    %r15,%rsi
     d96:	48 89 df             	mov    %rbx,%rdi
     d99:	ff d0                	callq  *%rax
     d9b:	e9 e6 fd ff ff       	jmpq   b86 <_Z5test2v+0xb86>
     da0:	48 3d 00 00 00 00    	cmp    $0x0,%rax
     da6:	48 8d 5c 24 20       	lea    0x20(%rsp),%rbx
     dab:	0f 85 a0 02 00 00    	jne    1051 <_Z5test2v+0x1051>
     db1:	41 83 fe 02          	cmp    $0x2,%r14d
     db5:	0f 84 7f 02 00 00    	je     103a <_Z5test2v+0x103a>
     dbb:	41 83 fe 03          	cmp    $0x3,%r14d
     dbf:	0f 84 5e 02 00 00    	je     1023 <_Z5test2v+0x1023>
     dc5:	41 83 fe 01          	cmp    $0x1,%r14d
     dc9:	0f 84 3d 02 00 00    	je     100c <_Z5test2v+0x100c>
     dcf:	48 8d 54 24 0b       	lea    0xb(%rsp),%rdx
     dd4:	be 00 00 00 00       	mov    $0x0,%esi
     dd9:	48 89 df             	mov    %rbx,%rdi
     ddc:	e8 00 00 00 00       	callq  de1 <_Z5test2v+0xde1>
     de1:	b9 13 00 00 00       	mov    $0x13,%ecx
     de6:	ba 00 00 00 00       	mov    $0x0,%edx
     deb:	31 f6                	xor    %esi,%esi
     ded:	48 89 df             	mov    %rbx,%rdi
     df0:	e8 00 00 00 00       	callq  df5 <_Z5test2v+0xdf5>
     df5:	48 8b 10             	mov    (%rax),%rdx
     df8:	4c 8d ac 24 b0 00 00 	lea    0xb0(%rsp),%r13
     dff:	00 
     e00:	48 8d bc 24 90 00 00 	lea    0x90(%rsp),%rdi
     e07:	00 
     e08:	4c 89 ee             	mov    %r13,%rsi
     e0b:	48 89 94 24 b0 00 00 	mov    %rdx,0xb0(%rsp)
     e12:	00 
     e13:	48 c7 00 00 00 00 00 	movq   $0x0,(%rax)
     e1a:	e8 00 00 00 00       	callq  e1f <_Z5test2v+0xe1f>
     e1f:	48 8b 94 24 b0 00 00 	mov    0xb0(%rsp),%rdx
     e26:	00 
     e27:	48 8d 7a e8          	lea    -0x18(%rdx),%rdi
     e2b:	48 81 ff 00 00 00 00 	cmp    $0x0,%rdi
     e32:	0f 85 41 01 00 00    	jne    f79 <_Z5test2v+0xf79>
     e38:	48 8b 54 24 20       	mov    0x20(%rsp),%rdx
     e3d:	48 8d 7a e8          	lea    -0x18(%rdx),%rdi
     e41:	48 81 ff 00 00 00 00 	cmp    $0x0,%rdi
     e48:	0f 85 ff 00 00 00    	jne    f4d <_Z5test2v+0xf4d>
     e4e:	0f b6 84 24 e0 00 00 	movzbl 0xe0(%rsp),%eax
     e55:	00 
     e56:	48 c7 84 24 90 00 00 	movq   $0x0,0x90(%rsp)
     e5d:	00 00 00 00 00 
     e62:	44 89 b4 24 a0 00 00 	mov    %r14d,0xa0(%rsp)
     e69:	00 
     e6a:	4c 89 bc 24 a8 00 00 	mov    %r15,0xa8(%rsp)
     e71:	00 
     e72:	3c 02                	cmp    $0x2,%al
     e74:	74 1e                	je     e94 <_Z5test2v+0xe94>
     e76:	0f 86 ae 02 00 00    	jbe    112a <_Z5test2v+0x112a>
     e7c:	3c 03                	cmp    $0x3,%al
     e7e:	0f 84 91 02 00 00    	je     1115 <_Z5test2v+0x1115>
     e84:	3c 04                	cmp    $0x4,%al
     e86:	75 14                	jne    e9c <_Z5test2v+0xe9c>
     e88:	48 c7 84 24 d0 00 00 	movq   $0x0,0xd0(%rsp)
     e8f:	00 00 00 00 00 
     e94:	c6 84 24 e0 00 00 00 	movb   $0x0,0xe0(%rsp)
     e9b:	00 
     e9c:	bf 20 00 00 00       	mov    $0x20,%edi
     ea1:	e8 00 00 00 00       	callq  ea6 <_Z5test2v+0xea6>
     ea6:	49 89 c5             	mov    %rax,%r13
     ea9:	48 c7 00 00 00 00 00 	movq   $0x0,(%rax)
     eb0:	48 8d 84 24 90 00 00 	lea    0x90(%rsp),%rax
     eb7:	00 
     eb8:	49 8d 7d 08          	lea    0x8(%r13),%rdi
     ebc:	48 8d 70 08          	lea    0x8(%rax),%rsi
     ec0:	e8 00 00 00 00       	callq  ec5 <_Z5test2v+0xec5>
     ec5:	48 8b 94 24 a8 00 00 	mov    0xa8(%rsp),%rdx
     ecc:	00 
     ecd:	48 8b 84 24 a0 00 00 	mov    0xa0(%rsp),%rax
     ed4:	00 
     ed5:	be 00 00 00 00       	mov    $0x0,%esi
     eda:	49 c7 45 00 00 00 00 	movq   $0x0,0x0(%r13)
     ee1:	00 
     ee2:	4c 89 ef             	mov    %r13,%rdi
     ee5:	49 89 55 18          	mov    %rdx,0x18(%r13)
     ee9:	49 89 45 10          	mov    %rax,0x10(%r13)
     eed:	ba 00 00 00 00       	mov    $0x0,%edx
     ef2:	e8 00 00 00 00       	callq  ef7 <_Z5test2v+0xef7>
     ef7:	48 89 c3             	mov    %rax,%rbx
     efa:	48 8d bc 24 90 00 00 	lea    0x90(%rsp),%rdi
     f01:	00 
     f02:	e8 00 00 00 00       	callq  f07 <_Z5test2v+0xf07>
     f07:	e9 a0 fd ff ff       	jmpq   cac <_Z5test2v+0xcac>
     f0c:	0f 1f 40 00          	nopl   0x0(%rax)
     f10:	48 8d 54 24 0d       	lea    0xd(%rsp),%rdx
     f15:	be 00 00 00 00       	mov    $0x0,%esi
     f1a:	48 89 df             	mov    %rbx,%rdi
     f1d:	e8 00 00 00 00       	callq  f22 <_Z5test2v+0xf22>
     f22:	e9 5f fc ff ff       	jmpq   b86 <_Z5test2v+0xb86>
     f27:	8b 42 f8             	mov    -0x8(%rdx),%eax
     f2a:	8d 48 ff             	lea    -0x1(%rax),%ecx
     f2d:	89 4a f8             	mov    %ecx,-0x8(%rdx)
     f30:	e9 ec fd ff ff       	jmpq   d21 <_Z5test2v+0xd21>
     f35:	48 89 c3             	mov    %rax,%rbx
     f38:	e9 79 fd ff ff       	jmpq   cb6 <_Z5test2v+0xcb6>
     f3d:	4c 89 ef             	mov    %r13,%rdi
     f40:	48 89 c3             	mov    %rax,%rbx
     f43:	e8 00 00 00 00       	callq  f48 <_Z5test2v+0xf48>
     f48:	e9 69 fd ff ff       	jmpq   cb6 <_Z5test2v+0xcb6>
     f4d:	b8 00 00 00 00       	mov    $0x0,%eax
     f52:	48 8d 4f 10          	lea    0x10(%rdi),%rcx
     f56:	48 85 c0             	test   %rax,%rax
     f59:	74 4c                	je     fa7 <_Z5test2v+0xfa7>
     f5b:	b8 ff ff ff ff       	mov    $0xffffffff,%eax
     f60:	f0 0f c1 01          	lock xadd %eax,(%rcx)
     f64:	85 c0                	test   %eax,%eax
     f66:	0f 8f e2 fe ff ff    	jg     e4e <_Z5test2v+0xe4e>
     f6c:	4c 89 ee             	mov    %r13,%rsi
     f6f:	e8 00 00 00 00       	callq  f74 <_Z5test2v+0xf74>
     f74:	e9 d5 fe ff ff       	jmpq   e4e <_Z5test2v+0xe4e>
     f79:	b8 00 00 00 00       	mov    $0x0,%eax
     f7e:	48 8d 4f 10          	lea    0x10(%rdi),%rcx
     f82:	48 85 c0             	test   %rax,%rax
     f85:	74 2b                	je     fb2 <_Z5test2v+0xfb2>
     f87:	b8 ff ff ff ff       	mov    $0xffffffff,%eax
     f8c:	f0 0f c1 01          	lock xadd %eax,(%rcx)
     f90:	85 c0                	test   %eax,%eax
     f92:	0f 8f a0 fe ff ff    	jg     e38 <_Z5test2v+0xe38>
     f98:	48 8d 74 24 50       	lea    0x50(%rsp),%rsi
     f9d:	e8 00 00 00 00       	callq  fa2 <_Z5test2v+0xfa2>
     fa2:	e9 91 fe ff ff       	jmpq   e38 <_Z5test2v+0xe38>
     fa7:	8b 42 f8             	mov    -0x8(%rdx),%eax
     faa:	8d 48 ff             	lea    -0x1(%rax),%ecx
     fad:	89 4a f8             	mov    %ecx,-0x8(%rdx)
     fb0:	eb b2                	jmp    f64 <_Z5test2v+0xf64>
     fb2:	8b 42 f8             	mov    -0x8(%rdx),%eax
     fb5:	8d 48 ff             	lea    -0x1(%rax),%ecx
     fb8:	89 4a f8             	mov    %ecx,-0x8(%rdx)
     fbb:	eb d3                	jmp    f90 <_Z5test2v+0xf90>
     fbd:	48 89 c3             	mov    %rax,%rbx
     fc0:	48 8b 84 24 b0 00 00 	mov    0xb0(%rsp),%rax
     fc7:	00 
     fc8:	48 8d 78 e8          	lea    -0x18(%rax),%rdi
     fcc:	48 81 ff 00 00 00 00 	cmp    $0x0,%rdi
     fd3:	74 0a                	je     fdf <_Z5test2v+0xfdf>
     fd5:	48 8d 74 24 50       	lea    0x50(%rsp),%rsi
     fda:	e8 00 00 00 00       	callq  fdf <_Z5test2v+0xfdf>
     fdf:	48 8b 44 24 20       	mov    0x20(%rsp),%rax
     fe4:	48 8d 78 e8          	lea    -0x18(%rax),%rdi
     fe8:	48 81 ff 00 00 00 00 	cmp    $0x0,%rdi
     fef:	0f 84 b7 fc ff ff    	je     cac <_Z5test2v+0xcac>
     ff5:	48 8d b4 24 b0 00 00 	lea    0xb0(%rsp),%rsi
     ffc:	00 
     ffd:	e8 00 00 00 00       	callq  1002 <_Z5test2v+0x1002>
    1002:	e9 a5 fc ff ff       	jmpq   cac <_Z5test2v+0xcac>
    1007:	48 89 c3             	mov    %rax,%rbx
    100a:	eb d3                	jmp    fdf <_Z5test2v+0xfdf>
    100c:	48 8d 54 24 08       	lea    0x8(%rsp),%rdx
    1011:	be 00 00 00 00       	mov    $0x0,%esi
    1016:	48 89 df             	mov    %rbx,%rdi
    1019:	e8 00 00 00 00       	callq  101e <_Z5test2v+0x101e>
    101e:	e9 be fd ff ff       	jmpq   de1 <_Z5test2v+0xde1>
    1023:	48 8d 54 24 0a       	lea    0xa(%rsp),%rdx
    1028:	be 00 00 00 00       	mov    $0x0,%esi
    102d:	48 89 df             	mov    %rbx,%rdi
    1030:	e8 00 00 00 00       	callq  1035 <_Z5test2v+0x1035>
    1035:	e9 a7 fd ff ff       	jmpq   de1 <_Z5test2v+0xde1>
    103a:	48 8d 54 24 09       	lea    0x9(%rsp),%rdx
    103f:	be 00 00 00 00       	mov    $0x0,%esi
    1044:	48 89 df             	mov    %rbx,%rdi
    1047:	e8 00 00 00 00       	callq  104c <_Z5test2v+0x104c>
    104c:	e9 90 fd ff ff       	jmpq   de1 <_Z5test2v+0xde1>
    1051:	44 89 f2             	mov    %r14d,%edx
    1054:	4c 89 fe             	mov    %r15,%rsi
    1057:	48 89 df             	mov    %rbx,%rdi
    105a:	ff d0                	callq  *%rax
    105c:	e9 80 fd ff ff       	jmpq   de1 <_Z5test2v+0xde1>
    1061:	4c 89 ef             	mov    %r13,%rdi
    1064:	48 89 c3             	mov    %rax,%rbx
    1067:	e8 00 00 00 00       	callq  106c <_Z5test2v+0x106c>
    106c:	4c 89 ef             	mov    %r13,%rdi
    106f:	e8 00 00 00 00       	callq  1074 <_Z5test2v+0x1074>
    1074:	e9 81 fe ff ff       	jmpq   efa <_Z5test2v+0xefa>
    1079:	4c 89 e7             	mov    %r12,%rdi
    107c:	e8 00 00 00 00       	callq  1081 <_Z5test2v+0x1081>
    1081:	c6 84 24 e0 00 00 00 	movb   $0x0,0xe0(%rsp)
    1088:	00 
    1089:	48 8d bc 24 b0 00 00 	lea    0xb0(%rsp),%rdi
    1090:	00 
    1091:	48 8d 74 24 10       	lea    0x10(%rsp),%rsi
    1096:	e8 00 00 00 00       	callq  109b <_Z5test2v+0x109b>
    109b:	48 8d bc 24 b0 00 00 	lea    0xb0(%rsp),%rdi
    10a2:	00 
    10a3:	e8 00 00 00 00       	callq  10a8 <_Z5test2v+0x10a8>
    10a8:	0f b6 84 24 80 00 00 	movzbl 0x80(%rsp),%eax
    10af:	00 
    10b0:	3c 02                	cmp    $0x2,%al
    10b2:	0f 84 29 f8 ff ff    	je     8e1 <_Z5test2v+0x8e1>
    10b8:	76 34                	jbe    10ee <_Z5test2v+0x10ee>
    10ba:	3c 03                	cmp    $0x3,%al
    10bc:	0f 84 8f f9 ff ff    	je     a51 <_Z5test2v+0xa51>
    10c2:	3c 04                	cmp    $0x4,%al
    10c4:	0f 84 0e f8 ff ff    	je     8d8 <_Z5test2v+0x8d8>
    10ca:	e9 ae fb ff ff       	jmpq   c7d <_Z5test2v+0xc7d>
    10cf:	48 8d bc 24 b0 00 00 	lea    0xb0(%rsp),%rdi
    10d6:	00 
    10d7:	48 89 c3             	mov    %rax,%rbx
    10da:	e8 00 00 00 00       	callq  10df <_Z5test2v+0x10df>
    10df:	48 8d 7c 24 10       	lea    0x10(%rsp),%rdi
    10e4:	e8 00 00 00 00       	callq  10e9 <_Z5test2v+0x10e9>
    10e9:	e9 be fb ff ff       	jmpq   cac <_Z5test2v+0xcac>
    10ee:	3c 01                	cmp    $0x1,%al
    10f0:	0f 84 eb f7 ff ff    	je     8e1 <_Z5test2v+0x8e1>
    10f6:	e9 82 fb ff ff       	jmpq   c7d <_Z5test2v+0xc7d>
    10fb:	4c 89 ef             	mov    %r13,%rdi
    10fe:	48 89 c3             	mov    %rax,%rbx
    1101:	e8 00 00 00 00       	callq  1106 <_Z5test2v+0x1106>
    1106:	e9 a1 fb ff ff       	jmpq   cac <_Z5test2v+0xcac>
    110b:	bf 01 00 00 00       	mov    $0x1,%edi
    1110:	e8 00 00 00 00       	callq  1115 <_Z5test2v+0x1115>
    1115:	4c 89 e7             	mov    %r12,%rdi
    1118:	e8 00 00 00 00       	callq  111d <_Z5test2v+0x111d>
    111d:	c6 84 24 e0 00 00 00 	movb   $0x0,0xe0(%rsp)
    1124:	00 
    1125:	e9 72 fd ff ff       	jmpq   e9c <_Z5test2v+0xe9c>
    112a:	3c 01                	cmp    $0x1,%al
    112c:	0f 84 62 fd ff ff    	je     e94 <_Z5test2v+0xe94>
    1132:	e9 65 fd ff ff       	jmpq   e9c <_Z5test2v+0xe9c>
    1137:	48 8d 7c 24 50       	lea    0x50(%rsp),%rdi
    113c:	48 89 c3             	mov    %rax,%rbx
    113f:	e8 00 00 00 00       	callq  1144 <_Z5test2v+0x1144>
    1144:	e9 6d fb ff ff       	jmpq   cb6 <_Z5test2v+0xcb6>
    1149:	4c 89 f7             	mov    %r14,%rdi
    114c:	48 89 c3             	mov    %rax,%rbx
    114f:	e8 00 00 00 00       	callq  1154 <_Z5test2v+0x1154>
    1154:	4c 89 f7             	mov    %r14,%rdi
    1157:	e8 00 00 00 00       	callq  115c <_Z5test2v+0x115c>
    115c:	e9 43 fb ff ff       	jmpq   ca4 <_Z5test2v+0xca4>
    1161:	48 89 c3             	mov    %rax,%rbx
    1164:	48 8b 44 24 30       	mov    0x30(%rsp),%rax
    1169:	48 8d 78 e8          	lea    -0x18(%rax),%rdi
    116d:	48 81 ff 00 00 00 00 	cmp    $0x0,%rdi
    1174:	0f 84 32 fb ff ff    	je     cac <_Z5test2v+0xcac>
    117a:	48 8d b4 24 90 00 00 	lea    0x90(%rsp),%rsi
    1181:	00 
    1182:	e8 00 00 00 00       	callq  1187 <_Z5test2v+0x1187>
    1187:	e9 20 fb ff ff       	jmpq   cac <_Z5test2v+0xcac>
    118c:	bf 01 00 00 00       	mov    $0x1,%edi
    1191:	e8 00 00 00 00       	callq  1196 <_Z5test2v+0x1196>
    1196:	bf 01 00 00 00       	mov    $0x1,%edi
    119b:	e8 00 00 00 00       	callq  11a0 <_Z5test2v+0x11a0>
    11a0:	e9 56 ff ff ff       	jmpq   10fb <_Z5test2v+0x10fb>
    11a5:	48 89 c3             	mov    %rax,%rbx
    11a8:	e9 ff fa ff ff       	jmpq   cac <_Z5test2v+0xcac>
    11ad:	bf 20 00 00 00       	mov    $0x20,%edi
    11b2:	e8 00 00 00 00       	callq  11b7 <_Z5test2v+0x11b7>
    11b7:	49 89 c5             	mov    %rax,%r13
    11ba:	e8 00 00 00 00       	callq  11bf <_Z5test2v+0x11bf>
    11bf:	be 04 00 00 00       	mov    $0x4,%esi
    11c4:	48 89 c2             	mov    %rax,%rdx
    11c7:	4c 89 ef             	mov    %r13,%rdi
    11ca:	e8 00 00 00 00       	callq  11cf <_Z5test2v+0x11cf>
    11cf:	ba 00 00 00 00       	mov    $0x0,%edx
    11d4:	be 00 00 00 00       	mov    $0x0,%esi
    11d9:	4c 89 ef             	mov    %r13,%rdi
    11dc:	e8 00 00 00 00       	callq  11e1 <_Z5test2v+0x11e1>
    11e1:	bf 20 00 00 00       	mov    $0x20,%edi
    11e6:	e8 00 00 00 00       	callq  11eb <_Z5test2v+0x11eb>
    11eb:	49 89 c4             	mov    %rax,%r12
    11ee:	e8 00 00 00 00       	callq  11f3 <_Z5test2v+0x11f3>
    11f3:	be 01 00 00 00       	mov    $0x1,%esi
    11f8:	48 89 c2             	mov    %rax,%rdx
    11fb:	4c 89 e7             	mov    %r12,%rdi
    11fe:	e8 00 00 00 00       	callq  1203 <_Z5test2v+0x1203>
    1203:	ba 00 00 00 00       	mov    $0x0,%edx
    1208:	be 00 00 00 00       	mov    $0x0,%esi
    120d:	4c 89 e7             	mov    %r12,%rdi
    1210:	e8 00 00 00 00       	callq  1215 <_Z5test2v+0x1215>
    1215:	e9 23 fd ff ff       	jmpq   f3d <_Z5test2v+0xf3d>
    121a:	48 89 c3             	mov    %rax,%rbx
    121d:	48 8d 7c 24 40       	lea    0x40(%rsp),%rdi
    1222:	e8 00 00 00 00       	callq  1227 <_Z5test2v+0x1227>
    1227:	e9 92 fa ff ff       	jmpq   cbe <_Z5test2v+0xcbe>
    122c:	4c 89 e7             	mov    %r12,%rdi
    122f:	48 89 c3             	mov    %rax,%rbx
    1232:	e8 00 00 00 00       	callq  1237 <_Z5test2v+0x1237>
    1237:	eb e4                	jmp    121d <_Z5test2v+0x121d>
