   2:	55                   	push   %rbp
   3:	53                   	push   %rbx
   4:	48 89 fb             	mov    %rdi,%rbx
   7:	48 83 ec 58          	sub    $0x58,%rsp
   b:	48 8d 7c 24 10       	lea    0x10(%rsp),%rdi
  10:	e8 00 00 00 00       	callq  15 <_Z5test2v+0x15>
  15:	0f b6 54 24 20       	movzbl 0x20(%rsp),%edx
  1a:	c6 44 24 40 00       	movb   $0x0,0x40(%rsp)
  1f:	80 fa 02             	cmp    $0x2,%dl
  22:	74 7c                	je     a0 <_Z5test2v+0xa0>
  24:	76 5a                	jbe    80 <_Z5test2v+0x80>
  26:	80 fa 03             	cmp    $0x3,%dl
  29:	74 0d                	je     38 <_Z5test2v+0x38>
  2b:	80 fa 04             	cmp    $0x4,%dl
  2e:	75 1f                	jne    4f <_Z5test2v+0x4f>
  30:	e8 00 00 00 00       	callq  35 <_Z5test2v+0x35>
  35:	0f 1f 00             	nopl   (%rax)
  38:	48 8d 6c 24 30       	lea    0x30(%rsp),%rbp
  3d:	48 8d 74 24 10       	lea    0x10(%rsp),%rsi
  42:	48 89 ef             	mov    %rbp,%rdi
  45:	e8 00 00 00 00       	callq  4a <_Z5test2v+0x4a>
  4a:	0f b6 54 24 20       	movzbl 0x20(%rsp),%edx
  4f:	84 d2                	test   %dl,%dl
  51:	88 54 24 40          	mov    %dl,0x40(%rsp)
  55:	0f 84 b0 00 00 00    	je     10b <_Z5test2v+0x10b>
  5b:	80 fa 02             	cmp    $0x2,%dl
  5e:	74 59                	je     b9 <_Z5test2v+0xb9>
  60:	80 fa 03             	cmp    $0x3,%dl
  63:	0f 84 ac 00 00 00    	je     115 <_Z5test2v+0x115>
  69:	8b 44 24 30          	mov    0x30(%rsp),%eax
  6d:	c6 43 10 01          	movb   $0x1,0x10(%rbx)
  71:	8d 04 40             	lea    (%rax,%rax,2),%eax
  74:	89 03                	mov    %eax,(%rbx)
  76:	48 83 c4 58          	add    $0x58,%rsp
  7a:	48 89 d8             	mov    %rbx,%rax
  7d:	5b                   	pop    %rbx
  7e:	5d                   	pop    %rbp
  7f:	c3                   	retq   
  80:	80 fa 01             	cmp    $0x1,%dl
  83:	75 ca                	jne    4f <_Z5test2v+0x4f>
  85:	8b 44 24 10          	mov    0x10(%rsp),%eax
  89:	c6 43 10 01          	movb   $0x1,0x10(%rbx)
  8d:	8d 04 40             	lea    (%rax,%rax,2),%eax
  90:	89 03                	mov    %eax,(%rbx)
  92:	48 83 c4 58          	add    $0x58,%rsp
  96:	48 89 d8             	mov    %rbx,%rax
  99:	5b                   	pop    %rbx
  9a:	5d                   	pop    %rbp
  9b:	c3                   	retq   
  9c:	0f 1f 40 00          	nopl   0x0(%rax)
  a0:	48 8b 44 24 10       	mov    0x10(%rsp),%rax
  a5:	48 8b 54 24 18       	mov    0x18(%rsp),%rdx
  aa:	c6 44 24 40 02       	movb   $0x2,0x40(%rsp)
  af:	48 89 44 24 30       	mov    %rax,0x30(%rsp)
  b4:	48 89 54 24 38       	mov    %rdx,0x38(%rsp)
  b9:	bf 20 00 00 00       	mov    $0x20,%edi
  be:	e8 00 00 00 00       	callq  c3 <_Z5test2v+0xc3>
  c3:	8b 74 24 30          	mov    0x30(%rsp),%esi
  c7:	48 8b 54 24 38       	mov    0x38(%rsp),%rdx
  cc:	48 89 c7             	mov    %rax,%rdi
  cf:	48 89 c5             	mov    %rax,%rbp
  d2:	e8 00 00 00 00       	callq  d7 <_Z5test2v+0xd7>
  d7:	ba 00 00 00 00       	mov    $0x0,%edx
  dc:	be 00 00 00 00       	mov    $0x0,%esi
  e1:	48 89 ef             	mov    %rbp,%rdi
  e4:	e8 00 00 00 00       	callq  e9 <_Z5test2v+0xe9>
  e9:	48 8d 6c 24 30       	lea    0x30(%rsp),%rbp
  ee:	48 89 c3             	mov    %rax,%rbx
  f1:	48 89 ef             	mov    %rbp,%rdi
  f4:	e8 00 00 00 00       	callq  f9 <_Z5test2v+0xf9>
  f9:	48 8d 7c 24 10       	lea    0x10(%rsp),%rdi
  fe:	e8 00 00 00 00       	callq  103 <_Z5test2v+0x103>
 103:	48 89 df             	mov    %rbx,%rdi
 106:	e8 00 00 00 00       	callq  10b <_Z5test2v+0x10b>
 10b:	bf 02 00 00 00       	mov    $0x2,%edi
 110:	e8 00 00 00 00       	callq  115 <_Z5test2v+0x115>
 115:	48 8d 6c 24 30       	lea    0x30(%rsp),%rbp
 11a:	48 89 e7             	mov    %rsp,%rdi
 11d:	48 89 ee             	mov    %rbp,%rsi
 120:	e8 00 00 00 00       	callq  125 <_Z5test2v+0x125>
 125:	48 89 e7             	mov    %rsp,%rdi
 128:	e8 00 00 00 00       	callq  12d <_Z5test2v+0x12d>
 12d:	48 89 e7             	mov    %rsp,%rdi
 130:	48 89 c3             	mov    %rax,%rbx
 133:	e8 00 00 00 00       	callq  138 <_Z5test2v+0x138>
 138:	eb b7                	jmp    f1 <_Z5test2v+0xf1>
 13a:	48 89 ef             	mov    %rbp,%rdi
 13d:	48 89 c3             	mov    %rax,%rbx
 140:	48 8d 6c 24 30       	lea    0x30(%rsp),%rbp
 145:	e8 00 00 00 00       	callq  14a <_Z5test2v+0x14a>
 14a:	eb a5                	jmp    f1 <_Z5test2v+0xf1>
