   2:	41 55                	push   %r13
   4:	41 54                	push   %r12
   6:	55                   	push   %rbp
   7:	53                   	push   %rbx
   8:	48 89 fb             	mov    %rdi,%rbx
   b:	48 83 ec 68          	sub    $0x68,%rsp
   f:	48 8d 7c 24 20       	lea    0x20(%rsp),%rdi
  14:	e8 00 00 00 00       	callq  19 <_Z5test2v+0x19>
  19:	0f b6 44 24 30       	movzbl 0x30(%rsp),%eax
  1e:	84 c0                	test   %al,%al
  20:	0f 84 e0 01 00 00    	je     206 <_Z5test2v+0x206>
  26:	3c 02                	cmp    $0x2,%al
  28:	74 56                	je     80 <_Z5test2v+0x80>
  2a:	3c 03                	cmp    $0x3,%al
  2c:	74 42                	je     70 <_Z5test2v+0x70>
  2e:	48 89 df             	mov    %rbx,%rdi
  31:	e8 00 00 00 00       	callq  36 <_Z5test2v+0x36>
  36:	80 7c 24 30 03       	cmpb   $0x3,0x30(%rsp)
  3b:	74 13                	je     50 <_Z5test2v+0x50>
  3d:	48 83 c4 68          	add    $0x68,%rsp
  41:	48 89 d8             	mov    %rbx,%rax
  44:	5b                   	pop    %rbx
  45:	5d                   	pop    %rbp
  46:	41 5c                	pop    %r12
  48:	41 5d                	pop    %r13
  4a:	c3                   	retq   
  4b:	0f 1f 44 00 00       	nopl   0x0(%rax,%rax,1)
  50:	48 8d 7c 24 20       	lea    0x20(%rsp),%rdi
  55:	e8 00 00 00 00       	callq  5a <_Z5test2v+0x5a>
  5a:	48 83 c4 68          	add    $0x68,%rsp
  5e:	48 89 d8             	mov    %rbx,%rax
  61:	5b                   	pop    %rbx
  62:	5d                   	pop    %rbp
  63:	41 5c                	pop    %r12
  65:	41 5d                	pop    %r13
  67:	c3                   	retq   
  68:	0f 1f 84 00 00 00 00 	nopl   0x0(%rax,%rax,1)
  6f:	00 
  70:	48 8d 74 24 20       	lea    0x20(%rsp),%rsi
  75:	48 89 df             	mov    %rbx,%rdi
  78:	e8 00 00 00 00       	callq  7d <_Z5test2v+0x7d>
  7d:	eb b7                	jmp    36 <_Z5test2v+0x36>
  7f:	90                   	nop
  80:	4c 8b 64 24 28       	mov    0x28(%rsp),%r12
  85:	8b 6c 24 20          	mov    0x20(%rsp),%ebp
  89:	49 8b 04 24          	mov    (%r12),%rax
  8d:	48 8b 40 18          	mov    0x18(%rax),%rax
  91:	48 3d 00 00 00 00    	cmp    $0x0,%rax
  97:	0f 85 1b 01 00 00    	jne    1b8 <_Z5test2v+0x1b8>
  9d:	83 fd 01             	cmp    $0x1,%ebp
  a0:	0f 84 d2 00 00 00    	je     178 <_Z5test2v+0x178>
  a6:	83 fd 02             	cmp    $0x2,%ebp
  a9:	0f 85 e9 00 00 00    	jne    198 <_Z5test2v+0x198>
  af:	4c 8d 6c 24 10       	lea    0x10(%rsp),%r13
  b4:	48 8d 54 24 0e       	lea    0xe(%rsp),%rdx
  b9:	be 00 00 00 00       	mov    $0x0,%esi
  be:	4c 89 ef             	mov    %r13,%rdi
  c1:	e8 00 00 00 00       	callq  c6 <_Z5test2v+0xc6>
  c6:	48 8d 7c 24 40       	lea    0x40(%rsp),%rdi
  cb:	4c 89 ee             	mov    %r13,%rsi
  ce:	e8 00 00 00 00       	callq  d3 <_Z5test2v+0xd3>
  d3:	48 8b 44 24 10       	mov    0x10(%rsp),%rax
  d8:	48 8d 78 e8          	lea    -0x18(%rax),%rdi
  dc:	48 81 ff 00 00 00 00 	cmp    $0x0,%rdi
  e3:	0f 85 e3 00 00 00    	jne    1cc <_Z5test2v+0x1cc>
  e9:	bf 20 00 00 00       	mov    $0x20,%edi
  ee:	89 6c 24 50          	mov    %ebp,0x50(%rsp)
  f2:	48 c7 44 24 40 00 00 	movq   $0x0,0x40(%rsp)
  f9:	00 00 
  fb:	4c 89 64 24 58       	mov    %r12,0x58(%rsp)
 100:	e8 00 00 00 00       	callq  105 <_Z5test2v+0x105>
 105:	48 89 c5             	mov    %rax,%rbp
 108:	48 c7 00 00 00 00 00 	movq   $0x0,(%rax)
 10f:	48 8d 44 24 40       	lea    0x40(%rsp),%rax
 114:	48 8d 7d 08          	lea    0x8(%rbp),%rdi
 118:	48 8d 70 08          	lea    0x8(%rax),%rsi
 11c:	e8 00 00 00 00       	callq  121 <_Z5test2v+0x121>
 121:	48 8b 54 24 58       	mov    0x58(%rsp),%rdx
 126:	48 8b 44 24 50       	mov    0x50(%rsp),%rax
 12b:	be 00 00 00 00       	mov    $0x0,%esi
 130:	48 c7 45 00 00 00 00 	movq   $0x0,0x0(%rbp)
 137:	00 
 138:	48 89 ef             	mov    %rbp,%rdi
 13b:	48 89 55 18          	mov    %rdx,0x18(%rbp)
 13f:	48 89 45 10          	mov    %rax,0x10(%rbp)
 143:	ba 00 00 00 00       	mov    $0x0,%edx
 148:	e8 00 00 00 00       	callq  14d <_Z5test2v+0x14d>
 14d:	48 89 c7             	mov    %rax,%rdi
 150:	e8 00 00 00 00       	callq  155 <_Z5test2v+0x155>
 155:	48 89 df             	mov    %rbx,%rdi
 158:	e8 00 00 00 00       	callq  15d <_Z5test2v+0x15d>
 15d:	e8 00 00 00 00       	callq  162 <_Z5test2v+0x162>
 162:	48 8d 7c 24 40       	lea    0x40(%rsp),%rdi
 167:	e8 00 00 00 00       	callq  16c <_Z5test2v+0x16c>
 16c:	e9 c5 fe ff ff       	jmpq   36 <_Z5test2v+0x36>
 171:	0f 1f 80 00 00 00 00 	nopl   0x0(%rax)
 178:	4c 8d 6c 24 10       	lea    0x10(%rsp),%r13
 17d:	48 8d 54 24 0d       	lea    0xd(%rsp),%rdx
 182:	be 00 00 00 00       	mov    $0x0,%esi
 187:	4c 89 ef             	mov    %r13,%rdi
 18a:	e8 00 00 00 00       	callq  18f <_Z5test2v+0x18f>
 18f:	e9 32 ff ff ff       	jmpq   c6 <_Z5test2v+0xc6>
 194:	0f 1f 40 00          	nopl   0x0(%rax)
 198:	4c 8d 6c 24 10       	lea    0x10(%rsp),%r13
 19d:	48 8d 54 24 0f       	lea    0xf(%rsp),%rdx
 1a2:	be 00 00 00 00       	mov    $0x0,%esi
 1a7:	4c 89 ef             	mov    %r13,%rdi
 1aa:	e8 00 00 00 00       	callq  1af <_Z5test2v+0x1af>
 1af:	e9 12 ff ff ff       	jmpq   c6 <_Z5test2v+0xc6>
 1b4:	0f 1f 40 00          	nopl   0x0(%rax)
 1b8:	4c 8d 6c 24 10       	lea    0x10(%rsp),%r13
 1bd:	89 ea                	mov    %ebp,%edx
 1bf:	4c 89 e6             	mov    %r12,%rsi
 1c2:	4c 89 ef             	mov    %r13,%rdi
 1c5:	ff d0                	callq  *%rax
 1c7:	e9 fa fe ff ff       	jmpq   c6 <_Z5test2v+0xc6>
 1cc:	ba 00 00 00 00       	mov    $0x0,%edx
 1d1:	48 85 d2             	test   %rdx,%rdx
 1d4:	74 23                	je     1f9 <_Z5test2v+0x1f9>
 1d6:	ba ff ff ff ff       	mov    $0xffffffff,%edx
 1db:	f0 0f c1 50 f8       	lock xadd %edx,-0x8(%rax)
 1e0:	89 d0                	mov    %edx,%eax
 1e2:	85 c0                	test   %eax,%eax
 1e4:	0f 8f ff fe ff ff    	jg     e9 <_Z5test2v+0xe9>
 1ea:	48 8d 74 24 0f       	lea    0xf(%rsp),%rsi
 1ef:	e8 00 00 00 00       	callq  1f4 <_Z5test2v+0x1f4>
 1f4:	e9 f0 fe ff ff       	jmpq   e9 <_Z5test2v+0xe9>
 1f9:	8b 50 f8             	mov    -0x8(%rax),%edx
 1fc:	8d 4a ff             	lea    -0x1(%rdx),%ecx
 1ff:	89 48 f8             	mov    %ecx,-0x8(%rax)
 202:	89 d0                	mov    %edx,%eax
 204:	eb dc                	jmp    1e2 <_Z5test2v+0x1e2>
 206:	bf 02 00 00 00       	mov    $0x2,%edi
 20b:	e8 00 00 00 00       	callq  210 <_Z5test2v+0x210>
 210:	48 89 c3             	mov    %rax,%rbx
 213:	80 7c 24 30 03       	cmpb   $0x3,0x30(%rsp)
 218:	75 0a                	jne    224 <_Z5test2v+0x224>
 21a:	48 8d 7c 24 20       	lea    0x20(%rsp),%rdi
 21f:	e8 00 00 00 00       	callq  224 <_Z5test2v+0x224>
 224:	48 89 df             	mov    %rbx,%rdi
 227:	e8 00 00 00 00       	callq  22c <_Z5test2v+0x22c>
 22c:	48 89 c3             	mov    %rax,%rbx
 22f:	48 8b 44 24 10       	mov    0x10(%rsp),%rax
 234:	48 8d 78 e8          	lea    -0x18(%rax),%rdi
 238:	48 81 ff 00 00 00 00 	cmp    $0x0,%rdi
 23f:	74 d2                	je     213 <_Z5test2v+0x213>
 241:	48 8d 74 24 0f       	lea    0xf(%rsp),%rsi
 246:	e8 00 00 00 00       	callq  24b <_Z5test2v+0x24b>
 24b:	eb c6                	jmp    213 <_Z5test2v+0x213>
 24d:	48 89 ef             	mov    %rbp,%rdi
 250:	49 89 c4             	mov    %rax,%r12
 253:	e8 00 00 00 00       	callq  258 <_Z5test2v+0x258>
 258:	48 89 ef             	mov    %rbp,%rdi
 25b:	e8 00 00 00 00       	callq  260 <_Z5test2v+0x260>
 260:	4c 89 e0             	mov    %r12,%rax
 263:	e9 e5 fe ff ff       	jmpq   14d <_Z5test2v+0x14d>
