   0:	53                   	push   %rbx
   1:	48 83 ec 40          	sub    $0x40,%rsp
   5:	48 89 fb             	mov    %rdi,%rbx
   8:	48 8d 7c 24 08       	lea    0x8(%rsp),%rdi
   d:	e8 00 00 00 00       	callq  12 <_Z5test1v+0x12>
  12:	c6 44 24 30 00       	movb   $0x0,0x30(%rsp)
  17:	8a 44 24 18          	mov    0x18(%rsp),%al
  1b:	88 c1                	mov    %al,%cl
  1d:	fe c9                	dec    %cl
  1f:	0f b6 c9             	movzbl %cl,%ecx
  22:	83 f9 03             	cmp    $0x3,%ecx
  25:	76 6a                	jbe    91 <_Z5test1v+0x91>
  27:	88 44 24 30          	mov    %al,0x30(%rsp)
  2b:	48 8d 7c 24 20       	lea    0x20(%rsp),%rdi
  30:	e8 00 00 00 00       	callq  35 <_Z5test1v+0x35>
  35:	6b 44 24 20 03       	imul   $0x3,0x20(%rsp),%eax
  3a:	89 03                	mov    %eax,(%rbx)
  3c:	c6 43 10 01          	movb   $0x1,0x10(%rbx)
  40:	8a 44 24 30          	mov    0x30(%rsp),%al
  44:	fe c8                	dec    %al
  46:	0f b6 c0             	movzbl %al,%eax
  49:	83 f8 03             	cmp    $0x3,%eax
  4c:	77 16                	ja     64 <_Z5test1v+0x64>
  4e:	ff 24 c5 00 00 00 00 	jmpq   *0x0(,%rax,8)
  55:	48 8d 7c 24 20       	lea    0x20(%rsp),%rdi
  5a:	e8 00 00 00 00       	callq  5f <_Z5test1v+0x5f>
  5f:	c6 44 24 30 00       	movb   $0x0,0x30(%rsp)
  64:	8a 44 24 18          	mov    0x18(%rsp),%al
  68:	fe c8                	dec    %al
  6a:	0f b6 c0             	movzbl %al,%eax
  6d:	83 f8 03             	cmp    $0x3,%eax
  70:	77 16                	ja     88 <_Z5test1v+0x88>
  72:	ff 24 c5 00 00 00 00 	jmpq   *0x0(,%rax,8)
  79:	48 8d 7c 24 08       	lea    0x8(%rsp),%rdi
  7e:	e8 00 00 00 00       	callq  83 <_Z5test1v+0x83>
  83:	c6 44 24 18 00       	movb   $0x0,0x18(%rsp)
  88:	48 89 d8             	mov    %rbx,%rax
  8b:	48 83 c4 40          	add    $0x40,%rsp
  8f:	5b                   	pop    %rbx
  90:	c3                   	retq   
  91:	ff 24 cd 00 00 00 00 	jmpq   *0x0(,%rcx,8)
  98:	8b 44 24 08          	mov    0x8(%rsp),%eax
  9c:	89 44 24 20          	mov    %eax,0x20(%rsp)
  a0:	b0 01                	mov    $0x1,%al
  a2:	eb 83                	jmp    27 <_Z5test1v+0x27>
  a4:	0f 10 44 24 08       	movups 0x8(%rsp),%xmm0
  a9:	0f 29 44 24 20       	movaps %xmm0,0x20(%rsp)
  ae:	b0 02                	mov    $0x2,%al
  b0:	e9 72 ff ff ff       	jmpq   27 <_Z5test1v+0x27>
  b5:	48 8d 7c 24 20       	lea    0x20(%rsp),%rdi
  ba:	48 8d 74 24 08       	lea    0x8(%rsp),%rsi
  bf:	e8 00 00 00 00       	callq  c4 <_Z5test1v+0xc4>
  c4:	8a 44 24 18          	mov    0x18(%rsp),%al
  c8:	e9 5a ff ff ff       	jmpq   27 <_Z5test1v+0x27>
  cd:	48 89 c3             	mov    %rax,%rbx
  d0:	8a 44 24 30          	mov    0x30(%rsp),%al
  d4:	fe c8                	dec    %al
  d6:	0f b6 c0             	movzbl %al,%eax
  d9:	83 f8 03             	cmp    $0x3,%eax
  dc:	77 16                	ja     f4 <_Z5test1v+0xf4>
  de:	ff 24 c5 00 00 00 00 	jmpq   *0x0(,%rax,8)
  e5:	48 8d 7c 24 20       	lea    0x20(%rsp),%rdi
  ea:	e8 00 00 00 00       	callq  ef <_Z5test1v+0xef>
  ef:	c6 44 24 30 00       	movb   $0x0,0x30(%rsp)
  f4:	8a 44 24 18          	mov    0x18(%rsp),%al
  f8:	fe c8                	dec    %al
  fa:	0f b6 c0             	movzbl %al,%eax
  fd:	83 f8 03             	cmp    $0x3,%eax
 100:	77 16                	ja     118 <_Z5test1v+0x118>
 102:	ff 24 c5 00 00 00 00 	jmpq   *0x0(,%rax,8)
 109:	48 8d 7c 24 08       	lea    0x8(%rsp),%rdi
 10e:	e8 00 00 00 00       	callq  113 <_Z5test1v+0x113>
 113:	c6 44 24 18 00       	movb   $0x0,0x18(%rsp)
 118:	48 89 df             	mov    %rbx,%rdi
 11b:	e8 00 00 00 00       	callq  120 <_Z5test1v+0x120>
 120:	e8 00 00 00 00       	callq  125 <_Z5test1v+0x125>
 125:	66 66 2e 0f 1f 84 00 	data32 nopw %cs:0x0(%rax,%rax,1)
 12c:	00 00 00 00 
