      10:	41 57                	push   %r15
      12:	66 0f ef c0          	pxor   %xmm0,%xmm0
      16:	41 56                	push   %r14
      18:	41 55                	push   %r13
      1a:	41 54                	push   %r12
      1c:	55                   	push   %rbp
      1d:	53                   	push   %rbx
      1e:	48 81 ec 48 01 00 00 	sub    $0x148,%rsp
      25:	0f 29 84 24 f0 00 00 	movaps %xmm0,0xf0(%rsp)
      2c:	00 
      2d:	64 48 8b 04 25 28 00 	mov    %fs:0x28,%rax
      34:	00 00 
      36:	48 89 84 24 38 01 00 	mov    %rax,0x138(%rsp)
      3d:	00 
      3e:	31 c0                	xor    %eax,%eax
      40:	0f 29 84 24 00 01 00 	movaps %xmm0,0x100(%rsp)
      47:	00 
      48:	0f 29 44 24 30       	movaps %xmm0,0x30(%rsp)
      4d:	c6 84 24 e0 00 00 00 	movb   $0x0,0xe0(%rsp)
      54:	00 
      55:	c6 84 24 e8 00 00 00 	movb   $0x0,0xe8(%rsp)
      5c:	00 
      5d:	c6 84 24 e9 00 00 00 	movb   $0x0,0xe9(%rsp)
      64:	00 
      65:	0f 1f 00             	nopl   (%rax)
      68:	31 db                	xor    %ebx,%ebx
      6a:	eb 3c                	jmp    a8 <_Z5test2v+0xa8>
      6c:	0f 1f 40 00          	nopl   0x0(%rax)
      70:	48 81 fb f9 00 00 00 	cmp    $0xf9,%rbx
      77:	0f 86 83 00 00 00    	jbe    100 <_Z5test2v+0x100>
      7d:	48 8d bc 24 a0 00 00 	lea    0xa0(%rsp),%rdi
      84:	00 
      85:	31 f6                	xor    %esi,%esi
      87:	48 c7 84 24 a0 00 00 	movq   $0x0,0xa0(%rsp)
      8e:	00 00 00 00 00 
      93:	48 c7 84 24 a8 00 00 	movq   $0xf4240,0xa8(%rsp)
      9a:	00 40 42 0f 00 
      9f:	e8 00 00 00 00       	callq  a4 <_Z5test2v+0xa4>
      a4:	48 83 c3 01          	add    $0x1,%rbx
      a8:	0f b6 84 24 e8 00 00 	movzbl 0xe8(%rsp),%eax
      af:	00 
      b0:	84 c0                	test   %al,%al
      b2:	74 0c                	je     c0 <_Z5test2v+0xc0>
      b4:	48 83 fb 7c          	cmp    $0x7c,%rbx
      b8:	77 b6                	ja     70 <_Z5test2v+0x70>
      ba:	f3 90                	pause  
      bc:	eb e6                	jmp    a4 <_Z5test2v+0xa4>
      be:	66 90                	xchg   %ax,%ax
      c0:	b8 01 00 00 00       	mov    $0x1,%eax
      c5:	89 c2                	mov    %eax,%edx
      c7:	86 94 24 e8 00 00 00 	xchg   %dl,0xe8(%rsp)
      ce:	84 d2                	test   %dl,%dl
      d0:	75 e2                	jne    b4 <_Z5test2v+0xb4>
      d2:	48 8b 94 24 f0 00 00 	mov    0xf0(%rsp),%rdx
      d9:	00 
      da:	48 85 d2             	test   %rdx,%rdx
      dd:	0f 84 7d 00 00 00    	je     160 <_Z5test2v+0x160>
      e3:	0f b6 4a 18          	movzbl 0x18(%rdx),%ecx
      e7:	48 8d 72 18          	lea    0x18(%rdx),%rsi
      eb:	84 c9                	test   %cl,%cl
      ed:	74 21                	je     110 <_Z5test2v+0x110>
      ef:	c6 84 24 e8 00 00 00 	movb   $0x0,0xe8(%rsp)
      f6:	00 
      f7:	e9 6c ff ff ff       	jmpq   68 <_Z5test2v+0x68>
      fc:	0f 1f 40 00          	nopl   0x0(%rax)
     100:	e8 00 00 00 00       	callq  105 <_Z5test2v+0x105>
     105:	eb 9d                	jmp    a4 <_Z5test2v+0xa4>
     107:	66 0f 1f 84 00 00 00 	nopw   0x0(%rax,%rax,1)
     10e:	00 00 
     110:	86 06                	xchg   %al,(%rsi)
     112:	84 c0                	test   %al,%al
     114:	75 d9                	jne    ef <_Z5test2v+0xef>
     116:	48 8d ac 24 d0 00 00 	lea    0xd0(%rsp),%rbp
     11d:	00 
     11e:	48 89 54 24 38       	mov    %rdx,0x38(%rsp)
     123:	48 89 6c 24 30       	mov    %rbp,0x30(%rsp)
     128:	bf 20 00 00 00       	mov    $0x20,%edi
     12d:	e8 00 00 00 00       	callq  132 <_Z5test2v+0x132>
     132:	49 89 c4             	mov    %rax,%r12
     135:	e8 00 00 00 00       	callq  13a <_Z5test2v+0x13a>
     13a:	be 01 00 00 00       	mov    $0x1,%esi
     13f:	48 89 c2             	mov    %rax,%rdx
     142:	4c 89 e7             	mov    %r12,%rdi
     145:	e8 00 00 00 00       	callq  14a <_Z5test2v+0x14a>
     14a:	ba 00 00 00 00       	mov    $0x0,%edx
     14f:	be 00 00 00 00       	mov    $0x0,%esi
     154:	4c 89 e7             	mov    %r12,%rdi
     157:	e8 00 00 00 00       	callq  15c <_Z5test2v+0x15c>
     15c:	0f 1f 40 00          	nopl   0x0(%rax)
     160:	48 83 7c 24 38 00    	cmpq   $0x0,0x38(%rsp)
     166:	48 8d ac 24 d0 00 00 	lea    0xd0(%rsp),%rbp
     16d:	00 
     16e:	48 89 6c 24 30       	mov    %rbp,0x30(%rsp)
     173:	75 b3                	jne    128 <_Z5test2v+0x128>
     175:	80 bc 24 e9 00 00 00 	cmpb   $0x0,0xe9(%rsp)
     17c:	00 
     17d:	75 a9                	jne    128 <_Z5test2v+0x128>
     17f:	0f b6 84 24 e0 00 00 	movzbl 0xe0(%rsp),%eax
     186:	00 
     187:	c6 84 24 80 00 00 00 	movb   $0x0,0x80(%rsp)
     18e:	00 
     18f:	c6 84 24 88 00 00 00 	movb   $0x0,0x88(%rsp)
     196:	00 
     197:	c6 84 24 89 00 00 00 	movb   $0x0,0x89(%rsp)
     19e:	00 
     19f:	48 c7 84 24 90 00 00 	movq   $0x0,0x90(%rsp)
     1a6:	00 00 00 00 00 
     1ab:	84 c0                	test   %al,%al
     1ad:	0f 85 1b 08 00 00    	jne    9ce <_Z5test2v+0x9ce>
     1b3:	4c 8d 64 24 70       	lea    0x70(%rsp),%r12
     1b8:	48 89 ac 24 90 00 00 	mov    %rbp,0x90(%rsp)
     1bf:	00 
     1c0:	4c 89 a4 24 f0 00 00 	mov    %r12,0xf0(%rsp)
     1c7:	00 
     1c8:	c6 84 24 e8 00 00 00 	movb   $0x0,0xe8(%rsp)
     1cf:	00 
     1d0:	48 8b 44 24 38       	mov    0x38(%rsp),%rax
     1d5:	48 c7 44 24 30 00 00 	movq   $0x0,0x30(%rsp)
     1dc:	00 00 
     1de:	48 85 c0             	test   %rax,%rax
     1e1:	74 32                	je     215 <_Z5test2v+0x215>
     1e3:	c6 40 18 00          	movb   $0x0,0x18(%rax)
     1e7:	48 8b 44 24 30       	mov    0x30(%rsp),%rax
     1ec:	48 c7 44 24 38 00 00 	movq   $0x0,0x38(%rsp)
     1f3:	00 00 
     1f5:	48 85 c0             	test   %rax,%rax
     1f8:	74 1b                	je     215 <_Z5test2v+0x215>
     1fa:	c6 40 18 00          	movb   $0x0,0x18(%rax)
     1fe:	48 8b 44 24 38       	mov    0x38(%rsp),%rax
     203:	48 c7 44 24 30 00 00 	movq   $0x0,0x30(%rsp)
     20a:	00 00 
     20c:	48 85 c0             	test   %rax,%rax
     20f:	74 04                	je     215 <_Z5test2v+0x215>
     211:	c6 40 18 00          	movb   $0x0,0x18(%rax)
     215:	48 c7 44 24 40 00 00 	movq   $0x0,0x40(%rsp)
     21c:	00 00 
     21e:	48 c7 44 24 48 00 00 	movq   $0x0,0x48(%rsp)
     225:	00 00 
     227:	66 0f 1f 84 00 00 00 	nopw   0x0(%rax,%rax,1)
     22e:	00 00 
     230:	31 db                	xor    %ebx,%ebx
     232:	eb 3c                	jmp    270 <_Z5test2v+0x270>
     234:	0f 1f 40 00          	nopl   0x0(%rax)
     238:	48 81 fb f9 00 00 00 	cmp    $0xf9,%rbx
     23f:	0f 86 8b 00 00 00    	jbe    2d0 <_Z5test2v+0x2d0>
     245:	48 8d bc 24 a0 00 00 	lea    0xa0(%rsp),%rdi
     24c:	00 
     24d:	31 f6                	xor    %esi,%esi
     24f:	48 c7 84 24 a0 00 00 	movq   $0x0,0xa0(%rsp)
     256:	00 00 00 00 00 
     25b:	48 c7 84 24 a8 00 00 	movq   $0xf4240,0xa8(%rsp)
     262:	00 40 42 0f 00 
     267:	e8 00 00 00 00       	callq  26c <_Z5test2v+0x26c>
     26c:	48 83 c3 01          	add    $0x1,%rbx
     270:	0f b6 84 24 e8 00 00 	movzbl 0xe8(%rsp),%eax
     277:	00 
     278:	84 c0                	test   %al,%al
     27a:	74 14                	je     290 <_Z5test2v+0x290>
     27c:	48 83 fb 7c          	cmp    $0x7c,%rbx
     280:	77 b6                	ja     238 <_Z5test2v+0x238>
     282:	f3 90                	pause  
     284:	eb e6                	jmp    26c <_Z5test2v+0x26c>
     286:	66 2e 0f 1f 84 00 00 	nopw   %cs:0x0(%rax,%rax,1)
     28d:	00 00 00 
     290:	b8 01 00 00 00       	mov    $0x1,%eax
     295:	89 c2                	mov    %eax,%edx
     297:	86 94 24 e8 00 00 00 	xchg   %dl,0xe8(%rsp)
     29e:	84 d2                	test   %dl,%dl
     2a0:	75 da                	jne    27c <_Z5test2v+0x27c>
     2a2:	48 8b 94 24 f0 00 00 	mov    0xf0(%rsp),%rdx
     2a9:	00 
     2aa:	48 85 d2             	test   %rdx,%rdx
     2ad:	0f 84 ee 01 00 00    	je     4a1 <_Z5test2v+0x4a1>
     2b3:	0f b6 4a 18          	movzbl 0x18(%rdx),%ecx
     2b7:	48 8d 72 18          	lea    0x18(%rdx),%rsi
     2bb:	84 c9                	test   %cl,%cl
     2bd:	74 21                	je     2e0 <_Z5test2v+0x2e0>
     2bf:	c6 84 24 e8 00 00 00 	movb   $0x0,0xe8(%rsp)
     2c6:	00 
     2c7:	e9 64 ff ff ff       	jmpq   230 <_Z5test2v+0x230>
     2cc:	0f 1f 40 00          	nopl   0x0(%rax)
     2d0:	e8 00 00 00 00       	callq  2d5 <_Z5test2v+0x2d5>
     2d5:	eb 95                	jmp    26c <_Z5test2v+0x26c>
     2d7:	66 0f 1f 84 00 00 00 	nopw   0x0(%rax,%rax,1)
     2de:	00 00 
     2e0:	86 06                	xchg   %al,(%rsi)
     2e2:	84 c0                	test   %al,%al
     2e4:	75 d9                	jne    2bf <_Z5test2v+0x2bf>
     2e6:	80 bc 24 e9 00 00 00 	cmpb   $0x0,0xe9(%rsp)
     2ed:	00 
     2ee:	48 89 6c 24 40       	mov    %rbp,0x40(%rsp)
     2f3:	48 89 54 24 48       	mov    %rdx,0x48(%rsp)
     2f8:	0f 85 08 07 00 00    	jne    a06 <_Z5test2v+0xa06>
     2fe:	80 7a 10 00          	cmpb   $0x0,0x10(%rdx)
     302:	0f 85 90 0d 00 00    	jne    1098 <_Z5test2v+0x1098>
     308:	48 8b 84 24 f8 00 00 	mov    0xf8(%rsp),%rax
     30f:	00 
     310:	48 85 c0             	test   %rax,%rax
     313:	0f 84 0a 08 00 00    	je     b23 <_Z5test2v+0xb23>
     319:	c7 00 05 00 00 00    	movl   $0x5,(%rax)
     31f:	c6 40 10 01          	movb   $0x1,0x10(%rax)
     323:	48 8b 84 24 f8 00 00 	mov    0xf8(%rsp),%rax
     32a:	00 
     32b:	c6 84 24 e9 00 00 00 	movb   $0x1,0xe9(%rsp)
     332:	01 
     333:	48 89 44 24 50       	mov    %rax,0x50(%rsp)
     338:	48 8b 84 24 00 01 00 	mov    0x100(%rsp),%rax
     33f:	00 
     340:	48 c7 84 24 00 01 00 	movq   $0x0,0x100(%rsp)
     347:	00 00 00 00 00 
     34c:	48 89 44 24 58       	mov    %rax,0x58(%rsp)
     351:	48 8b 84 24 08 01 00 	mov    0x108(%rsp),%rax
     358:	00 
     359:	48 c7 84 24 08 01 00 	movq   $0x0,0x108(%rsp)
     360:	00 00 00 00 00 
     365:	48 89 44 24 60       	mov    %rax,0x60(%rsp)
     36a:	48 8b 44 24 48       	mov    0x48(%rsp),%rax
     36f:	48 c7 40 20 00 00 00 	movq   $0x0,0x20(%rax)
     376:	00 
     377:	48 8b 54 24 40       	mov    0x40(%rsp),%rdx
     37c:	48 c7 84 24 f0 00 00 	movq   $0x0,0xf0(%rsp)
     383:	00 00 00 00 00 
     388:	48 85 d2             	test   %rdx,%rdx
     38b:	74 17                	je     3a4 <_Z5test2v+0x3a4>
     38d:	c6 42 18 00          	movb   $0x0,0x18(%rdx)
     391:	48 8b 44 24 48       	mov    0x48(%rsp),%rax
     396:	48 c7 44 24 40 00 00 	movq   $0x0,0x40(%rsp)
     39d:	00 00 
     39f:	48 85 c0             	test   %rax,%rax
     3a2:	74 0d                	je     3b1 <_Z5test2v+0x3b1>
     3a4:	c6 40 18 00          	movb   $0x0,0x18(%rax)
     3a8:	48 c7 44 24 48 00 00 	movq   $0x0,0x48(%rsp)
     3af:	00 00 
     3b1:	48 8b 7c 24 58       	mov    0x58(%rsp),%rdi
     3b6:	48 85 ff             	test   %rdi,%rdi
     3b9:	0f 84 51 07 00 00    	je     b10 <_Z5test2v+0xb10>
     3bf:	48 8b 44 24 50       	mov    0x50(%rsp),%rax
     3c4:	48 8d 74 24 28       	lea    0x28(%rsp),%rsi
     3c9:	48 89 44 24 28       	mov    %rax,0x28(%rsp)
     3ce:	48 8b 07             	mov    (%rdi),%rax
     3d1:	ff 50 10             	callq  *0x10(%rax)
     3d4:	48 8b 44 24 60       	mov    0x60(%rsp),%rax
     3d9:	48 85 c0             	test   %rax,%rax
     3dc:	0f 84 5e 01 00 00    	je     540 <_Z5test2v+0x540>
     3e2:	48 8b 00             	mov    (%rax),%rax
     3e5:	48 c7 84 24 28 01 00 	movq   $0x0,0x128(%rsp)
     3ec:	00 00 00 00 00 
     3f1:	48 8d 94 24 a0 00 00 	lea    0xa0(%rsp),%rdx
     3f8:	00 
     3f9:	48 c7 84 24 20 01 00 	movq   $0x0,0x120(%rsp)
     400:	00 00 00 00 00 
     405:	4c 8d ac 24 10 01 00 	lea    0x110(%rsp),%r13
     40c:	00 
     40d:	48 89 84 24 10 01 00 	mov    %rax,0x110(%rsp)
     414:	00 
     415:	48 8b 18             	mov    (%rax),%rbx
     418:	48 8d 44 24 07       	lea    0x7(%rsp),%rax
     41d:	c6 44 24 07 00       	movb   $0x0,0x7(%rsp)
     422:	4c 89 ac 24 a8 00 00 	mov    %r13,0xa8(%rsp)
     429:	00 
     42a:	48 89 84 24 a0 00 00 	mov    %rax,0xa0(%rsp)
     431:	00 
     432:	48 8b 05 00 00 00 00 	mov    0x0(%rip),%rax        # 439 <_Z5test2v+0x439>
     439:	48 89 9c 24 b0 00 00 	mov    %rbx,0xb0(%rsp)
     440:	00 
     441:	48 c7 84 24 b8 00 00 	movq   $0x0,0xb8(%rsp)
     448:	00 00 00 00 00 
     44d:	48 c7 84 24 c0 00 00 	movq   $0x0,0xc0(%rsp)
     454:	00 00 00 00 00 
     459:	64 48 89 10          	mov    %rdx,%fs:(%rax)
     45d:	48 8b 05 00 00 00 00 	mov    0x0(%rip),%rax        # 464 <_Z5test2v+0x464>
     464:	64 48 c7 00 00 00 00 	movq   $0x0,%fs:(%rax)
     46b:	00 
     46c:	b8 00 00 00 00       	mov    $0x0,%eax
     471:	48 85 c0             	test   %rax,%rax
     474:	0f 84 89 06 00 00    	je     b03 <_Z5test2v+0xb03>
     47a:	48 8d 7b 18          	lea    0x18(%rbx),%rdi
     47e:	be 00 00 00 00       	mov    $0x0,%esi
     483:	e8 00 00 00 00       	callq  488 <_Z5test2v+0x488>
     488:	85 c0                	test   %eax,%eax
     48a:	0f 85 78 06 00 00    	jne    b08 <_Z5test2v+0xb08>
     490:	80 7c 24 07 00       	cmpb   $0x0,0x7(%rsp)
     495:	75 51                	jne    4e8 <_Z5test2v+0x4e8>
     497:	bf 02 00 00 00       	mov    $0x2,%edi
     49c:	e8 00 00 00 00       	callq  4a1 <_Z5test2v+0x4a1>
     4a1:	80 bc 24 e9 00 00 00 	cmpb   $0x0,0xe9(%rsp)
     4a8:	00 
     4a9:	48 89 6c 24 40       	mov    %rbp,0x40(%rsp)
     4ae:	0f 85 52 05 00 00    	jne    a06 <_Z5test2v+0xa06>
     4b4:	48 8b 54 24 48       	mov    0x48(%rsp),%rdx
     4b9:	48 85 d2             	test   %rdx,%rdx
     4bc:	0f 85 3c fe ff ff    	jne    2fe <_Z5test2v+0x2fe>
     4c2:	80 bc 24 e0 00 00 00 	cmpb   $0x0,0xe0(%rsp)
     4c9:	00 
     4ca:	0f 85 96 0b 00 00    	jne    1066 <_Z5test2v+0x1066>
     4d0:	c7 84 24 d0 00 00 00 	movl   $0x5,0xd0(%rsp)
     4d7:	05 00 00 00 
     4db:	c6 84 24 e0 00 00 00 	movb   $0x1,0xe0(%rsp)
     4e2:	01 
     4e3:	48 89 e8             	mov    %rbp,%rax
     4e6:	eb 72                	jmp    55a <_Z5test2v+0x55a>
     4e8:	48 8d 7b 10          	lea    0x10(%rbx),%rdi
     4ec:	b8 01 00 00 00       	mov    $0x1,%eax
     4f1:	87 07                	xchg   %eax,(%rdi)
     4f3:	85 c0                	test   %eax,%eax
     4f5:	0f 88 7b 0a 00 00    	js     f76 <_Z5test2v+0xf76>
     4fb:	48 8b 84 24 20 01 00 	mov    0x120(%rsp),%rax
     502:	00 
     503:	48 85 c0             	test   %rax,%rax
     506:	74 0d                	je     515 <_Z5test2v+0x515>
     508:	ba 03 00 00 00       	mov    $0x3,%edx
     50d:	4c 89 ee             	mov    %r13,%rsi
     510:	4c 89 ef             	mov    %r13,%rdi
     513:	ff d0                	callq  *%rax
     515:	4c 8b 6c 24 60       	mov    0x60(%rsp),%r13
     51a:	4d 85 ed             	test   %r13,%r13
     51d:	74 21                	je     540 <_Z5test2v+0x540>
     51f:	49 8b 5d 08          	mov    0x8(%r13),%rbx
     523:	48 85 db             	test   %rbx,%rbx
     526:	74 0b                	je     533 <_Z5test2v+0x533>
     528:	f0 83 6b 08 01       	lock subl $0x1,0x8(%rbx)
     52d:	0f 84 ae 07 00 00    	je     ce1 <_Z5test2v+0xce1>
     533:	be 10 00 00 00       	mov    $0x10,%esi
     538:	4c 89 ef             	mov    %r13,%rdi
     53b:	e8 00 00 00 00       	callq  540 <_Z5test2v+0x540>
     540:	48 8b 7c 24 58       	mov    0x58(%rsp),%rdi
     545:	48 85 ff             	test   %rdi,%rdi
     548:	74 06                	je     550 <_Z5test2v+0x550>
     54a:	48 8b 07             	mov    (%rdi),%rax
     54d:	ff 50 08             	callq  *0x8(%rax)
     550:	48 8b 44 24 40       	mov    0x40(%rsp),%rax
     555:	48 85 c0             	test   %rax,%rax
     558:	74 0d                	je     567 <_Z5test2v+0x567>
     55a:	c6 40 18 00          	movb   $0x0,0x18(%rax)
     55e:	48 c7 44 24 40 00 00 	movq   $0x0,0x40(%rsp)
     565:	00 00 
     567:	48 8b 44 24 48       	mov    0x48(%rsp),%rax
     56c:	48 85 c0             	test   %rax,%rax
     56f:	74 04                	je     575 <_Z5test2v+0x575>
     571:	c6 40 18 00          	movb   $0x0,0x18(%rax)
     575:	80 bc 24 80 00 00 00 	cmpb   $0x0,0x80(%rsp)
     57c:	00 
     57d:	0f 84 b2 04 00 00    	je     a35 <_Z5test2v+0xa35>
     583:	48 c7 44 24 50 00 00 	movq   $0x0,0x50(%rsp)
     58a:	00 00 
     58c:	48 c7 44 24 58 00 00 	movq   $0x0,0x58(%rsp)
     593:	00 00 
     595:	0f 1f 00             	nopl   (%rax)
     598:	31 db                	xor    %ebx,%ebx
     59a:	eb 3c                	jmp    5d8 <_Z5test2v+0x5d8>
     59c:	0f 1f 40 00          	nopl   0x0(%rax)
     5a0:	48 81 fb f9 00 00 00 	cmp    $0xf9,%rbx
     5a7:	0f 86 83 00 00 00    	jbe    630 <_Z5test2v+0x630>
     5ad:	48 8d bc 24 a0 00 00 	lea    0xa0(%rsp),%rdi
     5b4:	00 
     5b5:	31 f6                	xor    %esi,%esi
     5b7:	48 c7 84 24 a0 00 00 	movq   $0x0,0xa0(%rsp)
     5be:	00 00 00 00 00 
     5c3:	48 c7 84 24 a8 00 00 	movq   $0xf4240,0xa8(%rsp)
     5ca:	00 40 42 0f 00 
     5cf:	e8 00 00 00 00       	callq  5d4 <_Z5test2v+0x5d4>
     5d4:	48 83 c3 01          	add    $0x1,%rbx
     5d8:	0f b6 84 24 88 00 00 	movzbl 0x88(%rsp),%eax
     5df:	00 
     5e0:	84 c0                	test   %al,%al
     5e2:	74 0c                	je     5f0 <_Z5test2v+0x5f0>
     5e4:	48 83 fb 7c          	cmp    $0x7c,%rbx
     5e8:	77 b6                	ja     5a0 <_Z5test2v+0x5a0>
     5ea:	f3 90                	pause  
     5ec:	eb e6                	jmp    5d4 <_Z5test2v+0x5d4>
     5ee:	66 90                	xchg   %ax,%ax
     5f0:	b8 01 00 00 00       	mov    $0x1,%eax
     5f5:	89 c2                	mov    %eax,%edx
     5f7:	86 94 24 88 00 00 00 	xchg   %dl,0x88(%rsp)
     5fe:	84 d2                	test   %dl,%dl
     600:	75 e2                	jne    5e4 <_Z5test2v+0x5e4>
     602:	48 8b 94 24 90 00 00 	mov    0x90(%rsp),%rdx
     609:	00 
     60a:	48 85 d2             	test   %rdx,%rdx
     60d:	0f 84 b1 03 00 00    	je     9c4 <_Z5test2v+0x9c4>
     613:	0f b6 4a 18          	movzbl 0x18(%rdx),%ecx
     617:	48 8d 72 18          	lea    0x18(%rdx),%rsi
     61b:	84 c9                	test   %cl,%cl
     61d:	74 21                	je     640 <_Z5test2v+0x640>
     61f:	c6 84 24 88 00 00 00 	movb   $0x0,0x88(%rsp)
     626:	00 
     627:	e9 6c ff ff ff       	jmpq   598 <_Z5test2v+0x598>
     62c:	0f 1f 40 00          	nopl   0x0(%rax)
     630:	e8 00 00 00 00       	callq  635 <_Z5test2v+0x635>
     635:	eb 9d                	jmp    5d4 <_Z5test2v+0x5d4>
     637:	66 0f 1f 84 00 00 00 	nopw   0x0(%rax,%rax,1)
     63e:	00 00 
     640:	86 06                	xchg   %al,(%rsi)
     642:	84 c0                	test   %al,%al
     644:	75 d9                	jne    61f <_Z5test2v+0x61f>
     646:	48 89 54 24 50       	mov    %rdx,0x50(%rsp)
     64b:	4c 89 64 24 58       	mov    %r12,0x58(%rsp)
     650:	80 bc 24 89 00 00 00 	cmpb   $0x0,0x89(%rsp)
     657:	00 
     658:	0f 85 1d 0b 00 00    	jne    117b <_Z5test2v+0x117b>
     65e:	48 83 bc 24 90 00 00 	cmpq   $0x0,0x90(%rsp)
     665:	00 00 
     667:	0f b6 84 24 80 00 00 	movzbl 0x80(%rsp),%eax
     66e:	00 
     66f:	0f 84 bd 04 00 00    	je     b32 <_Z5test2v+0xb32>
     675:	3c 02                	cmp    $0x2,%al
     677:	0f 84 1c 05 00 00    	je     b99 <_Z5test2v+0xb99>
     67d:	3c 03                	cmp    $0x3,%al
     67f:	75 4f                	jne    6d0 <_Z5test2v+0x6d0>
     681:	4c 8d 74 24 40       	lea    0x40(%rsp),%r14
     686:	4c 89 e6             	mov    %r12,%rsi
     689:	4c 89 f7             	mov    %r14,%rdi
     68c:	e8 00 00 00 00       	callq  691 <_Z5test2v+0x691>
     691:	0f b6 84 24 80 00 00 	movzbl 0x80(%rsp),%eax
     698:	00 
     699:	3c 02                	cmp    $0x2,%al
     69b:	0f 84 b8 06 00 00    	je     d59 <_Z5test2v+0xd59>
     6a1:	3c 03                	cmp    $0x3,%al
     6a3:	0f 84 a8 06 00 00    	je     d51 <_Z5test2v+0xd51>
     6a9:	3c 01                	cmp    $0x1,%al
     6ab:	0f 84 a8 06 00 00    	je     d59 <_Z5test2v+0xd59>
     6b1:	48 8d bc 24 a0 00 00 	lea    0xa0(%rsp),%rdi
     6b8:	00 
     6b9:	4c 89 f6             	mov    %r14,%rsi
     6bc:	e8 00 00 00 00       	callq  6c1 <_Z5test2v+0x6c1>
     6c1:	48 8d bc 24 a0 00 00 	lea    0xa0(%rsp),%rdi
     6c8:	00 
     6c9:	e8 00 00 00 00       	callq  6ce <_Z5test2v+0x6ce>
     6ce:	66 90                	xchg   %ax,%ax
     6d0:	3c 01                	cmp    $0x1,%al
     6d2:	44 8b 6c 24 70       	mov    0x70(%rsp),%r13d
     6d7:	75 08                	jne    6e1 <_Z5test2v+0x6e1>
     6d9:	c6 84 24 80 00 00 00 	movb   $0x0,0x80(%rsp)
     6e0:	00 
     6e1:	48 8b 44 24 50       	mov    0x50(%rsp),%rax
     6e6:	48 85 c0             	test   %rax,%rax
     6e9:	74 0d                	je     6f8 <_Z5test2v+0x6f8>
     6eb:	c6 40 18 00          	movb   $0x0,0x18(%rax)
     6ef:	48 c7 44 24 50 00 00 	movq   $0x0,0x50(%rsp)
     6f6:	00 00 
     6f8:	48 8b 44 24 58       	mov    0x58(%rsp),%rax
     6fd:	48 85 c0             	test   %rax,%rax
     700:	74 04                	je     706 <_Z5test2v+0x706>
     702:	c6 40 18 00          	movb   $0x0,0x18(%rax)
     706:	48 83 bc 24 90 00 00 	cmpq   $0x0,0x90(%rsp)
     70d:	00 00 
     70f:	0f 84 2d 03 00 00    	je     a42 <_Z5test2v+0xa42>
     715:	0f 1f 00             	nopl   (%rax)
     718:	31 db                	xor    %ebx,%ebx
     71a:	eb 3c                	jmp    758 <_Z5test2v+0x758>
     71c:	0f 1f 40 00          	nopl   0x0(%rax)
     720:	48 81 fb f9 00 00 00 	cmp    $0xf9,%rbx
     727:	0f 86 83 00 00 00    	jbe    7b0 <_Z5test2v+0x7b0>
     72d:	48 8d bc 24 a0 00 00 	lea    0xa0(%rsp),%rdi
     734:	00 
     735:	31 f6                	xor    %esi,%esi
     737:	48 c7 84 24 a0 00 00 	movq   $0x0,0xa0(%rsp)
     73e:	00 00 00 00 00 
     743:	48 c7 84 24 a8 00 00 	movq   $0xf4240,0xa8(%rsp)
     74a:	00 40 42 0f 00 
     74f:	e8 00 00 00 00       	callq  754 <_Z5test2v+0x754>
     754:	48 83 c3 01          	add    $0x1,%rbx
     758:	0f b6 84 24 88 00 00 	movzbl 0x88(%rsp),%eax
     75f:	00 
     760:	84 c0                	test   %al,%al
     762:	74 0c                	je     770 <_Z5test2v+0x770>
     764:	48 83 fb 7c          	cmp    $0x7c,%rbx
     768:	77 b6                	ja     720 <_Z5test2v+0x720>
     76a:	f3 90                	pause  
     76c:	eb e6                	jmp    754 <_Z5test2v+0x754>
     76e:	66 90                	xchg   %ax,%ax
     770:	b8 01 00 00 00       	mov    $0x1,%eax
     775:	89 c2                	mov    %eax,%edx
     777:	86 94 24 88 00 00 00 	xchg   %dl,0x88(%rsp)
     77e:	84 d2                	test   %dl,%dl
     780:	75 e2                	jne    764 <_Z5test2v+0x764>
     782:	48 8b 9c 24 90 00 00 	mov    0x90(%rsp),%rbx
     789:	00 
     78a:	48 85 db             	test   %rbx,%rbx
     78d:	0f 84 7d 02 00 00    	je     a10 <_Z5test2v+0xa10>
     793:	0f b6 53 18          	movzbl 0x18(%rbx),%edx
     797:	48 8d 4b 18          	lea    0x18(%rbx),%rcx
     79b:	84 d2                	test   %dl,%dl
     79d:	74 18                	je     7b7 <_Z5test2v+0x7b7>
     79f:	c6 84 24 88 00 00 00 	movb   $0x0,0x88(%rsp)
     7a6:	00 
     7a7:	e9 6c ff ff ff       	jmpq   718 <_Z5test2v+0x718>
     7ac:	0f 1f 40 00          	nopl   0x0(%rax)
     7b0:	e8 00 00 00 00       	callq  7b5 <_Z5test2v+0x7b5>
     7b5:	eb 9d                	jmp    754 <_Z5test2v+0x754>
     7b7:	86 01                	xchg   %al,(%rcx)
     7b9:	84 c0                	test   %al,%al
     7bb:	75 e2                	jne    79f <_Z5test2v+0x79f>
     7bd:	48 8b 84 24 90 00 00 	mov    0x90(%rsp),%rax
     7c4:	00 
     7c5:	48 85 c0             	test   %rax,%rax
     7c8:	74 18                	je     7e2 <_Z5test2v+0x7e2>
     7ca:	48 c7 40 20 00 00 00 	movq   $0x0,0x20(%rax)
     7d1:	00 
     7d2:	c6 40 19 01          	movb   $0x1,0x19(%rax)
     7d6:	48 c7 84 24 90 00 00 	movq   $0x0,0x90(%rsp)
     7dd:	00 00 00 00 00 
     7e2:	0f b6 84 24 80 00 00 	movzbl 0x80(%rsp),%eax
     7e9:	00 
     7ea:	3c 02                	cmp    $0x2,%al
     7ec:	74 10                	je     7fe <_Z5test2v+0x7fe>
     7ee:	3c 03                	cmp    $0x3,%al
     7f0:	0f 85 bf 04 00 00    	jne    cb5 <_Z5test2v+0xcb5>
     7f6:	4c 89 e7             	mov    %r12,%rdi
     7f9:	e8 00 00 00 00       	callq  7fe <_Z5test2v+0x7fe>
     7fe:	48 85 db             	test   %rbx,%rbx
     801:	c6 84 24 80 00 00 00 	movb   $0x0,0x80(%rsp)
     808:	00 
     809:	74 04                	je     80f <_Z5test2v+0x80f>
     80b:	c6 43 18 00          	movb   $0x0,0x18(%rbx)
     80f:	c6 84 24 88 00 00 00 	movb   $0x0,0x88(%rsp)
     816:	00 
     817:	80 bc 24 80 00 00 00 	cmpb   $0x3,0x80(%rsp)
     81e:	03 
     81f:	0f 84 8b 02 00 00    	je     ab0 <_Z5test2v+0xab0>
     825:	80 bc 24 e9 00 00 00 	cmpb   $0x0,0xe9(%rsp)
     82c:	00 
     82d:	0f 84 c4 00 00 00    	je     8f7 <_Z5test2v+0x8f7>
     833:	4c 8b a4 24 08 01 00 	mov    0x108(%rsp),%r12
     83a:	00 
     83b:	4d 85 e4             	test   %r12,%r12
     83e:	74 30                	je     870 <_Z5test2v+0x870>
     840:	49 8b 5c 24 08       	mov    0x8(%r12),%rbx
     845:	48 85 db             	test   %rbx,%rbx
     848:	74 19                	je     863 <_Z5test2v+0x863>
     84a:	b8 00 00 00 00       	mov    $0x0,%eax
     84f:	48 85 c0             	test   %rax,%rax
     852:	0f 84 18 03 00 00    	je     b70 <_Z5test2v+0xb70>
     858:	f0 83 6b 08 01       	lock subl $0x1,0x8(%rbx)
     85d:	0f 84 1e 02 00 00    	je     a81 <_Z5test2v+0xa81>
     863:	be 10 00 00 00       	mov    $0x10,%esi
     868:	4c 89 e7             	mov    %r12,%rdi
     86b:	e8 00 00 00 00       	callq  870 <_Z5test2v+0x870>
     870:	48 8b bc 24 00 01 00 	mov    0x100(%rsp),%rdi
     877:	00 
     878:	48 85 ff             	test   %rdi,%rdi
     87b:	74 06                	je     883 <_Z5test2v+0x883>
     87d:	48 8b 07             	mov    (%rdi),%rax
     880:	ff 50 08             	callq  *0x8(%rax)
     883:	80 bc 24 e0 00 00 00 	cmpb   $0x3,0xe0(%rsp)
     88a:	03 
     88b:	0f 84 2c 02 00 00    	je     abd <_Z5test2v+0xabd>
     891:	48 8b 8c 24 38 01 00 	mov    0x138(%rsp),%rcx
     898:	00 
     899:	64 48 33 0c 25 28 00 	xor    %fs:0x28,%rcx
     8a0:	00 00 
     8a2:	44 89 e8             	mov    %r13d,%eax
     8a5:	0f 85 c3 08 00 00    	jne    116e <_Z5test2v+0x116e>
     8ab:	48 81 c4 48 01 00 00 	add    $0x148,%rsp
     8b2:	5b                   	pop    %rbx
     8b3:	5d                   	pop    %rbp
     8b4:	41 5c                	pop    %r12
     8b6:	41 5d                	pop    %r13
     8b8:	41 5e                	pop    %r14
     8ba:	41 5f                	pop    %r15
     8bc:	c3                   	retq   
     8bd:	0f 1f 00             	nopl   (%rax)
     8c0:	b8 01 00 00 00       	mov    $0x1,%eax
     8c5:	89 c2                	mov    %eax,%edx
     8c7:	86 94 24 e8 00 00 00 	xchg   %dl,0xe8(%rsp)
     8ce:	84 d2                	test   %dl,%dl
     8d0:	75 6e                	jne    940 <_Z5test2v+0x940>
     8d2:	48 8b 9c 24 f0 00 00 	mov    0xf0(%rsp),%rbx
     8d9:	00 
     8da:	48 85 db             	test   %rbx,%rbx
     8dd:	0f 84 e7 01 00 00    	je     aca <_Z5test2v+0xaca>
     8e3:	0f b6 53 18          	movzbl 0x18(%rbx),%edx
     8e7:	48 8d 4b 18          	lea    0x18(%rbx),%rcx
     8eb:	84 d2                	test   %dl,%dl
     8ed:	74 68                	je     957 <_Z5test2v+0x957>
     8ef:	c6 84 24 e8 00 00 00 	movb   $0x0,0xe8(%rsp)
     8f6:	00 
     8f7:	31 db                	xor    %ebx,%ebx
     8f9:	eb 39                	jmp    934 <_Z5test2v+0x934>
     8fb:	0f 1f 44 00 00       	nopl   0x0(%rax,%rax,1)
     900:	48 81 fb f9 00 00 00 	cmp    $0xf9,%rbx
     907:	76 47                	jbe    950 <_Z5test2v+0x950>
     909:	48 8d bc 24 a0 00 00 	lea    0xa0(%rsp),%rdi
     910:	00 
     911:	31 f6                	xor    %esi,%esi
     913:	48 c7 84 24 a0 00 00 	movq   $0x0,0xa0(%rsp)
     91a:	00 00 00 00 00 
     91f:	48 c7 84 24 a8 00 00 	movq   $0xf4240,0xa8(%rsp)
     926:	00 40 42 0f 00 
     92b:	e8 00 00 00 00       	callq  930 <_Z5test2v+0x930>
     930:	48 83 c3 01          	add    $0x1,%rbx
     934:	0f b6 84 24 e8 00 00 	movzbl 0xe8(%rsp),%eax
     93b:	00 
     93c:	84 c0                	test   %al,%al
     93e:	74 80                	je     8c0 <_Z5test2v+0x8c0>
     940:	48 83 fb 7c          	cmp    $0x7c,%rbx
     944:	77 ba                	ja     900 <_Z5test2v+0x900>
     946:	f3 90                	pause  
     948:	eb e6                	jmp    930 <_Z5test2v+0x930>
     94a:	66 0f 1f 44 00 00    	nopw   0x0(%rax,%rax,1)
     950:	e8 00 00 00 00       	callq  955 <_Z5test2v+0x955>
     955:	eb d9                	jmp    930 <_Z5test2v+0x930>
     957:	86 01                	xchg   %al,(%rcx)
     959:	84 c0                	test   %al,%al
     95b:	75 92                	jne    8ef <_Z5test2v+0x8ef>
     95d:	0f b6 84 24 e0 00 00 	movzbl 0xe0(%rsp),%eax
     964:	00 
     965:	c6 43 19 01          	movb   $0x1,0x19(%rbx)
     969:	48 c7 43 20 00 00 00 	movq   $0x0,0x20(%rbx)
     970:	00 
     971:	48 c7 84 24 f0 00 00 	movq   $0x0,0xf0(%rsp)
     978:	00 00 00 00 00 
     97d:	3c 02                	cmp    $0x2,%al
     97f:	74 21                	je     9a2 <_Z5test2v+0x9a2>
     981:	3c 03                	cmp    $0x3,%al
     983:	74 15                	je     99a <_Z5test2v+0x99a>
     985:	3c 01                	cmp    $0x1,%al
     987:	74 19                	je     9a2 <_Z5test2v+0x9a2>
     989:	c6 84 24 e8 00 00 00 	movb   $0x0,0xe8(%rsp)
     990:	00 
     991:	c6 43 18 00          	movb   $0x0,0x18(%rbx)
     995:	e9 99 fe ff ff       	jmpq   833 <_Z5test2v+0x833>
     99a:	48 89 ef             	mov    %rbp,%rdi
     99d:	e8 00 00 00 00       	callq  9a2 <_Z5test2v+0x9a2>
     9a2:	48 85 db             	test   %rbx,%rbx
     9a5:	c6 84 24 e0 00 00 00 	movb   $0x0,0xe0(%rsp)
     9ac:	00 
     9ad:	c6 84 24 e8 00 00 00 	movb   $0x0,0xe8(%rsp)
     9b4:	00 
     9b5:	0f 84 78 fe ff ff    	je     833 <_Z5test2v+0x833>
     9bb:	c6 43 18 00          	movb   $0x0,0x18(%rbx)
     9bf:	e9 6f fe ff ff       	jmpq   833 <_Z5test2v+0x833>
     9c4:	4c 89 64 24 58       	mov    %r12,0x58(%rsp)
     9c9:	e9 82 fc ff ff       	jmpq   650 <_Z5test2v+0x650>
     9ce:	3c 02                	cmp    $0x2,%al
     9d0:	0f 84 ec 02 00 00    	je     cc2 <_Z5test2v+0xcc2>
     9d6:	3c 03                	cmp    $0x3,%al
     9d8:	0f 84 85 00 00 00    	je     a63 <_Z5test2v+0xa63>
     9de:	3c 01                	cmp    $0x1,%al
     9e0:	75 0b                	jne    9ed <_Z5test2v+0x9ed>
     9e2:	8b 94 24 d0 00 00 00 	mov    0xd0(%rsp),%edx
     9e9:	89 54 24 70          	mov    %edx,0x70(%rsp)
     9ed:	88 84 24 80 00 00 00 	mov    %al,0x80(%rsp)
     9f4:	c6 84 24 e9 00 00 00 	movb   $0x1,0xe9(%rsp)
     9fb:	01 
     9fc:	4c 8d 64 24 70       	lea    0x70(%rsp),%r12
     a01:	e9 c2 f7 ff ff       	jmpq   1c8 <_Z5test2v+0x1c8>
     a06:	bf 01 00 00 00       	mov    $0x1,%edi
     a0b:	e8 00 00 00 00       	callq  a10 <_Z5test2v+0xa10>
     a10:	0f b6 84 24 80 00 00 	movzbl 0x80(%rsp),%eax
     a17:	00 
     a18:	3c 02                	cmp    $0x2,%al
     a1a:	0f 84 de fd ff ff    	je     7fe <_Z5test2v+0x7fe>
     a20:	3c 03                	cmp    $0x3,%al
     a22:	0f 84 ce fd ff ff    	je     7f6 <_Z5test2v+0x7f6>
     a28:	3c 01                	cmp    $0x1,%al
     a2a:	0f 85 df fd ff ff    	jne    80f <_Z5test2v+0x80f>
     a30:	e9 c9 fd ff ff       	jmpq   7fe <_Z5test2v+0x7fe>
     a35:	4c 89 e7             	mov    %r12,%rdi
     a38:	e8 00 00 00 00       	callq  a3d <_Z5test2v+0xa3d>
     a3d:	e9 41 fb ff ff       	jmpq   583 <_Z5test2v+0x583>
     a42:	80 bc 24 80 00 00 00 	cmpb   $0x0,0x80(%rsp)
     a49:	00 
     a4a:	0f 85 c8 fc ff ff    	jne    718 <_Z5test2v+0x718>
     a50:	80 bc 24 89 00 00 00 	cmpb   $0x0,0x89(%rsp)
     a57:	00 
     a58:	0f 84 c7 fd ff ff    	je     825 <_Z5test2v+0x825>
     a5e:	e9 b5 fc ff ff       	jmpq   718 <_Z5test2v+0x718>
     a63:	48 8b 94 24 d0 00 00 	mov    0xd0(%rsp),%rdx
     a6a:	00 
     a6b:	48 c7 84 24 d0 00 00 	movq   $0x0,0xd0(%rsp)
     a72:	00 00 00 00 00 
     a77:	48 89 54 24 70       	mov    %rdx,0x70(%rsp)
     a7c:	e9 6c ff ff ff       	jmpq   9ed <_Z5test2v+0x9ed>
     a81:	48 8b 03             	mov    (%rbx),%rax
     a84:	48 89 df             	mov    %rbx,%rdi
     a87:	ff 50 10             	callq  *0x10(%rax)
     a8a:	b8 ff ff ff ff       	mov    $0xffffffff,%eax
     a8f:	f0 0f c1 43 0c       	lock xadd %eax,0xc(%rbx)
     a94:	83 f8 01             	cmp    $0x1,%eax
     a97:	0f 85 c6 fd ff ff    	jne    863 <_Z5test2v+0x863>
     a9d:	48 8b 03             	mov    (%rbx),%rax
     aa0:	48 89 df             	mov    %rbx,%rdi
     aa3:	ff 50 18             	callq  *0x18(%rax)
     aa6:	e9 b8 fd ff ff       	jmpq   863 <_Z5test2v+0x863>
     aab:	0f 1f 44 00 00       	nopl   0x0(%rax,%rax,1)
     ab0:	4c 89 e7             	mov    %r12,%rdi
     ab3:	e8 00 00 00 00       	callq  ab8 <_Z5test2v+0xab8>
     ab8:	e9 68 fd ff ff       	jmpq   825 <_Z5test2v+0x825>
     abd:	48 89 ef             	mov    %rbp,%rdi
     ac0:	e8 00 00 00 00       	callq  ac5 <_Z5test2v+0xac5>
     ac5:	e9 c7 fd ff ff       	jmpq   891 <_Z5test2v+0x891>
     aca:	0f b6 84 24 e0 00 00 	movzbl 0xe0(%rsp),%eax
     ad1:	00 
     ad2:	48 c7 84 24 f0 00 00 	movq   $0x0,0xf0(%rsp)
     ad9:	00 00 00 00 00 
     ade:	3c 02                	cmp    $0x2,%al
     ae0:	0f 84 bc fe ff ff    	je     9a2 <_Z5test2v+0x9a2>
     ae6:	3c 03                	cmp    $0x3,%al
     ae8:	0f 84 ac fe ff ff    	je     99a <_Z5test2v+0x99a>
     aee:	3c 01                	cmp    $0x1,%al
     af0:	0f 84 ac fe ff ff    	je     9a2 <_Z5test2v+0x9a2>
     af6:	c6 84 24 e8 00 00 00 	movb   $0x0,0xe8(%rsp)
     afd:	00 
     afe:	e9 30 fd ff ff       	jmpq   833 <_Z5test2v+0x833>
     b03:	b8 ff ff ff ff       	mov    $0xffffffff,%eax
     b08:	89 c7                	mov    %eax,%edi
     b0a:	e8 00 00 00 00       	callq  b0f <_Z5test2v+0xb0f>
     b0f:	90                   	nop
     b10:	48 8b 44 24 60       	mov    0x60(%rsp),%rax
     b15:	48 85 c0             	test   %rax,%rax
     b18:	0f 85 c4 f8 ff ff    	jne    3e2 <_Z5test2v+0x3e2>
     b1e:	e9 2d fa ff ff       	jmpq   550 <_Z5test2v+0x550>
     b23:	c7 02 05 00 00 00    	movl   $0x5,(%rdx)
     b29:	c6 42 10 01          	movb   $0x1,0x10(%rdx)
     b2d:	e9 f1 f7 ff ff       	jmpq   323 <_Z5test2v+0x323>
     b32:	84 c0                	test   %al,%al
     b34:	0f 85 3b fb ff ff    	jne    675 <_Z5test2v+0x675>
     b3a:	bf 20 00 00 00       	mov    $0x20,%edi
     b3f:	e8 00 00 00 00       	callq  b44 <_Z5test2v+0xb44>
     b44:	49 89 c5             	mov    %rax,%r13
     b47:	e8 00 00 00 00       	callq  b4c <_Z5test2v+0xb4c>
     b4c:	be 03 00 00 00       	mov    $0x3,%esi
     b51:	48 89 c2             	mov    %rax,%rdx
     b54:	4c 89 ef             	mov    %r13,%rdi
     b57:	e8 00 00 00 00       	callq  b5c <_Z5test2v+0xb5c>
     b5c:	ba 00 00 00 00       	mov    $0x0,%edx
     b61:	be 00 00 00 00       	mov    $0x0,%esi
     b66:	4c 89 ef             	mov    %r13,%rdi
     b69:	e8 00 00 00 00       	callq  b6e <_Z5test2v+0xb6e>
     b6e:	66 90                	xchg   %ax,%ax
     b70:	8b 43 08             	mov    0x8(%rbx),%eax
     b73:	8d 50 ff             	lea    -0x1(%rax),%edx
     b76:	83 f8 01             	cmp    $0x1,%eax
     b79:	89 53 08             	mov    %edx,0x8(%rbx)
     b7c:	0f 85 e1 fc ff ff    	jne    863 <_Z5test2v+0x863>
     b82:	48 8b 03             	mov    (%rbx),%rax
     b85:	48 89 df             	mov    %rbx,%rdi
     b88:	ff 50 10             	callq  *0x10(%rax)
     b8b:	8b 43 0c             	mov    0xc(%rbx),%eax
     b8e:	8d 50 ff             	lea    -0x1(%rax),%edx
     b91:	89 53 0c             	mov    %edx,0xc(%rbx)
     b94:	e9 fb fe ff ff       	jmpq   a94 <_Z5test2v+0xa94>
     b99:	48 8b 5c 24 78       	mov    0x78(%rsp),%rbx
     b9e:	e8 00 00 00 00       	callq  ba3 <_Z5test2v+0xba3>
     ba3:	48 39 c3             	cmp    %rax,%rbx
     ba6:	0f 84 34 02 00 00    	je     de0 <_Z5test2v+0xde0>
     bac:	4c 8b 7c 24 78       	mov    0x78(%rsp),%r15
     bb1:	44 8b 74 24 70       	mov    0x70(%rsp),%r14d
     bb6:	48 8d 5c 24 20       	lea    0x20(%rsp),%rbx
     bbb:	49 8b 07             	mov    (%r15),%rax
     bbe:	48 8b 40 18          	mov    0x18(%rax),%rax
     bc2:	48 3d 00 00 00 00    	cmp    $0x0,%rax
     bc8:	0f 85 81 03 00 00    	jne    f4f <_Z5test2v+0xf4f>
     bce:	41 83 fe 02          	cmp    $0x2,%r14d
     bd2:	0f 84 60 03 00 00    	je     f38 <_Z5test2v+0xf38>
     bd8:	41 83 fe 03          	cmp    $0x3,%r14d
     bdc:	0f 84 9e 01 00 00    	je     d80 <_Z5test2v+0xd80>
     be2:	41 83 fe 01          	cmp    $0x1,%r14d
     be6:	0f 84 73 03 00 00    	je     f5f <_Z5test2v+0xf5f>
     bec:	48 8d 54 24 0f       	lea    0xf(%rsp),%rdx
     bf1:	be 00 00 00 00       	mov    $0x0,%esi
     bf6:	48 89 df             	mov    %rbx,%rdi
     bf9:	e8 00 00 00 00       	callq  bfe <_Z5test2v+0xbfe>
     bfe:	4c 8d ac 24 a0 00 00 	lea    0xa0(%rsp),%r13
     c05:	00 
     c06:	48 89 de             	mov    %rbx,%rsi
     c09:	4c 89 ef             	mov    %r13,%rdi
     c0c:	e8 00 00 00 00       	callq  c11 <_Z5test2v+0xc11>
     c11:	48 8b 54 24 20       	mov    0x20(%rsp),%rdx
     c16:	48 8d 7a e8          	lea    -0x18(%rdx),%rdi
     c1a:	48 81 ff 00 00 00 00 	cmp    $0x0,%rdi
     c21:	0f 85 85 01 00 00    	jne    dac <_Z5test2v+0xdac>
     c27:	0f b6 84 24 80 00 00 	movzbl 0x80(%rsp),%eax
     c2e:	00 
     c2f:	48 c7 84 24 a0 00 00 	movq   $0x0,0xa0(%rsp)
     c36:	00 00 00 00 00 
     c3b:	44 89 b4 24 b0 00 00 	mov    %r14d,0xb0(%rsp)
     c42:	00 
     c43:	4c 89 bc 24 b8 00 00 	mov    %r15,0xb8(%rsp)
     c4a:	00 
     c4b:	3c 02                	cmp    $0x2,%al
     c4d:	0f 84 4c 01 00 00    	je     d9f <_Z5test2v+0xd9f>
     c53:	3c 03                	cmp    $0x3,%al
     c55:	0f 84 3c 01 00 00    	je     d97 <_Z5test2v+0xd97>
     c5b:	3c 01                	cmp    $0x1,%al
     c5d:	0f 84 3c 01 00 00    	je     d9f <_Z5test2v+0xd9f>
     c63:	bf 20 00 00 00       	mov    $0x20,%edi
     c68:	e8 00 00 00 00       	callq  c6d <_Z5test2v+0xc6d>
     c6d:	49 8d 75 08          	lea    0x8(%r13),%rsi
     c71:	48 8d 78 08          	lea    0x8(%rax),%rdi
     c75:	48 c7 00 00 00 00 00 	movq   $0x0,(%rax)
     c7c:	49 89 c6             	mov    %rax,%r14
     c7f:	e8 00 00 00 00       	callq  c84 <_Z5test2v+0xc84>
     c84:	48 8b 94 24 b8 00 00 	mov    0xb8(%rsp),%rdx
     c8b:	00 
     c8c:	48 8b 84 24 b0 00 00 	mov    0xb0(%rsp),%rax
     c93:	00 
     c94:	be 00 00 00 00       	mov    $0x0,%esi
     c99:	49 c7 06 00 00 00 00 	movq   $0x0,(%r14)
     ca0:	4c 89 f7             	mov    %r14,%rdi
     ca3:	49 89 56 18          	mov    %rdx,0x18(%r14)
     ca7:	49 89 46 10          	mov    %rax,0x10(%r14)
     cab:	ba 00 00 00 00       	mov    $0x0,%edx
     cb0:	e8 00 00 00 00       	callq  cb5 <_Z5test2v+0xcb5>
     cb5:	3c 01                	cmp    $0x1,%al
     cb7:	0f 84 41 fb ff ff    	je     7fe <_Z5test2v+0x7fe>
     cbd:	e9 49 fb ff ff       	jmpq   80b <_Z5test2v+0x80b>
     cc2:	48 8b 8c 24 d0 00 00 	mov    0xd0(%rsp),%rcx
     cc9:	00 
     cca:	48 8b 9c 24 d8 00 00 	mov    0xd8(%rsp),%rbx
     cd1:	00 
     cd2:	48 89 4c 24 70       	mov    %rcx,0x70(%rsp)
     cd7:	48 89 5c 24 78       	mov    %rbx,0x78(%rsp)
     cdc:	e9 0c fd ff ff       	jmpq   9ed <_Z5test2v+0x9ed>
     ce1:	48 8b 03             	mov    (%rbx),%rax
     ce4:	48 89 df             	mov    %rbx,%rdi
     ce7:	ff 50 10             	callq  *0x10(%rax)
     cea:	f0 83 6b 0c 01       	lock subl $0x1,0xc(%rbx)
     cef:	0f 85 3e f8 ff ff    	jne    533 <_Z5test2v+0x533>
     cf5:	48 8b 03             	mov    (%rbx),%rax
     cf8:	48 89 df             	mov    %rbx,%rdi
     cfb:	ff 50 18             	callq  *0x18(%rax)
     cfe:	e9 30 f8 ff ff       	jmpq   533 <_Z5test2v+0x533>
     d03:	48 89 c3             	mov    %rax,%rbx
     d06:	48 8b 84 24 20 01 00 	mov    0x120(%rsp),%rax
     d0d:	00 
     d0e:	48 85 c0             	test   %rax,%rax
     d11:	74 0d                	je     d20 <_Z5test2v+0xd20>
     d13:	ba 03 00 00 00       	mov    $0x3,%edx
     d18:	4c 89 ee             	mov    %r13,%rsi
     d1b:	4c 89 ef             	mov    %r13,%rdi
     d1e:	ff d0                	callq  *%rax
     d20:	48 8d 7c 24 50       	lea    0x50(%rsp),%rdi
     d25:	e8 00 00 00 00       	callq  d2a <_Z5test2v+0xd2a>
     d2a:	48 8d 7c 24 40       	lea    0x40(%rsp),%rdi
     d2f:	e8 00 00 00 00       	callq  d34 <_Z5test2v+0xd34>
     d34:	4c 89 e7             	mov    %r12,%rdi
     d37:	e8 00 00 00 00       	callq  d3c <_Z5test2v+0xd3c>
     d3c:	48 89 ef             	mov    %rbp,%rdi
     d3f:	e8 00 00 00 00       	callq  d44 <_Z5test2v+0xd44>
     d44:	48 89 df             	mov    %rbx,%rdi
     d47:	e8 00 00 00 00       	callq  d4c <_Z5test2v+0xd4c>
     d4c:	48 89 c3             	mov    %rax,%rbx
     d4f:	eb d9                	jmp    d2a <_Z5test2v+0xd2a>
     d51:	4c 89 e7             	mov    %r12,%rdi
     d54:	e8 00 00 00 00       	callq  d59 <_Z5test2v+0xd59>
     d59:	c6 84 24 80 00 00 00 	movb   $0x0,0x80(%rsp)
     d60:	00 
     d61:	e9 4b f9 ff ff       	jmpq   6b1 <_Z5test2v+0x6b1>
     d66:	48 89 c3             	mov    %rax,%rbx
     d69:	4c 89 ef             	mov    %r13,%rdi
     d6c:	e8 00 00 00 00       	callq  d71 <_Z5test2v+0xd71>
     d71:	48 8d 7c 24 50       	lea    0x50(%rsp),%rdi
     d76:	e8 00 00 00 00       	callq  d7b <_Z5test2v+0xd7b>
     d7b:	eb b7                	jmp    d34 <_Z5test2v+0xd34>
     d7d:	0f 1f 00             	nopl   (%rax)
     d80:	48 8d 54 24 0e       	lea    0xe(%rsp),%rdx
     d85:	be 00 00 00 00       	mov    $0x0,%esi
     d8a:	48 89 df             	mov    %rbx,%rdi
     d8d:	e8 00 00 00 00       	callq  d92 <_Z5test2v+0xd92>
     d92:	e9 67 fe ff ff       	jmpq   bfe <_Z5test2v+0xbfe>
     d97:	4c 89 e7             	mov    %r12,%rdi
     d9a:	e8 00 00 00 00       	callq  d9f <_Z5test2v+0xd9f>
     d9f:	c6 84 24 80 00 00 00 	movb   $0x0,0x80(%rsp)
     da6:	00 
     da7:	e9 b7 fe ff ff       	jmpq   c63 <_Z5test2v+0xc63>
     dac:	b8 00 00 00 00       	mov    $0x0,%eax
     db1:	48 85 c0             	test   %rax,%rax
     db4:	0f 84 22 02 00 00    	je     fdc <_Z5test2v+0xfdc>
     dba:	b8 ff ff ff ff       	mov    $0xffffffff,%eax
     dbf:	f0 0f c1 42 f8       	lock xadd %eax,-0x8(%rdx)
     dc4:	85 c0                	test   %eax,%eax
     dc6:	0f 8f 5b fe ff ff    	jg     c27 <_Z5test2v+0xc27>
     dcc:	48 8d 74 24 40       	lea    0x40(%rsp),%rsi
     dd1:	e8 00 00 00 00       	callq  dd6 <_Z5test2v+0xdd6>
     dd6:	e9 4c fe ff ff       	jmpq   c27 <_Z5test2v+0xc27>
     ddb:	0f 1f 44 00 00       	nopl   0x0(%rax,%rax,1)
     de0:	4c 8b 7c 24 78       	mov    0x78(%rsp),%r15
     de5:	8b 5c 24 70          	mov    0x70(%rsp),%ebx
     de9:	4c 8d 6c 24 10       	lea    0x10(%rsp),%r13
     dee:	49 8b 07             	mov    (%r15),%rax
     df1:	48 8b 40 18          	mov    0x18(%rax),%rax
     df5:	48 3d 00 00 00 00    	cmp    $0x0,%rax
     dfb:	0f 85 2e 02 00 00    	jne    102f <_Z5test2v+0x102f>
     e01:	83 fb 02             	cmp    $0x2,%ebx
     e04:	0f 84 0e 02 00 00    	je     1018 <_Z5test2v+0x1018>
     e0a:	83 fb 03             	cmp    $0x3,%ebx
     e0d:	0f 84 ee 01 00 00    	je     1001 <_Z5test2v+0x1001>
     e13:	83 fb 01             	cmp    $0x1,%ebx
     e16:	0f 84 ce 01 00 00    	je     fea <_Z5test2v+0xfea>
     e1c:	48 8d 54 24 0b       	lea    0xb(%rsp),%rdx
     e21:	be 00 00 00 00       	mov    $0x0,%esi
     e26:	4c 89 ef             	mov    %r13,%rdi
     e29:	e8 00 00 00 00       	callq  e2e <_Z5test2v+0xe2e>
     e2e:	b9 13 00 00 00       	mov    $0x13,%ecx
     e33:	ba 00 00 00 00       	mov    $0x0,%edx
     e38:	31 f6                	xor    %esi,%esi
     e3a:	4c 89 ef             	mov    %r13,%rdi
     e3d:	e8 00 00 00 00       	callq  e42 <_Z5test2v+0xe42>
     e42:	48 8b 10             	mov    (%rax),%rdx
     e45:	4c 8d 74 24 40       	lea    0x40(%rsp),%r14
     e4a:	4c 8d ac 24 a0 00 00 	lea    0xa0(%rsp),%r13
     e51:	00 
     e52:	4c 89 f6             	mov    %r14,%rsi
     e55:	4c 89 ef             	mov    %r13,%rdi
     e58:	48 89 54 24 40       	mov    %rdx,0x40(%rsp)
     e5d:	48 c7 00 00 00 00 00 	movq   $0x0,(%rax)
     e64:	e8 00 00 00 00       	callq  e69 <_Z5test2v+0xe69>
     e69:	48 8b 54 24 40       	mov    0x40(%rsp),%rdx
     e6e:	48 8d 7a e8          	lea    -0x18(%rdx),%rdi
     e72:	48 81 ff 00 00 00 00 	cmp    $0x0,%rdi
     e79:	0f 85 6c 02 00 00    	jne    10eb <_Z5test2v+0x10eb>
     e7f:	48 8b 54 24 10       	mov    0x10(%rsp),%rdx
     e84:	48 8d 7a e8          	lea    -0x18(%rdx),%rdi
     e88:	48 81 ff 00 00 00 00 	cmp    $0x0,%rdi
     e8f:	0f 85 2a 02 00 00    	jne    10bf <_Z5test2v+0x10bf>
     e95:	0f b6 84 24 80 00 00 	movzbl 0x80(%rsp),%eax
     e9c:	00 
     e9d:	48 c7 84 24 a0 00 00 	movq   $0x0,0xa0(%rsp)
     ea4:	00 00 00 00 00 
     ea9:	89 9c 24 b0 00 00 00 	mov    %ebx,0xb0(%rsp)
     eb0:	4c 89 bc 24 b8 00 00 	mov    %r15,0xb8(%rsp)
     eb7:	00 
     eb8:	3c 02                	cmp    $0x2,%al
     eba:	0f 84 f5 00 00 00    	je     fb5 <_Z5test2v+0xfb5>
     ec0:	3c 03                	cmp    $0x3,%al
     ec2:	0f 84 e5 00 00 00    	je     fad <_Z5test2v+0xfad>
     ec8:	3c 01                	cmp    $0x1,%al
     eca:	0f 84 e5 00 00 00    	je     fb5 <_Z5test2v+0xfb5>
     ed0:	bf 20 00 00 00       	mov    $0x20,%edi
     ed5:	e8 00 00 00 00       	callq  eda <_Z5test2v+0xeda>
     eda:	49 8d 75 08          	lea    0x8(%r13),%rsi
     ede:	48 8d 78 08          	lea    0x8(%rax),%rdi
     ee2:	48 c7 00 00 00 00 00 	movq   $0x0,(%rax)
     ee9:	49 89 c6             	mov    %rax,%r14
     eec:	e8 00 00 00 00       	callq  ef1 <_Z5test2v+0xef1>
     ef1:	48 8b 94 24 b8 00 00 	mov    0xb8(%rsp),%rdx
     ef8:	00 
     ef9:	48 8b 84 24 b0 00 00 	mov    0xb0(%rsp),%rax
     f00:	00 
     f01:	be 00 00 00 00       	mov    $0x0,%esi
     f06:	49 c7 06 00 00 00 00 	movq   $0x0,(%r14)
     f0d:	4c 89 f7             	mov    %r14,%rdi
     f10:	49 89 56 18          	mov    %rdx,0x18(%r14)
     f14:	49 89 46 10          	mov    %rax,0x10(%r14)
     f18:	ba 00 00 00 00       	mov    $0x0,%edx
     f1d:	e8 00 00 00 00       	callq  f22 <_Z5test2v+0xf22>
     f22:	48 89 c3             	mov    %rax,%rbx
     f25:	4c 89 ef             	mov    %r13,%rdi
     f28:	e8 00 00 00 00       	callq  f2d <_Z5test2v+0xf2d>
     f2d:	e9 3f fe ff ff       	jmpq   d71 <_Z5test2v+0xd71>
     f32:	66 0f 1f 44 00 00    	nopw   0x0(%rax,%rax,1)
     f38:	48 8d 54 24 0d       	lea    0xd(%rsp),%rdx
     f3d:	be 00 00 00 00       	mov    $0x0,%esi
     f42:	48 89 df             	mov    %rbx,%rdi
     f45:	e8 00 00 00 00       	callq  f4a <_Z5test2v+0xf4a>
     f4a:	e9 af fc ff ff       	jmpq   bfe <_Z5test2v+0xbfe>
     f4f:	44 89 f2             	mov    %r14d,%edx
     f52:	4c 89 fe             	mov    %r15,%rsi
     f55:	48 89 df             	mov    %rbx,%rdi
     f58:	ff d0                	callq  *%rax
     f5a:	e9 9f fc ff ff       	jmpq   bfe <_Z5test2v+0xbfe>
     f5f:	48 8d 54 24 0c       	lea    0xc(%rsp),%rdx
     f64:	be 00 00 00 00       	mov    $0x0,%esi
     f69:	48 89 df             	mov    %rbx,%rdi
     f6c:	e8 00 00 00 00       	callq  f71 <_Z5test2v+0xf71>
     f71:	e9 88 fc ff ff       	jmpq   bfe <_Z5test2v+0xbfe>
     f76:	e8 00 00 00 00       	callq  f7b <_Z5test2v+0xf7b>
     f7b:	e9 7b f5 ff ff       	jmpq   4fb <_Z5test2v+0x4fb>
     f80:	4c 89 f7             	mov    %r14,%rdi
     f83:	48 89 c3             	mov    %rax,%rbx
     f86:	e8 00 00 00 00       	callq  f8b <_Z5test2v+0xf8b>
     f8b:	4c 89 f7             	mov    %r14,%rdi
     f8e:	e8 00 00 00 00       	callq  f93 <_Z5test2v+0xf93>
     f93:	eb 90                	jmp    f25 <_Z5test2v+0xf25>
     f95:	4c 89 f7             	mov    %r14,%rdi
     f98:	48 89 c3             	mov    %rax,%rbx
     f9b:	e8 00 00 00 00       	callq  fa0 <_Z5test2v+0xfa0>
     fa0:	4c 89 f7             	mov    %r14,%rdi
     fa3:	e8 00 00 00 00       	callq  fa8 <_Z5test2v+0xfa8>
     fa8:	e9 bc fd ff ff       	jmpq   d69 <_Z5test2v+0xd69>
     fad:	4c 89 e7             	mov    %r12,%rdi
     fb0:	e8 00 00 00 00       	callq  fb5 <_Z5test2v+0xfb5>
     fb5:	c6 84 24 80 00 00 00 	movb   $0x0,0x80(%rsp)
     fbc:	00 
     fbd:	e9 0e ff ff ff       	jmpq   ed0 <_Z5test2v+0xed0>
     fc2:	4c 89 e7             	mov    %r12,%rdi
     fc5:	48 89 c3             	mov    %rax,%rbx
     fc8:	e8 00 00 00 00       	callq  fcd <_Z5test2v+0xfcd>
     fcd:	48 8d 7c 24 30       	lea    0x30(%rsp),%rdi
     fd2:	e8 00 00 00 00       	callq  fd7 <_Z5test2v+0xfd7>
     fd7:	e9 60 fd ff ff       	jmpq   d3c <_Z5test2v+0xd3c>
     fdc:	8b 42 f8             	mov    -0x8(%rdx),%eax
     fdf:	8d 48 ff             	lea    -0x1(%rax),%ecx
     fe2:	89 4a f8             	mov    %ecx,-0x8(%rdx)
     fe5:	e9 da fd ff ff       	jmpq   dc4 <_Z5test2v+0xdc4>
     fea:	48 8d 54 24 08       	lea    0x8(%rsp),%rdx
     fef:	be 00 00 00 00       	mov    $0x0,%esi
     ff4:	4c 89 ef             	mov    %r13,%rdi
     ff7:	e8 00 00 00 00       	callq  ffc <_Z5test2v+0xffc>
     ffc:	e9 2d fe ff ff       	jmpq   e2e <_Z5test2v+0xe2e>
    1001:	48 8d 54 24 0a       	lea    0xa(%rsp),%rdx
    1006:	be 00 00 00 00       	mov    $0x0,%esi
    100b:	4c 89 ef             	mov    %r13,%rdi
    100e:	e8 00 00 00 00       	callq  1013 <_Z5test2v+0x1013>
    1013:	e9 16 fe ff ff       	jmpq   e2e <_Z5test2v+0xe2e>
    1018:	48 8d 54 24 09       	lea    0x9(%rsp),%rdx
    101d:	be 00 00 00 00       	mov    $0x0,%esi
    1022:	4c 89 ef             	mov    %r13,%rdi
    1025:	e8 00 00 00 00       	callq  102a <_Z5test2v+0x102a>
    102a:	e9 ff fd ff ff       	jmpq   e2e <_Z5test2v+0xe2e>
    102f:	89 da                	mov    %ebx,%edx
    1031:	4c 89 fe             	mov    %r15,%rsi
    1034:	4c 89 ef             	mov    %r13,%rdi
    1037:	ff d0                	callq  *%rax
    1039:	e9 f0 fd ff ff       	jmpq   e2e <_Z5test2v+0xe2e>
    103e:	48 89 c3             	mov    %rax,%rbx
    1041:	48 8b 44 24 20       	mov    0x20(%rsp),%rax
    1046:	48 8d 78 e8          	lea    -0x18(%rax),%rdi
    104a:	48 81 ff 00 00 00 00 	cmp    $0x0,%rdi
    1051:	0f 84 1a fd ff ff    	je     d71 <_Z5test2v+0xd71>
    1057:	48 8d 74 24 40       	lea    0x40(%rsp),%rsi
    105c:	e8 00 00 00 00       	callq  1061 <_Z5test2v+0x1061>
    1061:	e9 0b fd ff ff       	jmpq   d71 <_Z5test2v+0xd71>
    1066:	bf 01 00 00 00       	mov    $0x1,%edi
    106b:	e8 00 00 00 00       	callq  1070 <_Z5test2v+0x1070>
    1070:	48 89 c3             	mov    %rax,%rbx
    1073:	e9 f9 fc ff ff       	jmpq   d71 <_Z5test2v+0xd71>
    1078:	4c 89 ef             	mov    %r13,%rdi
    107b:	48 89 c3             	mov    %rax,%rbx
    107e:	e8 00 00 00 00       	callq  1083 <_Z5test2v+0x1083>
    1083:	e9 e9 fc ff ff       	jmpq   d71 <_Z5test2v+0xd71>
    1088:	48 89 c3             	mov    %rax,%rbx
    108b:	e9 3d ff ff ff       	jmpq   fcd <_Z5test2v+0xfcd>
    1090:	48 89 c3             	mov    %rax,%rbx
    1093:	e9 9c fc ff ff       	jmpq   d34 <_Z5test2v+0xd34>
    1098:	bf 01 00 00 00       	mov    $0x1,%edi
    109d:	e8 00 00 00 00       	callq  10a2 <_Z5test2v+0x10a2>
    10a2:	48 8d bc 24 a0 00 00 	lea    0xa0(%rsp),%rdi
    10a9:	00 
    10aa:	48 89 c3             	mov    %rax,%rbx
    10ad:	e8 00 00 00 00       	callq  10b2 <_Z5test2v+0x10b2>
    10b2:	4c 89 f7             	mov    %r14,%rdi
    10b5:	e8 00 00 00 00       	callq  10ba <_Z5test2v+0x10ba>
    10ba:	e9 b2 fc ff ff       	jmpq   d71 <_Z5test2v+0xd71>
    10bf:	b8 00 00 00 00       	mov    $0x0,%eax
    10c4:	48 8d 4f 10          	lea    0x10(%rdi),%rcx
    10c8:	48 85 c0             	test   %rax,%rax
    10cb:	74 4c                	je     1119 <_Z5test2v+0x1119>
    10cd:	b8 ff ff ff ff       	mov    $0xffffffff,%eax
    10d2:	f0 0f c1 01          	lock xadd %eax,(%rcx)
    10d6:	85 c0                	test   %eax,%eax
    10d8:	0f 8f b7 fd ff ff    	jg     e95 <_Z5test2v+0xe95>
    10de:	4c 89 f6             	mov    %r14,%rsi
    10e1:	e8 00 00 00 00       	callq  10e6 <_Z5test2v+0x10e6>
    10e6:	e9 aa fd ff ff       	jmpq   e95 <_Z5test2v+0xe95>
    10eb:	b8 00 00 00 00       	mov    $0x0,%eax
    10f0:	48 8d 4f 10          	lea    0x10(%rdi),%rcx
    10f4:	48 85 c0             	test   %rax,%rax
    10f7:	74 2b                	je     1124 <_Z5test2v+0x1124>
    10f9:	b8 ff ff ff ff       	mov    $0xffffffff,%eax
    10fe:	f0 0f c1 01          	lock xadd %eax,(%rcx)
    1102:	85 c0                	test   %eax,%eax
    1104:	0f 8f 75 fd ff ff    	jg     e7f <_Z5test2v+0xe7f>
    110a:	48 8d 74 24 30       	lea    0x30(%rsp),%rsi
    110f:	e8 00 00 00 00       	callq  1114 <_Z5test2v+0x1114>
    1114:	e9 66 fd ff ff       	jmpq   e7f <_Z5test2v+0xe7f>
    1119:	8b 42 f8             	mov    -0x8(%rdx),%eax
    111c:	8d 48 ff             	lea    -0x1(%rax),%ecx
    111f:	89 4a f8             	mov    %ecx,-0x8(%rdx)
    1122:	eb b2                	jmp    10d6 <_Z5test2v+0x10d6>
    1124:	8b 42 f8             	mov    -0x8(%rdx),%eax
    1127:	8d 48 ff             	lea    -0x1(%rax),%ecx
    112a:	89 4a f8             	mov    %ecx,-0x8(%rdx)
    112d:	eb d3                	jmp    1102 <_Z5test2v+0x1102>
    112f:	48 89 c3             	mov    %rax,%rbx
    1132:	48 8b 44 24 40       	mov    0x40(%rsp),%rax
    1137:	48 8d 78 e8          	lea    -0x18(%rax),%rdi
    113b:	48 81 ff 00 00 00 00 	cmp    $0x0,%rdi
    1142:	74 0a                	je     114e <_Z5test2v+0x114e>
    1144:	48 8d 74 24 30       	lea    0x30(%rsp),%rsi
    1149:	e8 00 00 00 00       	callq  114e <_Z5test2v+0x114e>
    114e:	48 8b 44 24 10       	mov    0x10(%rsp),%rax
    1153:	48 8d 78 e8          	lea    -0x18(%rax),%rdi
    1157:	48 81 ff 00 00 00 00 	cmp    $0x0,%rdi
    115e:	0f 84 0d fc ff ff    	je     d71 <_Z5test2v+0xd71>
    1164:	e9 ee fe ff ff       	jmpq   1057 <_Z5test2v+0x1057>
    1169:	48 89 c3             	mov    %rax,%rbx
    116c:	eb e0                	jmp    114e <_Z5test2v+0x114e>
    116e:	e8 00 00 00 00       	callq  1173 <_Z5test2v+0x1173>
    1173:	48 89 c3             	mov    %rax,%rbx
    1176:	e9 a5 fb ff ff       	jmpq   d20 <_Z5test2v+0xd20>
    117b:	bf 20 00 00 00       	mov    $0x20,%edi
    1180:	e8 00 00 00 00       	callq  1185 <_Z5test2v+0x1185>
    1185:	49 89 c5             	mov    %rax,%r13
    1188:	e8 00 00 00 00       	callq  118d <_Z5test2v+0x118d>
    118d:	be 04 00 00 00       	mov    $0x4,%esi
    1192:	48 89 c2             	mov    %rax,%rdx
    1195:	4c 89 ef             	mov    %r13,%rdi
    1198:	e8 00 00 00 00       	callq  119d <_Z5test2v+0x119d>
    119d:	ba 00 00 00 00       	mov    $0x0,%edx
    11a2:	be 00 00 00 00       	mov    $0x0,%esi
    11a7:	4c 89 ef             	mov    %r13,%rdi
    11aa:	e8 00 00 00 00       	callq  11af <_Z5test2v+0x11af>
    11af:	e9 c4 fe ff ff       	jmpq   1078 <_Z5test2v+0x1078>
