   0:	41 55                	push   %r13
   2:	41 54                	push   %r12
   4:	55                   	push   %rbp
   5:	53                   	push   %rbx
   6:	48 89 fb             	mov    %rdi,%rbx
   9:	48 83 ec 68          	sub    $0x68,%rsp
   d:	48 8d 7c 24 20       	lea    0x20(%rsp),%rdi
  12:	e8 00 00 00 00       	callq  17 <_Z5test1v+0x17>
  17:	0f b6 44 24 30       	movzbl 0x30(%rsp),%eax
  1c:	84 c0                	test   %al,%al
  1e:	0f 84 f5 01 00 00    	je     219 <_Z5test1v+0x219>
  24:	3c 02                	cmp    $0x2,%al
  26:	74 58                	je     80 <_Z5test1v+0x80>
  28:	3c 03                	cmp    $0x3,%al
  2a:	74 24                	je     50 <_Z5test1v+0x50>
  2c:	48 89 df             	mov    %rbx,%rdi
  2f:	e8 00 00 00 00       	callq  34 <_Z5test1v+0x34>
  34:	80 7c 24 30 03       	cmpb   $0x3,0x30(%rsp)
  39:	74 29                	je     64 <_Z5test1v+0x64>
  3b:	48 83 c4 68          	add    $0x68,%rsp
  3f:	48 89 d8             	mov    %rbx,%rax
  42:	5b                   	pop    %rbx
  43:	5d                   	pop    %rbp
  44:	41 5c                	pop    %r12
  46:	41 5d                	pop    %r13
  48:	c3                   	retq   
  49:	0f 1f 80 00 00 00 00 	nopl   0x0(%rax)
  50:	48 8d 74 24 20       	lea    0x20(%rsp),%rsi
  55:	48 89 df             	mov    %rbx,%rdi
  58:	e8 00 00 00 00       	callq  5d <_Z5test1v+0x5d>
  5d:	80 7c 24 30 03       	cmpb   $0x3,0x30(%rsp)
  62:	75 d7                	jne    3b <_Z5test1v+0x3b>
  64:	48 8d 7c 24 20       	lea    0x20(%rsp),%rdi
  69:	e8 00 00 00 00       	callq  6e <_Z5test1v+0x6e>
  6e:	48 83 c4 68          	add    $0x68,%rsp
  72:	48 89 d8             	mov    %rbx,%rax
  75:	5b                   	pop    %rbx
  76:	5d                   	pop    %rbp
  77:	41 5c                	pop    %r12
  79:	41 5d                	pop    %r13
  7b:	c3                   	retq   
  7c:	0f 1f 40 00          	nopl   0x0(%rax)
  80:	4c 8b 64 24 28       	mov    0x28(%rsp),%r12
  85:	8b 6c 24 20          	mov    0x20(%rsp),%ebp
  89:	4c 8d 6c 24 10       	lea    0x10(%rsp),%r13
  8e:	49 8b 04 24          	mov    (%r12),%rax
  92:	48 8b 40 18          	mov    0x18(%rax),%rax
  96:	48 3d 00 00 00 00    	cmp    $0x0,%rax
  9c:	0f 85 2e 01 00 00    	jne    1d0 <_Z5test1v+0x1d0>
  a2:	83 fd 02             	cmp    $0x2,%ebp
  a5:	0f 84 d5 00 00 00    	je     180 <_Z5test1v+0x180>
  ab:	83 fd 03             	cmp    $0x3,%ebp
  ae:	0f 84 ec 00 00 00    	je     1a0 <_Z5test1v+0x1a0>
  b4:	83 fd 01             	cmp    $0x1,%ebp
  b7:	0f 84 fa 00 00 00    	je     1b7 <_Z5test1v+0x1b7>
  bd:	48 8d 54 24 0f       	lea    0xf(%rsp),%rdx
  c2:	be 00 00 00 00       	mov    $0x0,%esi
  c7:	4c 89 ef             	mov    %r13,%rdi
  ca:	e8 00 00 00 00       	callq  cf <_Z5test1v+0xcf>
  cf:	48 8d 7c 24 40       	lea    0x40(%rsp),%rdi
  d4:	4c 89 ee             	mov    %r13,%rsi
  d7:	e8 00 00 00 00       	callq  dc <_Z5test1v+0xdc>
  dc:	48 8b 44 24 10       	mov    0x10(%rsp),%rax
  e1:	48 8d 78 e8          	lea    -0x18(%rax),%rdi
  e5:	48 81 ff 00 00 00 00 	cmp    $0x0,%rdi
  ec:	0f 85 ed 00 00 00    	jne    1df <_Z5test1v+0x1df>
  f2:	bf 20 00 00 00       	mov    $0x20,%edi
  f7:	89 6c 24 50          	mov    %ebp,0x50(%rsp)
  fb:	48 c7 44 24 40 00 00 	movq   $0x0,0x40(%rsp)
 102:	00 00 
 104:	4c 89 64 24 58       	mov    %r12,0x58(%rsp)
 109:	e8 00 00 00 00       	callq  10e <_Z5test1v+0x10e>
 10e:	48 89 c5             	mov    %rax,%rbp
 111:	48 c7 00 00 00 00 00 	movq   $0x0,(%rax)
 118:	48 8d 44 24 40       	lea    0x40(%rsp),%rax
 11d:	48 8d 7d 08          	lea    0x8(%rbp),%rdi
 121:	48 8d 70 08          	lea    0x8(%rax),%rsi
 125:	e8 00 00 00 00       	callq  12a <_Z5test1v+0x12a>
 12a:	48 8b 54 24 58       	mov    0x58(%rsp),%rdx
 12f:	48 8b 44 24 50       	mov    0x50(%rsp),%rax
 134:	be 00 00 00 00       	mov    $0x0,%esi
 139:	48 c7 45 00 00 00 00 	movq   $0x0,0x0(%rbp)
 140:	00 
 141:	48 89 ef             	mov    %rbp,%rdi
 144:	48 89 55 18          	mov    %rdx,0x18(%rbp)
 148:	48 89 45 10          	mov    %rax,0x10(%rbp)
 14c:	ba 00 00 00 00       	mov    $0x0,%edx
 151:	e8 00 00 00 00       	callq  156 <_Z5test1v+0x156>
 156:	48 89 c7             	mov    %rax,%rdi
 159:	e8 00 00 00 00       	callq  15e <_Z5test1v+0x15e>
 15e:	48 89 df             	mov    %rbx,%rdi
 161:	e8 00 00 00 00       	callq  166 <_Z5test1v+0x166>
 166:	e8 00 00 00 00       	callq  16b <_Z5test1v+0x16b>
 16b:	48 8d 7c 24 40       	lea    0x40(%rsp),%rdi
 170:	e8 00 00 00 00       	callq  175 <_Z5test1v+0x175>
 175:	e9 ba fe ff ff       	jmpq   34 <_Z5test1v+0x34>
 17a:	66 0f 1f 44 00 00    	nopw   0x0(%rax,%rax,1)
 180:	48 8d 54 24 0d       	lea    0xd(%rsp),%rdx
 185:	be 00 00 00 00       	mov    $0x0,%esi
 18a:	4c 89 ef             	mov    %r13,%rdi
 18d:	e8 00 00 00 00       	callq  192 <_Z5test1v+0x192>
 192:	e9 38 ff ff ff       	jmpq   cf <_Z5test1v+0xcf>
 197:	66 0f 1f 84 00 00 00 	nopw   0x0(%rax,%rax,1)
 19e:	00 00 
 1a0:	48 8d 54 24 0e       	lea    0xe(%rsp),%rdx
 1a5:	be 00 00 00 00       	mov    $0x0,%esi
 1aa:	4c 89 ef             	mov    %r13,%rdi
 1ad:	e8 00 00 00 00       	callq  1b2 <_Z5test1v+0x1b2>
 1b2:	e9 18 ff ff ff       	jmpq   cf <_Z5test1v+0xcf>
 1b7:	48 8d 54 24 0c       	lea    0xc(%rsp),%rdx
 1bc:	be 00 00 00 00       	mov    $0x0,%esi
 1c1:	4c 89 ef             	mov    %r13,%rdi
 1c4:	e8 00 00 00 00       	callq  1c9 <_Z5test1v+0x1c9>
 1c9:	e9 01 ff ff ff       	jmpq   cf <_Z5test1v+0xcf>
 1ce:	66 90                	xchg   %ax,%ax
 1d0:	89 ea                	mov    %ebp,%edx
 1d2:	4c 89 e6             	mov    %r12,%rsi
 1d5:	4c 89 ef             	mov    %r13,%rdi
 1d8:	ff d0                	callq  *%rax
 1da:	e9 f0 fe ff ff       	jmpq   cf <_Z5test1v+0xcf>
 1df:	ba 00 00 00 00       	mov    $0x0,%edx
 1e4:	48 85 d2             	test   %rdx,%rdx
 1e7:	74 23                	je     20c <_Z5test1v+0x20c>
 1e9:	ba ff ff ff ff       	mov    $0xffffffff,%edx
 1ee:	f0 0f c1 50 f8       	lock xadd %edx,-0x8(%rax)
 1f3:	89 d0                	mov    %edx,%eax
 1f5:	85 c0                	test   %eax,%eax
 1f7:	0f 8f f5 fe ff ff    	jg     f2 <_Z5test1v+0xf2>
 1fd:	48 8d 74 24 0f       	lea    0xf(%rsp),%rsi
 202:	e8 00 00 00 00       	callq  207 <_Z5test1v+0x207>
 207:	e9 e6 fe ff ff       	jmpq   f2 <_Z5test1v+0xf2>
 20c:	8b 50 f8             	mov    -0x8(%rax),%edx
 20f:	8d 4a ff             	lea    -0x1(%rdx),%ecx
 212:	89 48 f8             	mov    %ecx,-0x8(%rax)
 215:	89 d0                	mov    %edx,%eax
 217:	eb dc                	jmp    1f5 <_Z5test1v+0x1f5>
 219:	bf 02 00 00 00       	mov    $0x2,%edi
 21e:	e8 00 00 00 00       	callq  223 <_Z5test1v+0x223>
 223:	48 89 c3             	mov    %rax,%rbx
 226:	80 7c 24 30 03       	cmpb   $0x3,0x30(%rsp)
 22b:	75 0a                	jne    237 <_Z5test1v+0x237>
 22d:	48 8d 7c 24 20       	lea    0x20(%rsp),%rdi
 232:	e8 00 00 00 00       	callq  237 <_Z5test1v+0x237>
 237:	48 89 df             	mov    %rbx,%rdi
 23a:	e8 00 00 00 00       	callq  23f <_Z5test1v+0x23f>
 23f:	48 89 ef             	mov    %rbp,%rdi
 242:	49 89 c4             	mov    %rax,%r12
 245:	e8 00 00 00 00       	callq  24a <_Z5test1v+0x24a>
 24a:	48 89 ef             	mov    %rbp,%rdi
 24d:	e8 00 00 00 00       	callq  252 <_Z5test1v+0x252>
 252:	4c 89 e0             	mov    %r12,%rax
 255:	e9 fc fe ff ff       	jmpq   156 <_Z5test1v+0x156>
 25a:	48 89 c3             	mov    %rax,%rbx
 25d:	48 8b 44 24 10       	mov    0x10(%rsp),%rax
 262:	48 8d 78 e8          	lea    -0x18(%rax),%rdi
 266:	48 81 ff 00 00 00 00 	cmp    $0x0,%rdi
 26d:	74 b7                	je     226 <_Z5test1v+0x226>
 26f:	48 8d 74 24 0f       	lea    0xf(%rsp),%rsi
 274:	e8 00 00 00 00       	callq  279 <_Z5test1v+0x279>
 279:	eb ab                	jmp    226 <_Z5test1v+0x226>
 27b:	0f 1f 44 00 00       	nopl   0x0(%rax,%rax,1)
