  10:	41 55                	push   %r13
  12:	66 0f ef c0          	pxor   %xmm0,%xmm0
  16:	41 54                	push   %r12
  18:	55                   	push   %rbp
  19:	53                   	push   %rbx
  1a:	48 81 ec 08 01 00 00 	sub    $0x108,%rsp
  21:	0f 29 84 24 b0 00 00 	movaps %xmm0,0xb0(%rsp)
  28:	00 
  29:	64 48 8b 04 25 28 00 	mov    %fs:0x28,%rax
  30:	00 00 
  32:	48 89 84 24 f8 00 00 	mov    %rax,0xf8(%rsp)
  39:	00 
  3a:	31 c0                	xor    %eax,%eax
  3c:	0f 29 84 24 c0 00 00 	movaps %xmm0,0xc0(%rsp)
  43:	00 
  44:	0f 29 44 24 10       	movaps %xmm0,0x10(%rsp)
  49:	c6 84 24 a4 00 00 00 	movb   $0x0,0xa4(%rsp)
  50:	00 
  51:	c6 84 24 a8 00 00 00 	movb   $0x0,0xa8(%rsp)
  58:	00 
  59:	c6 84 24 a9 00 00 00 	movb   $0x0,0xa9(%rsp)
  60:	00 
  61:	0f 1f 80 00 00 00 00 	nopl   0x0(%rax)
  68:	31 db                	xor    %ebx,%ebx
  6a:	eb 2f                	jmp    9b <_Z5test2v+0x9b>
  6c:	0f 1f 40 00          	nopl   0x0(%rax)
  70:	48 81 fb f9 00 00 00 	cmp    $0xf9,%rbx
  77:	76 77                	jbe    f0 <_Z5test2v+0xf0>
  79:	48 8d 7c 24 70       	lea    0x70(%rsp),%rdi
  7e:	31 f6                	xor    %esi,%esi
  80:	48 c7 44 24 70 00 00 	movq   $0x0,0x70(%rsp)
  87:	00 00 
  89:	48 c7 44 24 78 40 42 	movq   $0xf4240,0x78(%rsp)
  90:	0f 00 
  92:	e8 00 00 00 00       	callq  97 <_Z5test2v+0x97>
  97:	48 83 c3 01          	add    $0x1,%rbx
  9b:	0f b6 84 24 a8 00 00 	movzbl 0xa8(%rsp),%eax
  a2:	00 
  a3:	84 c0                	test   %al,%al
  a5:	74 11                	je     b8 <_Z5test2v+0xb8>
  a7:	48 83 fb 7c          	cmp    $0x7c,%rbx
  ab:	77 c3                	ja     70 <_Z5test2v+0x70>
  ad:	f3 90                	pause  
  af:	eb e6                	jmp    97 <_Z5test2v+0x97>
  b1:	0f 1f 80 00 00 00 00 	nopl   0x0(%rax)
  b8:	b8 01 00 00 00       	mov    $0x1,%eax
  bd:	89 c2                	mov    %eax,%edx
  bf:	86 94 24 a8 00 00 00 	xchg   %dl,0xa8(%rsp)
  c6:	84 d2                	test   %dl,%dl
  c8:	75 dd                	jne    a7 <_Z5test2v+0xa7>
  ca:	48 8b 94 24 b0 00 00 	mov    0xb0(%rsp),%rdx
  d1:	00 
  d2:	48 85 d2             	test   %rdx,%rdx
  d5:	74 79                	je     150 <_Z5test2v+0x150>
  d7:	0f b6 4a 08          	movzbl 0x8(%rdx),%ecx
  db:	48 8d 72 08          	lea    0x8(%rdx),%rsi
  df:	84 c9                	test   %cl,%cl
  e1:	74 1d                	je     100 <_Z5test2v+0x100>
  e3:	c6 84 24 a8 00 00 00 	movb   $0x0,0xa8(%rsp)
  ea:	00 
  eb:	e9 78 ff ff ff       	jmpq   68 <_Z5test2v+0x68>
  f0:	e8 00 00 00 00       	callq  f5 <_Z5test2v+0xf5>
  f5:	eb a0                	jmp    97 <_Z5test2v+0x97>
  f7:	66 0f 1f 84 00 00 00 	nopw   0x0(%rax,%rax,1)
  fe:	00 00 
 100:	86 06                	xchg   %al,(%rsi)
 102:	84 c0                	test   %al,%al
 104:	75 dd                	jne    e3 <_Z5test2v+0xe3>
 106:	48 8d ac 24 a0 00 00 	lea    0xa0(%rsp),%rbp
 10d:	00 
 10e:	48 89 54 24 18       	mov    %rdx,0x18(%rsp)
 113:	48 89 6c 24 10       	mov    %rbp,0x10(%rsp)
 118:	bf 20 00 00 00       	mov    $0x20,%edi
 11d:	e8 00 00 00 00       	callq  122 <_Z5test2v+0x122>
 122:	49 89 c4             	mov    %rax,%r12
 125:	e8 00 00 00 00       	callq  12a <_Z5test2v+0x12a>
 12a:	be 01 00 00 00       	mov    $0x1,%esi
 12f:	48 89 c2             	mov    %rax,%rdx
 132:	4c 89 e7             	mov    %r12,%rdi
 135:	e8 00 00 00 00       	callq  13a <_Z5test2v+0x13a>
 13a:	ba 00 00 00 00       	mov    $0x0,%edx
 13f:	be 00 00 00 00       	mov    $0x0,%esi
 144:	4c 89 e7             	mov    %r12,%rdi
 147:	e8 00 00 00 00       	callq  14c <_Z5test2v+0x14c>
 14c:	0f 1f 40 00          	nopl   0x0(%rax)
 150:	48 83 7c 24 18 00    	cmpq   $0x0,0x18(%rsp)
 156:	48 8d ac 24 a0 00 00 	lea    0xa0(%rsp),%rbp
 15d:	00 
 15e:	48 89 6c 24 10       	mov    %rbp,0x10(%rsp)
 163:	75 b3                	jne    118 <_Z5test2v+0x118>
 165:	80 bc 24 a9 00 00 00 	cmpb   $0x0,0xa9(%rsp)
 16c:	00 
 16d:	75 a9                	jne    118 <_Z5test2v+0x118>
 16f:	0f b6 84 24 a4 00 00 	movzbl 0xa4(%rsp),%eax
 176:	00 
 177:	c6 44 24 34 00       	movb   $0x0,0x34(%rsp)
 17c:	c6 44 24 38 00       	movb   $0x0,0x38(%rsp)
 181:	c6 44 24 39 00       	movb   $0x0,0x39(%rsp)
 186:	48 c7 44 24 40 00 00 	movq   $0x0,0x40(%rsp)
 18d:	00 00 
 18f:	84 c0                	test   %al,%al
 191:	0f 85 3c 06 00 00    	jne    7d3 <_Z5test2v+0x7d3>
 197:	4c 8d 64 24 30       	lea    0x30(%rsp),%r12
 19c:	48 89 6c 24 40       	mov    %rbp,0x40(%rsp)
 1a1:	4c 89 a4 24 b0 00 00 	mov    %r12,0xb0(%rsp)
 1a8:	00 
 1a9:	c6 84 24 a8 00 00 00 	movb   $0x0,0xa8(%rsp)
 1b0:	00 
 1b1:	48 8b 44 24 18       	mov    0x18(%rsp),%rax
 1b6:	48 c7 44 24 10 00 00 	movq   $0x0,0x10(%rsp)
 1bd:	00 00 
 1bf:	48 85 c0             	test   %rax,%rax
 1c2:	74 32                	je     1f6 <_Z5test2v+0x1f6>
 1c4:	c6 40 08 00          	movb   $0x0,0x8(%rax)
 1c8:	48 8b 44 24 10       	mov    0x10(%rsp),%rax
 1cd:	48 c7 44 24 18 00 00 	movq   $0x0,0x18(%rsp)
 1d4:	00 00 
 1d6:	48 85 c0             	test   %rax,%rax
 1d9:	74 1b                	je     1f6 <_Z5test2v+0x1f6>
 1db:	c6 40 08 00          	movb   $0x0,0x8(%rax)
 1df:	48 8b 44 24 18       	mov    0x18(%rsp),%rax
 1e4:	48 c7 44 24 10 00 00 	movq   $0x0,0x10(%rsp)
 1eb:	00 00 
 1ed:	48 85 c0             	test   %rax,%rax
 1f0:	74 04                	je     1f6 <_Z5test2v+0x1f6>
 1f2:	c6 40 08 00          	movb   $0x0,0x8(%rax)
 1f6:	48 c7 44 24 20 00 00 	movq   $0x0,0x20(%rsp)
 1fd:	00 00 
 1ff:	48 c7 44 24 28 00 00 	movq   $0x0,0x28(%rsp)
 206:	00 00 
 208:	0f 1f 84 00 00 00 00 	nopl   0x0(%rax,%rax,1)
 20f:	00 
 210:	31 db                	xor    %ebx,%ebx
 212:	eb 2f                	jmp    243 <_Z5test2v+0x243>
 214:	0f 1f 40 00          	nopl   0x0(%rax)
 218:	48 81 fb f9 00 00 00 	cmp    $0xf9,%rbx
 21f:	76 7f                	jbe    2a0 <_Z5test2v+0x2a0>
 221:	48 8d 7c 24 70       	lea    0x70(%rsp),%rdi
 226:	31 f6                	xor    %esi,%esi
 228:	48 c7 44 24 70 00 00 	movq   $0x0,0x70(%rsp)
 22f:	00 00 
 231:	48 c7 44 24 78 40 42 	movq   $0xf4240,0x78(%rsp)
 238:	0f 00 
 23a:	e8 00 00 00 00       	callq  23f <_Z5test2v+0x23f>
 23f:	48 83 c3 01          	add    $0x1,%rbx
 243:	0f b6 84 24 a8 00 00 	movzbl 0xa8(%rsp),%eax
 24a:	00 
 24b:	84 c0                	test   %al,%al
 24d:	74 11                	je     260 <_Z5test2v+0x260>
 24f:	48 83 fb 7c          	cmp    $0x7c,%rbx
 253:	77 c3                	ja     218 <_Z5test2v+0x218>
 255:	f3 90                	pause  
 257:	eb e6                	jmp    23f <_Z5test2v+0x23f>
 259:	0f 1f 80 00 00 00 00 	nopl   0x0(%rax)
 260:	b8 01 00 00 00       	mov    $0x1,%eax
 265:	89 c2                	mov    %eax,%edx
 267:	86 94 24 a8 00 00 00 	xchg   %dl,0xa8(%rsp)
 26e:	84 d2                	test   %dl,%dl
 270:	75 dd                	jne    24f <_Z5test2v+0x24f>
 272:	48 8b 94 24 b0 00 00 	mov    0xb0(%rsp),%rdx
 279:	00 
 27a:	48 85 d2             	test   %rdx,%rdx
 27d:	0f 84 e5 01 00 00    	je     468 <_Z5test2v+0x468>
 283:	0f b6 4a 08          	movzbl 0x8(%rdx),%ecx
 287:	48 8d 72 08          	lea    0x8(%rdx),%rsi
 28b:	84 c9                	test   %cl,%cl
 28d:	74 21                	je     2b0 <_Z5test2v+0x2b0>
 28f:	c6 84 24 a8 00 00 00 	movb   $0x0,0xa8(%rsp)
 296:	00 
 297:	e9 74 ff ff ff       	jmpq   210 <_Z5test2v+0x210>
 29c:	0f 1f 40 00          	nopl   0x0(%rax)
 2a0:	e8 00 00 00 00       	callq  2a5 <_Z5test2v+0x2a5>
 2a5:	eb 98                	jmp    23f <_Z5test2v+0x23f>
 2a7:	66 0f 1f 84 00 00 00 	nopw   0x0(%rax,%rax,1)
 2ae:	00 00 
 2b0:	86 06                	xchg   %al,(%rsi)
 2b2:	84 c0                	test   %al,%al
 2b4:	75 d9                	jne    28f <_Z5test2v+0x28f>
 2b6:	80 bc 24 a9 00 00 00 	cmpb   $0x0,0xa9(%rsp)
 2bd:	00 
 2be:	48 89 6c 24 20       	mov    %rbp,0x20(%rsp)
 2c3:	48 89 54 24 28       	mov    %rdx,0x28(%rsp)
 2c8:	0f 85 fb 04 00 00    	jne    7c9 <_Z5test2v+0x7c9>
 2ce:	80 7a 04 00          	cmpb   $0x0,0x4(%rdx)
 2d2:	0f 85 17 08 00 00    	jne    aef <_Z5test2v+0xaef>
 2d8:	48 8b 84 24 b8 00 00 	mov    0xb8(%rsp),%rax
 2df:	00 
 2e0:	48 85 c0             	test   %rax,%rax
 2e3:	0f 84 72 06 00 00    	je     95b <_Z5test2v+0x95b>
 2e9:	c7 00 05 00 00 00    	movl   $0x5,(%rax)
 2ef:	c6 40 04 01          	movb   $0x1,0x4(%rax)
 2f3:	48 8b 84 24 b8 00 00 	mov    0xb8(%rsp),%rax
 2fa:	00 
 2fb:	48 8b 54 24 20       	mov    0x20(%rsp),%rdx
 300:	c6 84 24 a9 00 00 00 	movb   $0x1,0xa9(%rsp)
 307:	01 
 308:	48 89 44 24 50       	mov    %rax,0x50(%rsp)
 30d:	48 8b 84 24 c0 00 00 	mov    0xc0(%rsp),%rax
 314:	00 
 315:	48 85 d2             	test   %rdx,%rdx
 318:	48 c7 84 24 c0 00 00 	movq   $0x0,0xc0(%rsp)
 31f:	00 00 00 00 00 
 324:	48 89 44 24 58       	mov    %rax,0x58(%rsp)
 329:	48 8b 84 24 c8 00 00 	mov    0xc8(%rsp),%rax
 330:	00 
 331:	48 c7 84 24 c8 00 00 	movq   $0x0,0xc8(%rsp)
 338:	00 00 00 00 00 
 33d:	48 89 44 24 60       	mov    %rax,0x60(%rsp)
 342:	48 8b 44 24 28       	mov    0x28(%rsp),%rax
 347:	48 c7 40 10 00 00 00 	movq   $0x0,0x10(%rax)
 34e:	00 
 34f:	48 c7 84 24 b0 00 00 	movq   $0x0,0xb0(%rsp)
 356:	00 00 00 00 00 
 35b:	74 17                	je     374 <_Z5test2v+0x374>
 35d:	c6 42 08 00          	movb   $0x0,0x8(%rdx)
 361:	48 8b 44 24 28       	mov    0x28(%rsp),%rax
 366:	48 c7 44 24 20 00 00 	movq   $0x0,0x20(%rsp)
 36d:	00 00 
 36f:	48 85 c0             	test   %rax,%rax
 372:	74 0d                	je     381 <_Z5test2v+0x381>
 374:	c6 40 08 00          	movb   $0x0,0x8(%rax)
 378:	48 c7 44 24 28 00 00 	movq   $0x0,0x28(%rsp)
 37f:	00 00 
 381:	48 8b 7c 24 58       	mov    0x58(%rsp),%rdi
 386:	48 85 ff             	test   %rdi,%rdi
 389:	0f 84 db 05 00 00    	je     96a <_Z5test2v+0x96a>
 38f:	48 8b 44 24 50       	mov    0x50(%rsp),%rax
 394:	48 8d 74 24 08       	lea    0x8(%rsp),%rsi
 399:	48 89 44 24 08       	mov    %rax,0x8(%rsp)
 39e:	48 8b 07             	mov    (%rdi),%rax
 3a1:	ff 50 10             	callq  *0x10(%rax)
 3a4:	48 8b 44 24 60       	mov    0x60(%rsp),%rax
 3a9:	48 85 c0             	test   %rax,%rax
 3ac:	0f 84 55 01 00 00    	je     507 <_Z5test2v+0x507>
 3b2:	48 8b 00             	mov    (%rax),%rax
 3b5:	48 c7 84 24 e8 00 00 	movq   $0x0,0xe8(%rsp)
 3bc:	00 00 00 00 00 
 3c1:	48 8d 54 24 70       	lea    0x70(%rsp),%rdx
 3c6:	48 c7 84 24 e0 00 00 	movq   $0x0,0xe0(%rsp)
 3cd:	00 00 00 00 00 
 3d2:	4c 8d ac 24 d0 00 00 	lea    0xd0(%rsp),%r13
 3d9:	00 
 3da:	48 89 84 24 d0 00 00 	mov    %rax,0xd0(%rsp)
 3e1:	00 
 3e2:	48 8b 18             	mov    (%rax),%rbx
 3e5:	48 8d 44 24 07       	lea    0x7(%rsp),%rax
 3ea:	c6 44 24 07 00       	movb   $0x0,0x7(%rsp)
 3ef:	4c 89 6c 24 78       	mov    %r13,0x78(%rsp)
 3f4:	48 89 44 24 70       	mov    %rax,0x70(%rsp)
 3f9:	48 8b 05 00 00 00 00 	mov    0x0(%rip),%rax        # 400 <_Z5test2v+0x400>
 400:	48 89 9c 24 80 00 00 	mov    %rbx,0x80(%rsp)
 407:	00 
 408:	48 c7 84 24 88 00 00 	movq   $0x0,0x88(%rsp)
 40f:	00 00 00 00 00 
 414:	48 c7 84 24 90 00 00 	movq   $0x0,0x90(%rsp)
 41b:	00 00 00 00 00 
 420:	64 48 89 10          	mov    %rdx,%fs:(%rax)
 424:	48 8b 05 00 00 00 00 	mov    0x0(%rip),%rax        # 42b <_Z5test2v+0x42b>
 42b:	64 48 c7 00 00 00 00 	movq   $0x0,%fs:(%rax)
 432:	00 
 433:	b8 00 00 00 00       	mov    $0x0,%eax
 438:	48 85 c0             	test   %rax,%rax
 43b:	0f 84 3c 05 00 00    	je     97d <_Z5test2v+0x97d>
 441:	48 8d 7b 18          	lea    0x18(%rbx),%rdi
 445:	be 00 00 00 00       	mov    $0x0,%esi
 44a:	e8 00 00 00 00       	callq  44f <_Z5test2v+0x44f>
 44f:	85 c0                	test   %eax,%eax
 451:	0f 85 2b 05 00 00    	jne    982 <_Z5test2v+0x982>
 457:	80 7c 24 07 00       	cmpb   $0x0,0x7(%rsp)
 45c:	75 51                	jne    4af <_Z5test2v+0x4af>
 45e:	bf 02 00 00 00       	mov    $0x2,%edi
 463:	e8 00 00 00 00       	callq  468 <_Z5test2v+0x468>
 468:	80 bc 24 a9 00 00 00 	cmpb   $0x0,0xa9(%rsp)
 46f:	00 
 470:	48 89 6c 24 20       	mov    %rbp,0x20(%rsp)
 475:	0f 85 4e 03 00 00    	jne    7c9 <_Z5test2v+0x7c9>
 47b:	48 8b 54 24 28       	mov    0x28(%rsp),%rdx
 480:	48 85 d2             	test   %rdx,%rdx
 483:	0f 85 45 fe ff ff    	jne    2ce <_Z5test2v+0x2ce>
 489:	80 bc 24 a4 00 00 00 	cmpb   $0x0,0xa4(%rsp)
 490:	00 
 491:	0f 85 8e 06 00 00    	jne    b25 <_Z5test2v+0xb25>
 497:	c7 84 24 a0 00 00 00 	movl   $0x5,0xa0(%rsp)
 49e:	05 00 00 00 
 4a2:	c6 84 24 a4 00 00 00 	movb   $0x1,0xa4(%rsp)
 4a9:	01 
 4aa:	48 89 e8             	mov    %rbp,%rax
 4ad:	eb 72                	jmp    521 <_Z5test2v+0x521>
 4af:	48 8d 7b 10          	lea    0x10(%rbx),%rdi
 4b3:	b8 01 00 00 00       	mov    $0x1,%eax
 4b8:	87 07                	xchg   %eax,(%rdi)
 4ba:	85 c0                	test   %eax,%eax
 4bc:	0f 88 ce 05 00 00    	js     a90 <_Z5test2v+0xa90>
 4c2:	48 8b 84 24 e0 00 00 	mov    0xe0(%rsp),%rax
 4c9:	00 
 4ca:	48 85 c0             	test   %rax,%rax
 4cd:	74 0d                	je     4dc <_Z5test2v+0x4dc>
 4cf:	ba 03 00 00 00       	mov    $0x3,%edx
 4d4:	4c 89 ee             	mov    %r13,%rsi
 4d7:	4c 89 ef             	mov    %r13,%rdi
 4da:	ff d0                	callq  *%rax
 4dc:	4c 8b 6c 24 60       	mov    0x60(%rsp),%r13
 4e1:	4d 85 ed             	test   %r13,%r13
 4e4:	74 21                	je     507 <_Z5test2v+0x507>
 4e6:	49 8b 5d 08          	mov    0x8(%r13),%rbx
 4ea:	48 85 db             	test   %rbx,%rbx
 4ed:	74 0b                	je     4fa <_Z5test2v+0x4fa>
 4ef:	f0 83 6b 08 01       	lock subl $0x1,0x8(%rbx)
 4f4:	0f 84 fc 04 00 00    	je     9f6 <_Z5test2v+0x9f6>
 4fa:	be 10 00 00 00       	mov    $0x10,%esi
 4ff:	4c 89 ef             	mov    %r13,%rdi
 502:	e8 00 00 00 00       	callq  507 <_Z5test2v+0x507>
 507:	48 8b 7c 24 58       	mov    0x58(%rsp),%rdi
 50c:	48 85 ff             	test   %rdi,%rdi
 50f:	74 06                	je     517 <_Z5test2v+0x517>
 511:	48 8b 07             	mov    (%rdi),%rax
 514:	ff 50 08             	callq  *0x8(%rax)
 517:	48 8b 44 24 20       	mov    0x20(%rsp),%rax
 51c:	48 85 c0             	test   %rax,%rax
 51f:	74 0d                	je     52e <_Z5test2v+0x52e>
 521:	c6 40 08 00          	movb   $0x0,0x8(%rax)
 525:	48 c7 44 24 20 00 00 	movq   $0x0,0x20(%rsp)
 52c:	00 00 
 52e:	48 8b 44 24 28       	mov    0x28(%rsp),%rax
 533:	48 85 c0             	test   %rax,%rax
 536:	74 04                	je     53c <_Z5test2v+0x53c>
 538:	c6 40 08 00          	movb   $0x0,0x8(%rax)
 53c:	80 7c 24 34 00       	cmpb   $0x0,0x34(%rsp)
 541:	0f 84 b1 02 00 00    	je     7f8 <_Z5test2v+0x7f8>
 547:	48 c7 44 24 50 00 00 	movq   $0x0,0x50(%rsp)
 54e:	00 00 
 550:	48 c7 44 24 58 00 00 	movq   $0x0,0x58(%rsp)
 557:	00 00 
 559:	0f 1f 80 00 00 00 00 	nopl   0x0(%rax)
 560:	31 db                	xor    %ebx,%ebx
 562:	eb 2f                	jmp    593 <_Z5test2v+0x593>
 564:	0f 1f 40 00          	nopl   0x0(%rax)
 568:	48 81 fb f9 00 00 00 	cmp    $0xf9,%rbx
 56f:	76 6f                	jbe    5e0 <_Z5test2v+0x5e0>
 571:	48 8d 7c 24 70       	lea    0x70(%rsp),%rdi
 576:	31 f6                	xor    %esi,%esi
 578:	48 c7 44 24 70 00 00 	movq   $0x0,0x70(%rsp)
 57f:	00 00 
 581:	48 c7 44 24 78 40 42 	movq   $0xf4240,0x78(%rsp)
 588:	0f 00 
 58a:	e8 00 00 00 00       	callq  58f <_Z5test2v+0x58f>
 58f:	48 83 c3 01          	add    $0x1,%rbx
 593:	0f b6 44 24 38       	movzbl 0x38(%rsp),%eax
 598:	84 c0                	test   %al,%al
 59a:	74 14                	je     5b0 <_Z5test2v+0x5b0>
 59c:	48 83 fb 7c          	cmp    $0x7c,%rbx
 5a0:	77 c6                	ja     568 <_Z5test2v+0x568>
 5a2:	f3 90                	pause  
 5a4:	eb e9                	jmp    58f <_Z5test2v+0x58f>
 5a6:	66 2e 0f 1f 84 00 00 	nopw   %cs:0x0(%rax,%rax,1)
 5ad:	00 00 00 
 5b0:	b8 01 00 00 00       	mov    $0x1,%eax
 5b5:	89 c2                	mov    %eax,%edx
 5b7:	86 54 24 38          	xchg   %dl,0x38(%rsp)
 5bb:	84 d2                	test   %dl,%dl
 5bd:	75 dd                	jne    59c <_Z5test2v+0x59c>
 5bf:	48 8b 54 24 40       	mov    0x40(%rsp),%rdx
 5c4:	48 85 d2             	test   %rdx,%rdx
 5c7:	0f 84 f2 01 00 00    	je     7bf <_Z5test2v+0x7bf>
 5cd:	0f b6 4a 08          	movzbl 0x8(%rdx),%ecx
 5d1:	48 8d 72 08          	lea    0x8(%rdx),%rsi
 5d5:	84 c9                	test   %cl,%cl
 5d7:	74 17                	je     5f0 <_Z5test2v+0x5f0>
 5d9:	c6 44 24 38 00       	movb   $0x0,0x38(%rsp)
 5de:	eb 80                	jmp    560 <_Z5test2v+0x560>
 5e0:	e8 00 00 00 00       	callq  5e5 <_Z5test2v+0x5e5>
 5e5:	eb a8                	jmp    58f <_Z5test2v+0x58f>
 5e7:	66 0f 1f 84 00 00 00 	nopw   0x0(%rax,%rax,1)
 5ee:	00 00 
 5f0:	86 06                	xchg   %al,(%rsi)
 5f2:	84 c0                	test   %al,%al
 5f4:	75 e3                	jne    5d9 <_Z5test2v+0x5d9>
 5f6:	48 89 54 24 50       	mov    %rdx,0x50(%rsp)
 5fb:	4c 89 64 24 58       	mov    %r12,0x58(%rsp)
 600:	80 7c 24 39 00       	cmpb   $0x0,0x39(%rsp)
 605:	0f 85 94 04 00 00    	jne    a9f <_Z5test2v+0xa9f>
 60b:	48 83 7c 24 40 00    	cmpq   $0x0,0x40(%rsp)
 611:	0f b6 44 24 34       	movzbl 0x34(%rsp),%eax
 616:	0f 84 74 03 00 00    	je     990 <_Z5test2v+0x990>
 61c:	3c 02                	cmp    $0x2,%al
 61e:	8b 6c 24 30          	mov    0x30(%rsp),%ebp
 622:	0f 84 8d 01 00 00    	je     7b5 <_Z5test2v+0x7b5>
 628:	3c 03                	cmp    $0x3,%al
 62a:	0f 84 85 01 00 00    	je     7b5 <_Z5test2v+0x7b5>
 630:	3c 01                	cmp    $0x1,%al
 632:	0f 84 7d 01 00 00    	je     7b5 <_Z5test2v+0x7b5>
 638:	48 8b 44 24 50       	mov    0x50(%rsp),%rax
 63d:	48 85 c0             	test   %rax,%rax
 640:	74 17                	je     659 <_Z5test2v+0x659>
 642:	c6 40 08 00          	movb   $0x0,0x8(%rax)
 646:	4c 8b 64 24 58       	mov    0x58(%rsp),%r12
 64b:	48 c7 44 24 50 00 00 	movq   $0x0,0x50(%rsp)
 652:	00 00 
 654:	4d 85 e4             	test   %r12,%r12
 657:	74 06                	je     65f <_Z5test2v+0x65f>
 659:	41 c6 44 24 08 00    	movb   $0x0,0x8(%r12)
 65f:	48 83 7c 24 40 00    	cmpq   $0x0,0x40(%rsp)
 665:	0f 84 1e 02 00 00    	je     889 <_Z5test2v+0x889>
 66b:	31 db                	xor    %ebx,%ebx
 66d:	eb 2c                	jmp    69b <_Z5test2v+0x69b>
 66f:	90                   	nop
 670:	48 81 fb f9 00 00 00 	cmp    $0xf9,%rbx
 677:	76 67                	jbe    6e0 <_Z5test2v+0x6e0>
 679:	48 8d 7c 24 70       	lea    0x70(%rsp),%rdi
 67e:	31 f6                	xor    %esi,%esi
 680:	48 c7 44 24 70 00 00 	movq   $0x0,0x70(%rsp)
 687:	00 00 
 689:	48 c7 44 24 78 40 42 	movq   $0xf4240,0x78(%rsp)
 690:	0f 00 
 692:	e8 00 00 00 00       	callq  697 <_Z5test2v+0x697>
 697:	48 83 c3 01          	add    $0x1,%rbx
 69b:	0f b6 44 24 38       	movzbl 0x38(%rsp),%eax
 6a0:	84 c0                	test   %al,%al
 6a2:	74 0c                	je     6b0 <_Z5test2v+0x6b0>
 6a4:	48 83 fb 7c          	cmp    $0x7c,%rbx
 6a8:	77 c6                	ja     670 <_Z5test2v+0x670>
 6aa:	f3 90                	pause  
 6ac:	eb e9                	jmp    697 <_Z5test2v+0x697>
 6ae:	66 90                	xchg   %ax,%ax
 6b0:	b8 01 00 00 00       	mov    $0x1,%eax
 6b5:	89 c2                	mov    %eax,%edx
 6b7:	86 54 24 38          	xchg   %dl,0x38(%rsp)
 6bb:	84 d2                	test   %dl,%dl
 6bd:	75 e5                	jne    6a4 <_Z5test2v+0x6a4>
 6bf:	48 8b 54 24 40       	mov    0x40(%rsp),%rdx
 6c4:	48 85 d2             	test   %rdx,%rdx
 6c7:	0f 84 3f 02 00 00    	je     90c <_Z5test2v+0x90c>
 6cd:	0f b6 4a 08          	movzbl 0x8(%rdx),%ecx
 6d1:	48 8d 72 08          	lea    0x8(%rdx),%rsi
 6d5:	84 c9                	test   %cl,%cl
 6d7:	74 0e                	je     6e7 <_Z5test2v+0x6e7>
 6d9:	c6 44 24 38 00       	movb   $0x0,0x38(%rsp)
 6de:	eb 8b                	jmp    66b <_Z5test2v+0x66b>
 6e0:	e8 00 00 00 00       	callq  6e5 <_Z5test2v+0x6e5>
 6e5:	eb b0                	jmp    697 <_Z5test2v+0x697>
 6e7:	86 06                	xchg   %al,(%rsi)
 6e9:	84 c0                	test   %al,%al
 6eb:	75 ec                	jne    6d9 <_Z5test2v+0x6d9>
 6ed:	48 8b 44 24 40       	mov    0x40(%rsp),%rax
 6f2:	48 85 c0             	test   %rax,%rax
 6f5:	74 15                	je     70c <_Z5test2v+0x70c>
 6f7:	48 c7 40 10 00 00 00 	movq   $0x0,0x10(%rax)
 6fe:	00 
 6ff:	c6 40 09 01          	movb   $0x1,0x9(%rax)
 703:	48 c7 44 24 40 00 00 	movq   $0x0,0x40(%rsp)
 70a:	00 00 
 70c:	0f b6 44 24 34       	movzbl 0x34(%rsp),%eax
 711:	3c 02                	cmp    $0x2,%al
 713:	74 08                	je     71d <_Z5test2v+0x71d>
 715:	3c 03                	cmp    $0x3,%al
 717:	74 04                	je     71d <_Z5test2v+0x71d>
 719:	3c 01                	cmp    $0x1,%al
 71b:	75 0a                	jne    727 <_Z5test2v+0x727>
 71d:	48 85 d2             	test   %rdx,%rdx
 720:	c6 44 24 34 00       	movb   $0x0,0x34(%rsp)
 725:	74 04                	je     72b <_Z5test2v+0x72b>
 727:	c6 42 08 00          	movb   $0x0,0x8(%rdx)
 72b:	c6 44 24 38 00       	movb   $0x0,0x38(%rsp)
 730:	80 bc 24 a9 00 00 00 	cmpb   $0x0,0xa9(%rsp)
 737:	00 
 738:	0f 84 01 01 00 00    	je     83f <_Z5test2v+0x83f>
 73e:	4c 8b a4 24 c8 00 00 	mov    0xc8(%rsp),%r12
 745:	00 
 746:	4d 85 e4             	test   %r12,%r12
 749:	74 30                	je     77b <_Z5test2v+0x77b>
 74b:	49 8b 5c 24 08       	mov    0x8(%r12),%rbx
 750:	48 85 db             	test   %rbx,%rbx
 753:	74 19                	je     76e <_Z5test2v+0x76e>
 755:	b8 00 00 00 00       	mov    $0x0,%eax
 75a:	48 85 c0             	test   %rax,%rax
 75d:	0f 84 6d 02 00 00    	je     9d0 <_Z5test2v+0x9d0>
 763:	f0 83 6b 08 01       	lock subl $0x1,0x8(%rbx)
 768:	0f 84 aa 02 00 00    	je     a18 <_Z5test2v+0xa18>
 76e:	be 10 00 00 00       	mov    $0x10,%esi
 773:	4c 89 e7             	mov    %r12,%rdi
 776:	e8 00 00 00 00       	callq  77b <_Z5test2v+0x77b>
 77b:	48 8b bc 24 c0 00 00 	mov    0xc0(%rsp),%rdi
 782:	00 
 783:	48 85 ff             	test   %rdi,%rdi
 786:	74 06                	je     78e <_Z5test2v+0x78e>
 788:	48 8b 07             	mov    (%rdi),%rax
 78b:	ff 50 08             	callq  *0x8(%rax)
 78e:	48 8b 8c 24 f8 00 00 	mov    0xf8(%rsp),%rcx
 795:	00 
 796:	64 48 33 0c 25 28 00 	xor    %fs:0x28,%rcx
 79d:	00 00 
 79f:	89 e8                	mov    %ebp,%eax
 7a1:	0f 85 79 03 00 00    	jne    b20 <_Z5test2v+0xb20>
 7a7:	48 81 c4 08 01 00 00 	add    $0x108,%rsp
 7ae:	5b                   	pop    %rbx
 7af:	5d                   	pop    %rbp
 7b0:	41 5c                	pop    %r12
 7b2:	41 5d                	pop    %r13
 7b4:	c3                   	retq   
 7b5:	c6 44 24 34 00       	movb   $0x0,0x34(%rsp)
 7ba:	e9 79 fe ff ff       	jmpq   638 <_Z5test2v+0x638>
 7bf:	4c 89 64 24 58       	mov    %r12,0x58(%rsp)
 7c4:	e9 37 fe ff ff       	jmpq   600 <_Z5test2v+0x600>
 7c9:	bf 01 00 00 00       	mov    $0x1,%edi
 7ce:	e8 00 00 00 00       	callq  7d3 <_Z5test2v+0x7d3>
 7d3:	3c 01                	cmp    $0x1,%al
 7d5:	75 0b                	jne    7e2 <_Z5test2v+0x7e2>
 7d7:	8b 94 24 a0 00 00 00 	mov    0xa0(%rsp),%edx
 7de:	89 54 24 30          	mov    %edx,0x30(%rsp)
 7e2:	88 44 24 34          	mov    %al,0x34(%rsp)
 7e6:	c6 84 24 a9 00 00 00 	movb   $0x1,0xa9(%rsp)
 7ed:	01 
 7ee:	4c 8d 64 24 30       	lea    0x30(%rsp),%r12
 7f3:	e9 b1 f9 ff ff       	jmpq   1a9 <_Z5test2v+0x1a9>
 7f8:	4c 89 e7             	mov    %r12,%rdi
 7fb:	e8 00 00 00 00       	callq  800 <_Z5test2v+0x800>
 800:	e9 42 fd ff ff       	jmpq   547 <_Z5test2v+0x547>
 805:	0f 1f 00             	nopl   (%rax)
 808:	b8 01 00 00 00       	mov    $0x1,%eax
 80d:	89 c2                	mov    %eax,%edx
 80f:	86 94 24 a8 00 00 00 	xchg   %dl,0xa8(%rsp)
 816:	84 d2                	test   %dl,%dl
 818:	75 65                	jne    87f <_Z5test2v+0x87f>
 81a:	48 8b 94 24 b0 00 00 	mov    0xb0(%rsp),%rdx
 821:	00 
 822:	48 85 d2             	test   %rdx,%rdx
 825:	0f 84 03 01 00 00    	je     92e <_Z5test2v+0x92e>
 82b:	0f b6 4a 08          	movzbl 0x8(%rdx),%ecx
 82f:	48 8d 72 08          	lea    0x8(%rdx),%rsi
 833:	84 c9                	test   %cl,%cl
 835:	74 78                	je     8af <_Z5test2v+0x8af>
 837:	c6 84 24 a8 00 00 00 	movb   $0x0,0xa8(%rsp)
 83e:	00 
 83f:	31 db                	xor    %ebx,%ebx
 841:	eb 30                	jmp    873 <_Z5test2v+0x873>
 843:	0f 1f 44 00 00       	nopl   0x0(%rax,%rax,1)
 848:	48 81 fb f9 00 00 00 	cmp    $0xf9,%rbx
 84f:	76 57                	jbe    8a8 <_Z5test2v+0x8a8>
 851:	48 8d 7c 24 70       	lea    0x70(%rsp),%rdi
 856:	31 f6                	xor    %esi,%esi
 858:	48 c7 44 24 70 00 00 	movq   $0x0,0x70(%rsp)
 85f:	00 00 
 861:	48 c7 44 24 78 40 42 	movq   $0xf4240,0x78(%rsp)
 868:	0f 00 
 86a:	e8 00 00 00 00       	callq  86f <_Z5test2v+0x86f>
 86f:	48 83 c3 01          	add    $0x1,%rbx
 873:	0f b6 84 24 a8 00 00 	movzbl 0xa8(%rsp),%eax
 87a:	00 
 87b:	84 c0                	test   %al,%al
 87d:	74 89                	je     808 <_Z5test2v+0x808>
 87f:	48 83 fb 7c          	cmp    $0x7c,%rbx
 883:	77 c3                	ja     848 <_Z5test2v+0x848>
 885:	f3 90                	pause  
 887:	eb e6                	jmp    86f <_Z5test2v+0x86f>
 889:	80 7c 24 34 00       	cmpb   $0x0,0x34(%rsp)
 88e:	0f 85 d7 fd ff ff    	jne    66b <_Z5test2v+0x66b>
 894:	80 7c 24 39 00       	cmpb   $0x0,0x39(%rsp)
 899:	0f 84 91 fe ff ff    	je     730 <_Z5test2v+0x730>
 89f:	e9 c7 fd ff ff       	jmpq   66b <_Z5test2v+0x66b>
 8a4:	0f 1f 40 00          	nopl   0x0(%rax)
 8a8:	e8 00 00 00 00       	callq  8ad <_Z5test2v+0x8ad>
 8ad:	eb c0                	jmp    86f <_Z5test2v+0x86f>
 8af:	86 06                	xchg   %al,(%rsi)
 8b1:	84 c0                	test   %al,%al
 8b3:	75 82                	jne    837 <_Z5test2v+0x837>
 8b5:	0f b6 84 24 a4 00 00 	movzbl 0xa4(%rsp),%eax
 8bc:	00 
 8bd:	c6 42 09 01          	movb   $0x1,0x9(%rdx)
 8c1:	48 c7 42 10 00 00 00 	movq   $0x0,0x10(%rdx)
 8c8:	00 
 8c9:	48 c7 84 24 b0 00 00 	movq   $0x0,0xb0(%rsp)
 8d0:	00 00 00 00 00 
 8d5:	3c 02                	cmp    $0x2,%al
 8d7:	74 19                	je     8f2 <_Z5test2v+0x8f2>
 8d9:	3c 03                	cmp    $0x3,%al
 8db:	74 15                	je     8f2 <_Z5test2v+0x8f2>
 8dd:	3c 01                	cmp    $0x1,%al
 8df:	74 11                	je     8f2 <_Z5test2v+0x8f2>
 8e1:	c6 84 24 a8 00 00 00 	movb   $0x0,0xa8(%rsp)
 8e8:	00 
 8e9:	c6 42 08 00          	movb   $0x0,0x8(%rdx)
 8ed:	e9 4c fe ff ff       	jmpq   73e <_Z5test2v+0x73e>
 8f2:	48 85 d2             	test   %rdx,%rdx
 8f5:	c6 84 24 a4 00 00 00 	movb   $0x0,0xa4(%rsp)
 8fc:	00 
 8fd:	c6 84 24 a8 00 00 00 	movb   $0x0,0xa8(%rsp)
 904:	00 
 905:	75 e2                	jne    8e9 <_Z5test2v+0x8e9>
 907:	e9 32 fe ff ff       	jmpq   73e <_Z5test2v+0x73e>
 90c:	0f b6 44 24 34       	movzbl 0x34(%rsp),%eax
 911:	3c 02                	cmp    $0x2,%al
 913:	0f 84 04 fe ff ff    	je     71d <_Z5test2v+0x71d>
 919:	3c 03                	cmp    $0x3,%al
 91b:	0f 84 fc fd ff ff    	je     71d <_Z5test2v+0x71d>
 921:	3c 01                	cmp    $0x1,%al
 923:	0f 85 02 fe ff ff    	jne    72b <_Z5test2v+0x72b>
 929:	e9 ef fd ff ff       	jmpq   71d <_Z5test2v+0x71d>
 92e:	0f b6 84 24 a4 00 00 	movzbl 0xa4(%rsp),%eax
 935:	00 
 936:	48 c7 84 24 b0 00 00 	movq   $0x0,0xb0(%rsp)
 93d:	00 00 00 00 00 
 942:	3c 02                	cmp    $0x2,%al
 944:	74 ac                	je     8f2 <_Z5test2v+0x8f2>
 946:	3c 03                	cmp    $0x3,%al
 948:	74 a8                	je     8f2 <_Z5test2v+0x8f2>
 94a:	3c 01                	cmp    $0x1,%al
 94c:	74 a4                	je     8f2 <_Z5test2v+0x8f2>
 94e:	c6 84 24 a8 00 00 00 	movb   $0x0,0xa8(%rsp)
 955:	00 
 956:	e9 e3 fd ff ff       	jmpq   73e <_Z5test2v+0x73e>
 95b:	c7 02 05 00 00 00    	movl   $0x5,(%rdx)
 961:	c6 42 04 01          	movb   $0x1,0x4(%rdx)
 965:	e9 89 f9 ff ff       	jmpq   2f3 <_Z5test2v+0x2f3>
 96a:	48 8b 44 24 60       	mov    0x60(%rsp),%rax
 96f:	48 85 c0             	test   %rax,%rax
 972:	0f 85 3a fa ff ff    	jne    3b2 <_Z5test2v+0x3b2>
 978:	e9 9a fb ff ff       	jmpq   517 <_Z5test2v+0x517>
 97d:	b8 ff ff ff ff       	mov    $0xffffffff,%eax
 982:	89 c7                	mov    %eax,%edi
 984:	e8 00 00 00 00       	callq  989 <_Z5test2v+0x989>
 989:	0f 1f 80 00 00 00 00 	nopl   0x0(%rax)
 990:	84 c0                	test   %al,%al
 992:	0f 85 84 fc ff ff    	jne    61c <_Z5test2v+0x61c>
 998:	bf 20 00 00 00       	mov    $0x20,%edi
 99d:	e8 00 00 00 00       	callq  9a2 <_Z5test2v+0x9a2>
 9a2:	49 89 c5             	mov    %rax,%r13
 9a5:	e8 00 00 00 00       	callq  9aa <_Z5test2v+0x9aa>
 9aa:	be 03 00 00 00       	mov    $0x3,%esi
 9af:	48 89 c2             	mov    %rax,%rdx
 9b2:	4c 89 ef             	mov    %r13,%rdi
 9b5:	e8 00 00 00 00       	callq  9ba <_Z5test2v+0x9ba>
 9ba:	ba 00 00 00 00       	mov    $0x0,%edx
 9bf:	be 00 00 00 00       	mov    $0x0,%esi
 9c4:	4c 89 ef             	mov    %r13,%rdi
 9c7:	e8 00 00 00 00       	callq  9cc <_Z5test2v+0x9cc>
 9cc:	0f 1f 40 00          	nopl   0x0(%rax)
 9d0:	8b 43 08             	mov    0x8(%rbx),%eax
 9d3:	8d 50 ff             	lea    -0x1(%rax),%edx
 9d6:	83 f8 01             	cmp    $0x1,%eax
 9d9:	89 53 08             	mov    %edx,0x8(%rbx)
 9dc:	0f 85 8c fd ff ff    	jne    76e <_Z5test2v+0x76e>
 9e2:	48 8b 03             	mov    (%rbx),%rax
 9e5:	48 89 df             	mov    %rbx,%rdi
 9e8:	ff 50 10             	callq  *0x10(%rax)
 9eb:	8b 43 0c             	mov    0xc(%rbx),%eax
 9ee:	8d 50 ff             	lea    -0x1(%rax),%edx
 9f1:	89 53 0c             	mov    %edx,0xc(%rbx)
 9f4:	eb 35                	jmp    a2b <_Z5test2v+0xa2b>
 9f6:	48 8b 03             	mov    (%rbx),%rax
 9f9:	48 89 df             	mov    %rbx,%rdi
 9fc:	ff 50 10             	callq  *0x10(%rax)
 9ff:	f0 83 6b 0c 01       	lock subl $0x1,0xc(%rbx)
 a04:	0f 85 f0 fa ff ff    	jne    4fa <_Z5test2v+0x4fa>
 a0a:	48 8b 03             	mov    (%rbx),%rax
 a0d:	48 89 df             	mov    %rbx,%rdi
 a10:	ff 50 18             	callq  *0x18(%rax)
 a13:	e9 e2 fa ff ff       	jmpq   4fa <_Z5test2v+0x4fa>
 a18:	48 8b 03             	mov    (%rbx),%rax
 a1b:	48 89 df             	mov    %rbx,%rdi
 a1e:	ff 50 10             	callq  *0x10(%rax)
 a21:	b8 ff ff ff ff       	mov    $0xffffffff,%eax
 a26:	f0 0f c1 43 0c       	lock xadd %eax,0xc(%rbx)
 a2b:	83 f8 01             	cmp    $0x1,%eax
 a2e:	0f 85 3a fd ff ff    	jne    76e <_Z5test2v+0x76e>
 a34:	48 8b 03             	mov    (%rbx),%rax
 a37:	48 89 df             	mov    %rbx,%rdi
 a3a:	ff 50 18             	callq  *0x18(%rax)
 a3d:	e9 2c fd ff ff       	jmpq   76e <_Z5test2v+0x76e>
 a42:	48 89 c3             	mov    %rax,%rbx
 a45:	48 8b 84 24 e0 00 00 	mov    0xe0(%rsp),%rax
 a4c:	00 
 a4d:	48 85 c0             	test   %rax,%rax
 a50:	74 0d                	je     a5f <_Z5test2v+0xa5f>
 a52:	ba 03 00 00 00       	mov    $0x3,%edx
 a57:	4c 89 ee             	mov    %r13,%rsi
 a5a:	4c 89 ef             	mov    %r13,%rdi
 a5d:	ff d0                	callq  *%rax
 a5f:	48 8d 7c 24 50       	lea    0x50(%rsp),%rdi
 a64:	e8 00 00 00 00       	callq  a69 <_Z5test2v+0xa69>
 a69:	48 8d 7c 24 20       	lea    0x20(%rsp),%rdi
 a6e:	e8 00 00 00 00       	callq  a73 <_Z5test2v+0xa73>
 a73:	4c 89 e7             	mov    %r12,%rdi
 a76:	e8 00 00 00 00       	callq  a7b <_Z5test2v+0xa7b>
 a7b:	48 89 ef             	mov    %rbp,%rdi
 a7e:	e8 00 00 00 00       	callq  a83 <_Z5test2v+0xa83>
 a83:	48 89 df             	mov    %rbx,%rdi
 a86:	e8 00 00 00 00       	callq  a8b <_Z5test2v+0xa8b>
 a8b:	48 89 c3             	mov    %rax,%rbx
 a8e:	eb d9                	jmp    a69 <_Z5test2v+0xa69>
 a90:	e8 00 00 00 00       	callq  a95 <_Z5test2v+0xa95>
 a95:	e9 28 fa ff ff       	jmpq   4c2 <_Z5test2v+0x4c2>
 a9a:	48 89 c3             	mov    %rax,%rbx
 a9d:	eb d4                	jmp    a73 <_Z5test2v+0xa73>
 a9f:	bf 20 00 00 00       	mov    $0x20,%edi
 aa4:	e8 00 00 00 00       	callq  aa9 <_Z5test2v+0xaa9>
 aa9:	49 89 c5             	mov    %rax,%r13
 aac:	e8 00 00 00 00       	callq  ab1 <_Z5test2v+0xab1>
 ab1:	be 04 00 00 00       	mov    $0x4,%esi
 ab6:	48 89 c2             	mov    %rax,%rdx
 ab9:	4c 89 ef             	mov    %r13,%rdi
 abc:	e8 00 00 00 00       	callq  ac1 <_Z5test2v+0xac1>
 ac1:	ba 00 00 00 00       	mov    $0x0,%edx
 ac6:	be 00 00 00 00       	mov    $0x0,%esi
 acb:	4c 89 ef             	mov    %r13,%rdi
 ace:	e8 00 00 00 00       	callq  ad3 <_Z5test2v+0xad3>
 ad3:	4c 89 e7             	mov    %r12,%rdi
 ad6:	48 89 c3             	mov    %rax,%rbx
 ad9:	e8 00 00 00 00       	callq  ade <_Z5test2v+0xade>
 ade:	48 8d 7c 24 10       	lea    0x10(%rsp),%rdi
 ae3:	e8 00 00 00 00       	callq  ae8 <_Z5test2v+0xae8>
 ae8:	eb 91                	jmp    a7b <_Z5test2v+0xa7b>
 aea:	48 89 c3             	mov    %rax,%rbx
 aed:	eb ef                	jmp    ade <_Z5test2v+0xade>
 aef:	bf 01 00 00 00       	mov    $0x1,%edi
 af4:	e8 00 00 00 00       	callq  af9 <_Z5test2v+0xaf9>
 af9:	48 89 c3             	mov    %rax,%rbx
 afc:	48 8d 7c 24 50       	lea    0x50(%rsp),%rdi
 b01:	e8 00 00 00 00       	callq  b06 <_Z5test2v+0xb06>
 b06:	e9 68 ff ff ff       	jmpq   a73 <_Z5test2v+0xa73>
 b0b:	4c 89 ef             	mov    %r13,%rdi
 b0e:	48 89 c3             	mov    %rax,%rbx
 b11:	e8 00 00 00 00       	callq  b16 <_Z5test2v+0xb16>
 b16:	eb e4                	jmp    afc <_Z5test2v+0xafc>
 b18:	48 89 c3             	mov    %rax,%rbx
 b1b:	e9 3f ff ff ff       	jmpq   a5f <_Z5test2v+0xa5f>
 b20:	e8 00 00 00 00       	callq  b25 <_Z5test2v+0xb25>
 b25:	bf 01 00 00 00       	mov    $0x1,%edi
 b2a:	e8 00 00 00 00       	callq  b2f <_Z5test2v+0xb2f>
 b2f:	eb da                	jmp    b0b <_Z5test2v+0xb0b>
