  10:	41 55                	push   %r13
  12:	41 54                	push   %r12
  14:	55                   	push   %rbp
  15:	53                   	push   %rbx
  16:	48 83 ec 78          	sub    $0x78,%rsp
  1a:	c6 44 24 38 00       	movb   $0x0,0x38(%rsp)
  1f:	c6 44 24 40 00       	movb   $0x0,0x40(%rsp)
  24:	c6 44 24 41 00       	movb   $0x0,0x41(%rsp)
  29:	48 c7 44 24 20 00 00 	movq   $0x0,0x20(%rsp)
  30:	00 00 
  32:	48 c7 44 24 28 00 00 	movq   $0x0,0x28(%rsp)
  39:	00 00 
  3b:	0f 1f 44 00 00       	nopl   0x0(%rax,%rax,1)
  40:	31 db                	xor    %ebx,%ebx
  42:	eb 2f                	jmp    73 <_Z5test2v+0x73>
  44:	0f 1f 40 00          	nopl   0x0(%rax)
  48:	48 81 fb f9 00 00 00 	cmp    $0xf9,%rbx
  4f:	76 77                	jbe    c8 <_Z5test2v+0xc8>
  51:	48 8d 7c 24 50       	lea    0x50(%rsp),%rdi
  56:	31 f6                	xor    %esi,%esi
  58:	48 c7 44 24 50 00 00 	movq   $0x0,0x50(%rsp)
  5f:	00 00 
  61:	48 c7 44 24 58 40 42 	movq   $0xf4240,0x58(%rsp)
  68:	0f 00 
  6a:	e8 00 00 00 00       	callq  6f <_Z5test2v+0x6f>
  6f:	48 83 c3 01          	add    $0x1,%rbx
  73:	0f b6 44 24 41       	movzbl 0x41(%rsp),%eax
  78:	84 c0                	test   %al,%al
  7a:	74 14                	je     90 <_Z5test2v+0x90>
  7c:	48 83 fb 7c          	cmp    $0x7c,%rbx
  80:	77 c6                	ja     48 <_Z5test2v+0x48>
  82:	f3 90                	pause  
  84:	eb e9                	jmp    6f <_Z5test2v+0x6f>
  86:	66 2e 0f 1f 84 00 00 	nopw   %cs:0x0(%rax,%rax,1)
  8d:	00 00 00 
  90:	b8 01 00 00 00       	mov    $0x1,%eax
  95:	89 c2                	mov    %eax,%edx
  97:	86 54 24 41          	xchg   %dl,0x41(%rsp)
  9b:	84 d2                	test   %dl,%dl
  9d:	75 dd                	jne    7c <_Z5test2v+0x7c>
  9f:	80 7c 24 38 04       	cmpb   $0x4,0x38(%rsp)
  a4:	0f 85 58 01 00 00    	jne    202 <_Z5test2v+0x202>
  aa:	48 8b 54 24 30       	mov    0x30(%rsp),%rdx
  af:	48 8d 4a 11          	lea    0x11(%rdx),%rcx
  b3:	0f b6 52 11          	movzbl 0x11(%rdx),%edx
  b7:	84 d2                	test   %dl,%dl
  b9:	74 15                	je     d0 <_Z5test2v+0xd0>
  bb:	c6 44 24 41 00       	movb   $0x0,0x41(%rsp)
  c0:	e9 7b ff ff ff       	jmpq   40 <_Z5test2v+0x40>
  c5:	0f 1f 00             	nopl   (%rax)
  c8:	e8 00 00 00 00       	callq  cd <_Z5test2v+0xcd>
  cd:	eb a0                	jmp    6f <_Z5test2v+0x6f>
  cf:	90                   	nop
  d0:	86 01                	xchg   %al,(%rcx)
  d2:	84 c0                	test   %al,%al
  d4:	75 e5                	jne    bb <_Z5test2v+0xbb>
  d6:	48 8b 44 24 30       	mov    0x30(%rsp),%rax
  db:	48 8d 6c 24 30       	lea    0x30(%rsp),%rbp
  e0:	48 89 6c 24 20       	mov    %rbp,0x20(%rsp)
  e5:	48 89 44 24 28       	mov    %rax,0x28(%rsp)
  ea:	48 85 c0             	test   %rax,%rax
  ed:	0f 85 12 08 00 00    	jne    905 <_Z5test2v+0x905>
  f3:	80 7c 24 40 00       	cmpb   $0x0,0x40(%rsp)
  f8:	0f 85 07 08 00 00    	jne    905 <_Z5test2v+0x905>
  fe:	0f b6 44 24 38       	movzbl 0x38(%rsp),%eax
 103:	3c 01                	cmp    $0x1,%al
 105:	0f 84 f6 04 00 00    	je     601 <_Z5test2v+0x601>
 10b:	3c 04                	cmp    $0x4,%al
 10d:	0f 85 03 01 00 00    	jne    216 <_Z5test2v+0x216>
 113:	48 8b 44 24 30       	mov    0x30(%rsp),%rax
 118:	c6 44 24 58 04       	movb   $0x4,0x58(%rsp)
 11d:	c6 44 24 60 00       	movb   $0x0,0x60(%rsp)
 122:	c6 44 24 61 00       	movb   $0x0,0x61(%rsp)
 127:	48 89 44 24 50       	mov    %rax,0x50(%rsp)
 12c:	48 c7 44 24 30 00 00 	movq   $0x0,0x30(%rsp)
 133:	00 00 
 135:	c6 44 24 38 00       	movb   $0x0,0x38(%rsp)
 13a:	4c 8d 64 24 50       	lea    0x50(%rsp),%r12
 13f:	c6 44 24 40 01       	movb   $0x1,0x40(%rsp)
 144:	48 c7 44 24 68 00 00 	movq   $0x0,0x68(%rsp)
 14b:	00 00 
 14d:	48 8b 44 24 20       	mov    0x20(%rsp),%rax
 152:	48 85 c0             	test   %rax,%rax
 155:	74 0d                	je     164 <_Z5test2v+0x164>
 157:	c6 40 11 00          	movb   $0x0,0x11(%rax)
 15b:	48 c7 44 24 20 00 00 	movq   $0x0,0x20(%rsp)
 162:	00 00 
 164:	48 8b 44 24 28       	mov    0x28(%rsp),%rax
 169:	48 85 c0             	test   %rax,%rax
 16c:	74 32                	je     1a0 <_Z5test2v+0x1a0>
 16e:	c6 40 11 00          	movb   $0x0,0x11(%rax)
 172:	48 8b 44 24 20       	mov    0x20(%rsp),%rax
 177:	48 c7 44 24 28 00 00 	movq   $0x0,0x28(%rsp)
 17e:	00 00 
 180:	48 85 c0             	test   %rax,%rax
 183:	74 1b                	je     1a0 <_Z5test2v+0x1a0>
 185:	c6 40 11 00          	movb   $0x0,0x11(%rax)
 189:	48 8b 44 24 28       	mov    0x28(%rsp),%rax
 18e:	48 c7 44 24 20 00 00 	movq   $0x0,0x20(%rsp)
 195:	00 00 
 197:	48 85 c0             	test   %rax,%rax
 19a:	74 04                	je     1a0 <_Z5test2v+0x1a0>
 19c:	c6 40 11 00          	movb   $0x0,0x11(%rax)
 1a0:	48 c7 04 24 00 00 00 	movq   $0x0,(%rsp)
 1a7:	00 
 1a8:	48 c7 44 24 08 00 00 	movq   $0x0,0x8(%rsp)
 1af:	00 00 
 1b1:	0f 1f 80 00 00 00 00 	nopl   0x0(%rax)
 1b8:	31 db                	xor    %ebx,%ebx
 1ba:	eb 33                	jmp    1ef <_Z5test2v+0x1ef>
 1bc:	0f 1f 40 00          	nopl   0x0(%rax)
 1c0:	48 81 fb f9 00 00 00 	cmp    $0xf9,%rbx
 1c7:	0f 86 d3 00 00 00    	jbe    2a0 <_Z5test2v+0x2a0>
 1cd:	48 8d 7c 24 20       	lea    0x20(%rsp),%rdi
 1d2:	31 f6                	xor    %esi,%esi
 1d4:	48 c7 44 24 20 00 00 	movq   $0x0,0x20(%rsp)
 1db:	00 00 
 1dd:	48 c7 44 24 28 40 42 	movq   $0xf4240,0x28(%rsp)
 1e4:	0f 00 
 1e6:	e8 00 00 00 00       	callq  1eb <_Z5test2v+0x1eb>
 1eb:	48 83 c3 01          	add    $0x1,%rbx
 1ef:	0f b6 44 24 41       	movzbl 0x41(%rsp),%eax
 1f4:	84 c0                	test   %al,%al
 1f6:	74 70                	je     268 <_Z5test2v+0x268>
 1f8:	48 83 fb 7c          	cmp    $0x7c,%rbx
 1fc:	77 c2                	ja     1c0 <_Z5test2v+0x1c0>
 1fe:	f3 90                	pause  
 200:	eb e9                	jmp    1eb <_Z5test2v+0x1eb>
 202:	48 8d 6c 24 30       	lea    0x30(%rsp),%rbp
 207:	48 8b 44 24 28       	mov    0x28(%rsp),%rax
 20c:	48 89 6c 24 20       	mov    %rbp,0x20(%rsp)
 211:	e9 d4 fe ff ff       	jmpq   ea <_Z5test2v+0xea>
 216:	3c 02                	cmp    $0x2,%al
 218:	88 44 24 58          	mov    %al,0x58(%rsp)
 21c:	c6 44 24 60 00       	movb   $0x0,0x60(%rsp)
 221:	c6 44 24 61 00       	movb   $0x0,0x61(%rsp)
 226:	48 89 6c 24 68       	mov    %rbp,0x68(%rsp)
 22b:	0f 84 04 ff ff ff    	je     135 <_Z5test2v+0x135>
 231:	0f 86 60 05 00 00    	jbe    797 <_Z5test2v+0x797>
 237:	3c 03                	cmp    $0x3,%al
 239:	0f 84 f6 fe ff ff    	je     135 <_Z5test2v+0x135>
 23f:	3c 04                	cmp    $0x4,%al
 241:	0f 84 e5 fe ff ff    	je     12c <_Z5test2v+0x12c>
 247:	84 c0                	test   %al,%al
 249:	0f 85 eb fe ff ff    	jne    13a <_Z5test2v+0x13a>
 24f:	4c 8d 64 24 50       	lea    0x50(%rsp),%r12
 254:	c6 44 24 38 04       	movb   $0x4,0x38(%rsp)
 259:	4c 89 64 24 30       	mov    %r12,0x30(%rsp)
 25e:	e9 ea fe ff ff       	jmpq   14d <_Z5test2v+0x14d>
 263:	0f 1f 44 00 00       	nopl   0x0(%rax,%rax,1)
 268:	b8 01 00 00 00       	mov    $0x1,%eax
 26d:	89 c2                	mov    %eax,%edx
 26f:	86 54 24 41          	xchg   %dl,0x41(%rsp)
 273:	84 d2                	test   %dl,%dl
 275:	75 81                	jne    1f8 <_Z5test2v+0x1f8>
 277:	80 7c 24 38 04       	cmpb   $0x4,0x38(%rsp)
 27c:	0f 85 46 03 00 00    	jne    5c8 <_Z5test2v+0x5c8>
 282:	48 8b 54 24 30       	mov    0x30(%rsp),%rdx
 287:	48 8d 4a 11          	lea    0x11(%rdx),%rcx
 28b:	0f b6 52 11          	movzbl 0x11(%rdx),%edx
 28f:	84 d2                	test   %dl,%dl
 291:	74 1d                	je     2b0 <_Z5test2v+0x2b0>
 293:	c6 44 24 41 00       	movb   $0x0,0x41(%rsp)
 298:	e9 1b ff ff ff       	jmpq   1b8 <_Z5test2v+0x1b8>
 29d:	0f 1f 00             	nopl   (%rax)
 2a0:	e8 00 00 00 00       	callq  2a5 <_Z5test2v+0x2a5>
 2a5:	e9 41 ff ff ff       	jmpq   1eb <_Z5test2v+0x1eb>
 2aa:	66 0f 1f 44 00 00    	nopw   0x0(%rax,%rax,1)
 2b0:	86 01                	xchg   %al,(%rcx)
 2b2:	84 c0                	test   %al,%al
 2b4:	75 dd                	jne    293 <_Z5test2v+0x293>
 2b6:	48 8b 44 24 30       	mov    0x30(%rsp),%rax
 2bb:	48 89 2c 24          	mov    %rbp,(%rsp)
 2bf:	48 89 44 24 08       	mov    %rax,0x8(%rsp)
 2c4:	80 7c 24 40 00       	cmpb   $0x0,0x40(%rsp)
 2c9:	0f 85 93 06 00 00    	jne    962 <_Z5test2v+0x962>
 2cf:	48 8b 44 24 08       	mov    0x8(%rsp),%rax
 2d4:	48 85 c0             	test   %rax,%rax
 2d7:	0f 84 f0 04 00 00    	je     7cd <_Z5test2v+0x7cd>
 2dd:	80 78 08 00          	cmpb   $0x0,0x8(%rax)
 2e1:	0f 85 85 06 00 00    	jne    96c <_Z5test2v+0x96c>
 2e7:	c7 00 05 00 00 00    	movl   $0x5,(%rax)
 2ed:	c6 40 08 01          	movb   $0x1,0x8(%rax)
 2f1:	48 c7 40 18 00 00 00 	movq   $0x0,0x18(%rax)
 2f8:	00 
 2f9:	0f b6 44 24 38       	movzbl 0x38(%rsp),%eax
 2fe:	3c 02                	cmp    $0x2,%al
 300:	74 17                	je     319 <_Z5test2v+0x319>
 302:	0f 86 50 03 00 00    	jbe    658 <_Z5test2v+0x658>
 308:	3c 03                	cmp    $0x3,%al
 30a:	74 0d                	je     319 <_Z5test2v+0x319>
 30c:	3c 04                	cmp    $0x4,%al
 30e:	75 0e                	jne    31e <_Z5test2v+0x31e>
 310:	48 c7 44 24 30 00 00 	movq   $0x0,0x30(%rsp)
 317:	00 00 
 319:	c6 44 24 38 00       	movb   $0x0,0x38(%rsp)
 31e:	c6 44 24 40 01       	movb   $0x1,0x40(%rsp)
 323:	c6 44 24 41 00       	movb   $0x0,0x41(%rsp)
 328:	48 8b 44 24 08       	mov    0x8(%rsp),%rax
 32d:	48 c7 04 24 00 00 00 	movq   $0x0,(%rsp)
 334:	00 
 335:	48 85 c0             	test   %rax,%rax
 338:	74 04                	je     33e <_Z5test2v+0x33e>
 33a:	c6 40 11 00          	movb   $0x0,0x11(%rax)
 33e:	80 7c 24 58 00       	cmpb   $0x0,0x58(%rsp)
 343:	0f 84 88 02 00 00    	je     5d1 <_Z5test2v+0x5d1>
 349:	48 c7 44 24 10 00 00 	movq   $0x0,0x10(%rsp)
 350:	00 00 
 352:	48 c7 44 24 18 00 00 	movq   $0x0,0x18(%rsp)
 359:	00 00 
 35b:	0f 1f 44 00 00       	nopl   0x0(%rax,%rax,1)
 360:	31 db                	xor    %ebx,%ebx
 362:	eb 2f                	jmp    393 <_Z5test2v+0x393>
 364:	0f 1f 40 00          	nopl   0x0(%rax)
 368:	48 81 fb f9 00 00 00 	cmp    $0xf9,%rbx
 36f:	76 6f                	jbe    3e0 <_Z5test2v+0x3e0>
 371:	48 8d 7c 24 20       	lea    0x20(%rsp),%rdi
 376:	31 f6                	xor    %esi,%esi
 378:	48 c7 44 24 20 00 00 	movq   $0x0,0x20(%rsp)
 37f:	00 00 
 381:	48 c7 44 24 28 40 42 	movq   $0xf4240,0x28(%rsp)
 388:	0f 00 
 38a:	e8 00 00 00 00       	callq  38f <_Z5test2v+0x38f>
 38f:	48 83 c3 01          	add    $0x1,%rbx
 393:	0f b6 44 24 61       	movzbl 0x61(%rsp),%eax
 398:	84 c0                	test   %al,%al
 39a:	74 14                	je     3b0 <_Z5test2v+0x3b0>
 39c:	48 83 fb 7c          	cmp    $0x7c,%rbx
 3a0:	77 c6                	ja     368 <_Z5test2v+0x368>
 3a2:	f3 90                	pause  
 3a4:	eb e9                	jmp    38f <_Z5test2v+0x38f>
 3a6:	66 2e 0f 1f 84 00 00 	nopw   %cs:0x0(%rax,%rax,1)
 3ad:	00 00 00 
 3b0:	b8 01 00 00 00       	mov    $0x1,%eax
 3b5:	89 c2                	mov    %eax,%edx
 3b7:	86 54 24 61          	xchg   %dl,0x61(%rsp)
 3bb:	84 d2                	test   %dl,%dl
 3bd:	75 dd                	jne    39c <_Z5test2v+0x39c>
 3bf:	48 8b 54 24 68       	mov    0x68(%rsp),%rdx
 3c4:	48 85 d2             	test   %rdx,%rdx
 3c7:	0f 84 b0 01 00 00    	je     57d <_Z5test2v+0x57d>
 3cd:	48 8d 4a 11          	lea    0x11(%rdx),%rcx
 3d1:	0f b6 52 11          	movzbl 0x11(%rdx),%edx
 3d5:	84 d2                	test   %dl,%dl
 3d7:	74 17                	je     3f0 <_Z5test2v+0x3f0>
 3d9:	c6 44 24 61 00       	movb   $0x0,0x61(%rsp)
 3de:	eb 80                	jmp    360 <_Z5test2v+0x360>
 3e0:	e8 00 00 00 00       	callq  3e5 <_Z5test2v+0x3e5>
 3e5:	eb a8                	jmp    38f <_Z5test2v+0x38f>
 3e7:	66 0f 1f 84 00 00 00 	nopw   0x0(%rax,%rax,1)
 3ee:	00 00 
 3f0:	86 01                	xchg   %al,(%rcx)
 3f2:	84 c0                	test   %al,%al
 3f4:	75 e3                	jne    3d9 <_Z5test2v+0x3d9>
 3f6:	80 7c 24 60 00       	cmpb   $0x0,0x60(%rsp)
 3fb:	48 8b 44 24 68       	mov    0x68(%rsp),%rax
 400:	4c 89 64 24 18       	mov    %r12,0x18(%rsp)
 405:	48 89 44 24 10       	mov    %rax,0x10(%rsp)
 40a:	0f 85 7d 01 00 00    	jne    58d <_Z5test2v+0x58d>
 410:	48 85 c0             	test   %rax,%rax
 413:	0f 84 d1 03 00 00    	je     7ea <_Z5test2v+0x7ea>
 419:	0f b6 54 24 58       	movzbl 0x58(%rsp),%edx
 41e:	8b 6c 24 50          	mov    0x50(%rsp),%ebp
 422:	80 fa 02             	cmp    $0x2,%dl
 425:	74 19                	je     440 <_Z5test2v+0x440>
 427:	0f 86 f0 01 00 00    	jbe    61d <_Z5test2v+0x61d>
 42d:	80 fa 03             	cmp    $0x3,%dl
 430:	74 0e                	je     440 <_Z5test2v+0x440>
 432:	80 fa 04             	cmp    $0x4,%dl
 435:	75 13                	jne    44a <_Z5test2v+0x44a>
 437:	48 c7 44 24 50 00 00 	movq   $0x0,0x50(%rsp)
 43e:	00 00 
 440:	c6 44 24 58 00       	movb   $0x0,0x58(%rsp)
 445:	48 85 c0             	test   %rax,%rax
 448:	74 17                	je     461 <_Z5test2v+0x461>
 44a:	c6 40 11 00          	movb   $0x0,0x11(%rax)
 44e:	4c 8b 64 24 18       	mov    0x18(%rsp),%r12
 453:	48 c7 44 24 10 00 00 	movq   $0x0,0x10(%rsp)
 45a:	00 00 
 45c:	4d 85 e4             	test   %r12,%r12
 45f:	74 06                	je     467 <_Z5test2v+0x467>
 461:	41 c6 44 24 11 00    	movb   $0x0,0x11(%r12)
 467:	48 83 7c 24 68 00    	cmpq   $0x0,0x68(%rsp)
 46d:	0f 84 db 02 00 00    	je     74e <_Z5test2v+0x74e>
 473:	31 db                	xor    %ebx,%ebx
 475:	eb 34                	jmp    4ab <_Z5test2v+0x4ab>
 477:	66 0f 1f 84 00 00 00 	nopw   0x0(%rax,%rax,1)
 47e:	00 00 
 480:	48 81 fb f9 00 00 00 	cmp    $0xf9,%rbx
 487:	76 67                	jbe    4f0 <_Z5test2v+0x4f0>
 489:	48 8d 7c 24 20       	lea    0x20(%rsp),%rdi
 48e:	31 f6                	xor    %esi,%esi
 490:	48 c7 44 24 20 00 00 	movq   $0x0,0x20(%rsp)
 497:	00 00 
 499:	48 c7 44 24 28 40 42 	movq   $0xf4240,0x28(%rsp)
 4a0:	0f 00 
 4a2:	e8 00 00 00 00       	callq  4a7 <_Z5test2v+0x4a7>
 4a7:	48 83 c3 01          	add    $0x1,%rbx
 4ab:	0f b6 44 24 61       	movzbl 0x61(%rsp),%eax
 4b0:	84 c0                	test   %al,%al
 4b2:	74 0c                	je     4c0 <_Z5test2v+0x4c0>
 4b4:	48 83 fb 7c          	cmp    $0x7c,%rbx
 4b8:	77 c6                	ja     480 <_Z5test2v+0x480>
 4ba:	f3 90                	pause  
 4bc:	eb e9                	jmp    4a7 <_Z5test2v+0x4a7>
 4be:	66 90                	xchg   %ax,%ax
 4c0:	b8 01 00 00 00       	mov    $0x1,%eax
 4c5:	89 c2                	mov    %eax,%edx
 4c7:	86 54 24 61          	xchg   %dl,0x61(%rsp)
 4cb:	84 d2                	test   %dl,%dl
 4cd:	75 e5                	jne    4b4 <_Z5test2v+0x4b4>
 4cf:	48 8b 54 24 68       	mov    0x68(%rsp),%rdx
 4d4:	48 85 d2             	test   %rdx,%rdx
 4d7:	0f 84 4e 01 00 00    	je     62b <_Z5test2v+0x62b>
 4dd:	48 8d 4a 11          	lea    0x11(%rdx),%rcx
 4e1:	0f b6 52 11          	movzbl 0x11(%rdx),%edx
 4e5:	84 d2                	test   %dl,%dl
 4e7:	74 0e                	je     4f7 <_Z5test2v+0x4f7>
 4e9:	c6 44 24 61 00       	movb   $0x0,0x61(%rsp)
 4ee:	eb 83                	jmp    473 <_Z5test2v+0x473>
 4f0:	e8 00 00 00 00       	callq  4f5 <_Z5test2v+0x4f5>
 4f5:	eb b0                	jmp    4a7 <_Z5test2v+0x4a7>
 4f7:	86 01                	xchg   %al,(%rcx)
 4f9:	84 c0                	test   %al,%al
 4fb:	75 ec                	jne    4e9 <_Z5test2v+0x4e9>
 4fd:	48 8b 44 24 68       	mov    0x68(%rsp),%rax
 502:	48 85 c0             	test   %rax,%rax
 505:	0f 84 20 01 00 00    	je     62b <_Z5test2v+0x62b>
 50b:	0f b6 50 08          	movzbl 0x8(%rax),%edx
 50f:	80 fa 02             	cmp    $0x2,%dl
 512:	74 17                	je     52b <_Z5test2v+0x52b>
 514:	0f 86 6f 02 00 00    	jbe    789 <_Z5test2v+0x789>
 51a:	80 fa 03             	cmp    $0x3,%dl
 51d:	74 0c                	je     52b <_Z5test2v+0x52b>
 51f:	80 fa 04             	cmp    $0x4,%dl
 522:	75 0b                	jne    52f <_Z5test2v+0x52f>
 524:	48 c7 00 00 00 00 00 	movq   $0x0,(%rax)
 52b:	c6 40 08 00          	movb   $0x0,0x8(%rax)
 52f:	0f b6 54 24 58       	movzbl 0x58(%rsp),%edx
 534:	80 fa 02             	cmp    $0x2,%dl
 537:	74 19                	je     552 <_Z5test2v+0x552>
 539:	0f 86 28 03 00 00    	jbe    867 <_Z5test2v+0x867>
 53f:	80 fa 03             	cmp    $0x3,%dl
 542:	74 0e                	je     552 <_Z5test2v+0x552>
 544:	80 fa 04             	cmp    $0x4,%dl
 547:	75 13                	jne    55c <_Z5test2v+0x55c>
 549:	48 c7 44 24 50 00 00 	movq   $0x0,0x50(%rsp)
 550:	00 00 
 552:	48 85 c0             	test   %rax,%rax
 555:	c6 44 24 58 00       	movb   $0x0,0x58(%rsp)
 55a:	74 04                	je     560 <_Z5test2v+0x560>
 55c:	c6 40 11 00          	movb   $0x0,0x11(%rax)
 560:	c6 44 24 61 00       	movb   $0x0,0x61(%rsp)
 565:	80 7c 24 40 00       	cmpb   $0x0,0x40(%rsp)
 56a:	0f 84 33 01 00 00    	je     6a3 <_Z5test2v+0x6a3>
 570:	48 83 c4 78          	add    $0x78,%rsp
 574:	89 e8                	mov    %ebp,%eax
 576:	5b                   	pop    %rbx
 577:	5d                   	pop    %rbp
 578:	41 5c                	pop    %r12
 57a:	41 5d                	pop    %r13
 57c:	c3                   	retq   
 57d:	80 7c 24 60 00       	cmpb   $0x0,0x60(%rsp)
 582:	4c 89 64 24 18       	mov    %r12,0x18(%rsp)
 587:	0f 84 5d 02 00 00    	je     7ea <_Z5test2v+0x7ea>
 58d:	bf 20 00 00 00       	mov    $0x20,%edi
 592:	e8 00 00 00 00       	callq  597 <_Z5test2v+0x597>
 597:	49 89 c5             	mov    %rax,%r13
 59a:	e8 00 00 00 00       	callq  59f <_Z5test2v+0x59f>
 59f:	be 04 00 00 00       	mov    $0x4,%esi
 5a4:	48 89 c2             	mov    %rax,%rdx
 5a7:	4c 89 ef             	mov    %r13,%rdi
 5aa:	e8 00 00 00 00       	callq  5af <_Z5test2v+0x5af>
 5af:	ba 00 00 00 00       	mov    $0x0,%edx
 5b4:	be 00 00 00 00       	mov    $0x0,%esi
 5b9:	4c 89 ef             	mov    %r13,%rdi
 5bc:	e8 00 00 00 00       	callq  5c1 <_Z5test2v+0x5c1>
 5c1:	0f 1f 80 00 00 00 00 	nopl   0x0(%rax)
 5c8:	48 89 2c 24          	mov    %rbp,(%rsp)
 5cc:	e9 f3 fc ff ff       	jmpq   2c4 <_Z5test2v+0x2c4>
 5d1:	80 7c 24 60 00       	cmpb   $0x0,0x60(%rsp)
 5d6:	0f 85 a7 03 00 00    	jne    983 <_Z5test2v+0x983>
 5dc:	48 83 7c 24 68 00    	cmpq   $0x0,0x68(%rsp)
 5e2:	0f 84 a0 02 00 00    	je     888 <_Z5test2v+0x888>
 5e8:	0f 1f 84 00 00 00 00 	nopl   0x0(%rax,%rax,1)
 5ef:	00 
 5f0:	e8 00 00 00 00       	callq  5f5 <_Z5test2v+0x5f5>
 5f5:	80 7c 24 58 00       	cmpb   $0x0,0x58(%rsp)
 5fa:	74 f4                	je     5f0 <_Z5test2v+0x5f0>
 5fc:	e9 48 fd ff ff       	jmpq   349 <_Z5test2v+0x349>
 601:	8b 44 24 30          	mov    0x30(%rsp),%eax
 605:	c6 44 24 58 01       	movb   $0x1,0x58(%rsp)
 60a:	c6 44 24 60 00       	movb   $0x0,0x60(%rsp)
 60f:	c6 44 24 61 00       	movb   $0x0,0x61(%rsp)
 614:	89 44 24 50          	mov    %eax,0x50(%rsp)
 618:	e9 18 fb ff ff       	jmpq   135 <_Z5test2v+0x135>
 61d:	80 fa 01             	cmp    $0x1,%dl
 620:	0f 84 1a fe ff ff    	je     440 <_Z5test2v+0x440>
 626:	e9 1f fe ff ff       	jmpq   44a <_Z5test2v+0x44a>
 62b:	0f b6 54 24 58       	movzbl 0x58(%rsp),%edx
 630:	31 c0                	xor    %eax,%eax
 632:	80 fa 02             	cmp    $0x2,%dl
 635:	0f 84 17 ff ff ff    	je     552 <_Z5test2v+0x552>
 63b:	0f 86 3a 01 00 00    	jbe    77b <_Z5test2v+0x77b>
 641:	80 fa 03             	cmp    $0x3,%dl
 644:	0f 84 08 ff ff ff    	je     552 <_Z5test2v+0x552>
 64a:	80 fa 04             	cmp    $0x4,%dl
 64d:	0f 84 f6 fe ff ff    	je     549 <_Z5test2v+0x549>
 653:	e9 08 ff ff ff       	jmpq   560 <_Z5test2v+0x560>
 658:	3c 01                	cmp    $0x1,%al
 65a:	0f 85 be fc ff ff    	jne    31e <_Z5test2v+0x31e>
 660:	c6 44 24 38 00       	movb   $0x0,0x38(%rsp)
 665:	e9 b4 fc ff ff       	jmpq   31e <_Z5test2v+0x31e>
 66a:	66 0f 1f 44 00 00    	nopw   0x0(%rax,%rax,1)
 670:	b8 01 00 00 00       	mov    $0x1,%eax
 675:	89 c2                	mov    %eax,%edx
 677:	86 54 24 41          	xchg   %dl,0x41(%rsp)
 67b:	84 d2                	test   %dl,%dl
 67d:	75 65                	jne    6e4 <_Z5test2v+0x6e4>
 67f:	0f b6 54 24 38       	movzbl 0x38(%rsp),%edx
 684:	80 fa 04             	cmp    $0x4,%dl
 687:	0f 85 1b 01 00 00    	jne    7a8 <_Z5test2v+0x7a8>
 68d:	48 8b 54 24 30       	mov    0x30(%rsp),%rdx
 692:	48 8d 4a 11          	lea    0x11(%rdx),%rcx
 696:	0f b6 52 11          	movzbl 0x11(%rdx),%edx
 69a:	84 d2                	test   %dl,%dl
 69c:	74 59                	je     6f7 <_Z5test2v+0x6f7>
 69e:	c6 44 24 41 00       	movb   $0x0,0x41(%rsp)
 6a3:	31 db                	xor    %ebx,%ebx
 6a5:	eb 34                	jmp    6db <_Z5test2v+0x6db>
 6a7:	66 0f 1f 84 00 00 00 	nopw   0x0(%rax,%rax,1)
 6ae:	00 00 
 6b0:	48 81 fb f9 00 00 00 	cmp    $0xf9,%rbx
 6b7:	76 37                	jbe    6f0 <_Z5test2v+0x6f0>
 6b9:	48 8d 7c 24 20       	lea    0x20(%rsp),%rdi
 6be:	31 f6                	xor    %esi,%esi
 6c0:	48 c7 44 24 20 00 00 	movq   $0x0,0x20(%rsp)
 6c7:	00 00 
 6c9:	48 c7 44 24 28 40 42 	movq   $0xf4240,0x28(%rsp)
 6d0:	0f 00 
 6d2:	e8 00 00 00 00       	callq  6d7 <_Z5test2v+0x6d7>
 6d7:	48 83 c3 01          	add    $0x1,%rbx
 6db:	0f b6 44 24 41       	movzbl 0x41(%rsp),%eax
 6e0:	84 c0                	test   %al,%al
 6e2:	74 8c                	je     670 <_Z5test2v+0x670>
 6e4:	48 83 fb 7c          	cmp    $0x7c,%rbx
 6e8:	77 c6                	ja     6b0 <_Z5test2v+0x6b0>
 6ea:	f3 90                	pause  
 6ec:	eb e9                	jmp    6d7 <_Z5test2v+0x6d7>
 6ee:	66 90                	xchg   %ax,%ax
 6f0:	e8 00 00 00 00       	callq  6f5 <_Z5test2v+0x6f5>
 6f5:	eb e0                	jmp    6d7 <_Z5test2v+0x6d7>
 6f7:	86 01                	xchg   %al,(%rcx)
 6f9:	84 c0                	test   %al,%al
 6fb:	75 a1                	jne    69e <_Z5test2v+0x69e>
 6fd:	48 8b 44 24 30       	mov    0x30(%rsp),%rax
 702:	48 85 c0             	test   %rax,%rax
 705:	0f 84 ac 02 00 00    	je     9b7 <_Z5test2v+0x9b7>
 70b:	80 78 08 00          	cmpb   $0x0,0x8(%rax)
 70f:	74 58                	je     769 <_Z5test2v+0x769>
 711:	0f b6 54 24 38       	movzbl 0x38(%rsp),%edx
 716:	48 c7 40 18 00 00 00 	movq   $0x0,0x18(%rax)
 71d:	00 
 71e:	80 fa 02             	cmp    $0x2,%dl
 721:	74 0c                	je     72f <_Z5test2v+0x72f>
 723:	76 4a                	jbe    76f <_Z5test2v+0x76f>
 725:	80 fa 03             	cmp    $0x3,%dl
 728:	74 05                	je     72f <_Z5test2v+0x72f>
 72a:	80 fa 04             	cmp    $0x4,%dl
 72d:	75 45                	jne    774 <_Z5test2v+0x774>
 72f:	48 85 c0             	test   %rax,%rax
 732:	c6 44 24 41 00       	movb   $0x0,0x41(%rsp)
 737:	0f 84 33 fe ff ff    	je     570 <_Z5test2v+0x570>
 73d:	c6 40 11 00          	movb   $0x0,0x11(%rax)
 741:	48 83 c4 78          	add    $0x78,%rsp
 745:	89 e8                	mov    %ebp,%eax
 747:	5b                   	pop    %rbx
 748:	5d                   	pop    %rbp
 749:	41 5c                	pop    %r12
 74b:	41 5d                	pop    %r13
 74d:	c3                   	retq   
 74e:	80 7c 24 58 00       	cmpb   $0x0,0x58(%rsp)
 753:	0f 85 1a fd ff ff    	jne    473 <_Z5test2v+0x473>
 759:	80 7c 24 60 00       	cmpb   $0x0,0x60(%rsp)
 75e:	0f 84 01 fe ff ff    	je     565 <_Z5test2v+0x565>
 764:	e9 0a fd ff ff       	jmpq   473 <_Z5test2v+0x473>
 769:	c6 40 10 01          	movb   $0x1,0x10(%rax)
 76d:	eb a2                	jmp    711 <_Z5test2v+0x711>
 76f:	80 fa 01             	cmp    $0x1,%dl
 772:	74 bb                	je     72f <_Z5test2v+0x72f>
 774:	c6 44 24 41 00       	movb   $0x0,0x41(%rsp)
 779:	eb c2                	jmp    73d <_Z5test2v+0x73d>
 77b:	80 fa 01             	cmp    $0x1,%dl
 77e:	0f 84 ce fd ff ff    	je     552 <_Z5test2v+0x552>
 784:	e9 d7 fd ff ff       	jmpq   560 <_Z5test2v+0x560>
 789:	80 fa 01             	cmp    $0x1,%dl
 78c:	0f 84 99 fd ff ff    	je     52b <_Z5test2v+0x52b>
 792:	e9 98 fd ff ff       	jmpq   52f <_Z5test2v+0x52f>
 797:	3c 01                	cmp    $0x1,%al
 799:	0f 85 a8 fa ff ff    	jne    247 <_Z5test2v+0x247>
 79f:	e9 91 f9 ff ff       	jmpq   135 <_Z5test2v+0x135>
 7a4:	0f 1f 40 00          	nopl   0x0(%rax)
 7a8:	80 fa 02             	cmp    $0x2,%dl
 7ab:	0f 84 af 00 00 00    	je     860 <_Z5test2v+0x860>
 7b1:	80 fa 03             	cmp    $0x3,%dl
 7b4:	0f 84 a6 00 00 00    	je     860 <_Z5test2v+0x860>
 7ba:	80 fa 01             	cmp    $0x1,%dl
 7bd:	0f 84 9d 00 00 00    	je     860 <_Z5test2v+0x860>
 7c3:	c6 44 24 41 00       	movb   $0x0,0x41(%rsp)
 7c8:	e9 a3 fd ff ff       	jmpq   570 <_Z5test2v+0x570>
 7cd:	80 7c 24 38 00       	cmpb   $0x0,0x38(%rsp)
 7d2:	0f 85 23 01 00 00    	jne    8fb <_Z5test2v+0x8fb>
 7d8:	c7 44 24 30 05 00 00 	movl   $0x5,0x30(%rsp)
 7df:	00 
 7e0:	c6 44 24 38 01       	movb   $0x1,0x38(%rsp)
 7e5:	e9 39 fb ff ff       	jmpq   323 <_Z5test2v+0x323>
 7ea:	0f b6 54 24 58       	movzbl 0x58(%rsp),%edx
 7ef:	84 d2                	test   %dl,%dl
 7f1:	75 3d                	jne    830 <_Z5test2v+0x830>
 7f3:	bf 20 00 00 00       	mov    $0x20,%edi
 7f8:	e8 00 00 00 00       	callq  7fd <_Z5test2v+0x7fd>
 7fd:	49 89 c5             	mov    %rax,%r13
 800:	e8 00 00 00 00       	callq  805 <_Z5test2v+0x805>
 805:	be 03 00 00 00       	mov    $0x3,%esi
 80a:	48 89 c2             	mov    %rax,%rdx
 80d:	4c 89 ef             	mov    %r13,%rdi
 810:	e8 00 00 00 00       	callq  815 <_Z5test2v+0x815>
 815:	ba 00 00 00 00       	mov    $0x0,%edx
 81a:	be 00 00 00 00       	mov    $0x0,%esi
 81f:	4c 89 ef             	mov    %r13,%rdi
 822:	e8 00 00 00 00       	callq  827 <_Z5test2v+0x827>
 827:	66 0f 1f 84 00 00 00 	nopw   0x0(%rax,%rax,1)
 82e:	00 00 
 830:	80 fa 02             	cmp    $0x2,%dl
 833:	48 8b 44 24 10       	mov    0x10(%rsp),%rax
 838:	8b 6c 24 50          	mov    0x50(%rsp),%ebp
 83c:	0f 84 fe fb ff ff    	je     440 <_Z5test2v+0x440>
 842:	76 31                	jbe    875 <_Z5test2v+0x875>
 844:	80 fa 03             	cmp    $0x3,%dl
 847:	0f 84 f3 fb ff ff    	je     440 <_Z5test2v+0x440>
 84d:	80 fa 04             	cmp    $0x4,%dl
 850:	0f 84 e1 fb ff ff    	je     437 <_Z5test2v+0x437>
 856:	e9 ea fb ff ff       	jmpq   445 <_Z5test2v+0x445>
 85b:	0f 1f 44 00 00       	nopl   0x0(%rax,%rax,1)
 860:	31 c0                	xor    %eax,%eax
 862:	e9 c8 fe ff ff       	jmpq   72f <_Z5test2v+0x72f>
 867:	80 fa 01             	cmp    $0x1,%dl
 86a:	0f 84 e2 fc ff ff    	je     552 <_Z5test2v+0x552>
 870:	e9 e7 fc ff ff       	jmpq   55c <_Z5test2v+0x55c>
 875:	80 fa 01             	cmp    $0x1,%dl
 878:	0f 84 c2 fb ff ff    	je     440 <_Z5test2v+0x440>
 87e:	e9 c2 fb ff ff       	jmpq   445 <_Z5test2v+0x445>
 883:	0f 1f 44 00 00       	nopl   0x0(%rax,%rax,1)
 888:	bf 20 00 00 00       	mov    $0x20,%edi
 88d:	e8 00 00 00 00       	callq  892 <_Z5test2v+0x892>
 892:	49 89 c5             	mov    %rax,%r13
 895:	e8 00 00 00 00       	callq  89a <_Z5test2v+0x89a>
 89a:	be 03 00 00 00       	mov    $0x3,%esi
 89f:	48 89 c2             	mov    %rax,%rdx
 8a2:	4c 89 ef             	mov    %r13,%rdi
 8a5:	e8 00 00 00 00       	callq  8aa <_Z5test2v+0x8aa>
 8aa:	ba 00 00 00 00       	mov    $0x0,%edx
 8af:	be 00 00 00 00       	mov    $0x0,%esi
 8b4:	4c 89 ef             	mov    %r13,%rdi
 8b7:	e8 00 00 00 00       	callq  8bc <_Z5test2v+0x8bc>
 8bc:	4c 89 ef             	mov    %r13,%rdi
 8bf:	48 89 c3             	mov    %rax,%rbx
 8c2:	e8 00 00 00 00       	callq  8c7 <_Z5test2v+0x8c7>
 8c7:	48 8d 7c 24 10       	lea    0x10(%rsp),%rdi
 8cc:	e8 00 00 00 00       	callq  8d1 <_Z5test2v+0x8d1>
 8d1:	4c 89 e7             	mov    %r12,%rdi
 8d4:	e8 00 00 00 00       	callq  8d9 <_Z5test2v+0x8d9>
 8d9:	48 89 ef             	mov    %rbp,%rdi
 8dc:	e8 00 00 00 00       	callq  8e1 <_Z5test2v+0x8e1>
 8e1:	48 89 df             	mov    %rbx,%rdi
 8e4:	e8 00 00 00 00       	callq  8e9 <_Z5test2v+0x8e9>
 8e9:	48 89 c3             	mov    %rax,%rbx
 8ec:	eb e3                	jmp    8d1 <_Z5test2v+0x8d1>
 8ee:	4c 89 ef             	mov    %r13,%rdi
 8f1:	48 89 c3             	mov    %rax,%rbx
 8f4:	e8 00 00 00 00       	callq  8f9 <_Z5test2v+0x8f9>
 8f9:	eb d6                	jmp    8d1 <_Z5test2v+0x8d1>
 8fb:	bf 01 00 00 00       	mov    $0x1,%edi
 900:	e8 00 00 00 00       	callq  905 <_Z5test2v+0x905>
 905:	bf 20 00 00 00       	mov    $0x20,%edi
 90a:	e8 00 00 00 00       	callq  90f <_Z5test2v+0x90f>
 90f:	49 89 c4             	mov    %rax,%r12
 912:	e8 00 00 00 00       	callq  917 <_Z5test2v+0x917>
 917:	be 01 00 00 00       	mov    $0x1,%esi
 91c:	48 89 c2             	mov    %rax,%rdx
 91f:	4c 89 e7             	mov    %r12,%rdi
 922:	e8 00 00 00 00       	callq  927 <_Z5test2v+0x927>
 927:	ba 00 00 00 00       	mov    $0x0,%edx
 92c:	be 00 00 00 00       	mov    $0x0,%esi
 931:	4c 89 e7             	mov    %r12,%rdi
 934:	e8 00 00 00 00       	callq  939 <_Z5test2v+0x939>
 939:	48 89 e7             	mov    %rsp,%rdi
 93c:	48 89 c3             	mov    %rax,%rbx
 93f:	e8 00 00 00 00       	callq  944 <_Z5test2v+0x944>
 944:	eb 8b                	jmp    8d1 <_Z5test2v+0x8d1>
 946:	48 89 c3             	mov    %rax,%rbx
 949:	48 8d 7c 24 20       	lea    0x20(%rsp),%rdi
 94e:	e8 00 00 00 00       	callq  953 <_Z5test2v+0x953>
 953:	eb 84                	jmp    8d9 <_Z5test2v+0x8d9>
 955:	4c 89 e7             	mov    %r12,%rdi
 958:	48 89 c3             	mov    %rax,%rbx
 95b:	e8 00 00 00 00       	callq  960 <_Z5test2v+0x960>
 960:	eb e7                	jmp    949 <_Z5test2v+0x949>
 962:	bf 01 00 00 00       	mov    $0x1,%edi
 967:	e8 00 00 00 00       	callq  96c <_Z5test2v+0x96c>
 96c:	bf 01 00 00 00       	mov    $0x1,%edi
 971:	e8 00 00 00 00       	callq  976 <_Z5test2v+0x976>
 976:	e9 41 ff ff ff       	jmpq   8bc <_Z5test2v+0x8bc>
 97b:	48 89 c3             	mov    %rax,%rbx
 97e:	e9 44 ff ff ff       	jmpq   8c7 <_Z5test2v+0x8c7>
 983:	bf 20 00 00 00       	mov    $0x20,%edi
 988:	e8 00 00 00 00       	callq  98d <_Z5test2v+0x98d>
 98d:	49 89 c5             	mov    %rax,%r13
 990:	e8 00 00 00 00       	callq  995 <_Z5test2v+0x995>
 995:	be 04 00 00 00       	mov    $0x4,%esi
 99a:	48 89 c2             	mov    %rax,%rdx
 99d:	4c 89 ef             	mov    %r13,%rdi
 9a0:	e8 00 00 00 00       	callq  9a5 <_Z5test2v+0x9a5>
 9a5:	ba 00 00 00 00       	mov    $0x0,%edx
 9aa:	be 00 00 00 00       	mov    $0x0,%esi
 9af:	4c 89 ef             	mov    %r13,%rdi
 9b2:	e8 00 00 00 00       	callq  9b7 <_Z5test2v+0x9b7>
 9b7:	0f b6 54 24 38       	movzbl 0x38(%rsp),%edx
 9bc:	80 fa 02             	cmp    $0x2,%dl
 9bf:	0f 84 6a fd ff ff    	je     72f <_Z5test2v+0x72f>
 9c5:	76 1c                	jbe    9e3 <_Z5test2v+0x9e3>
 9c7:	80 fa 03             	cmp    $0x3,%dl
 9ca:	0f 84 5f fd ff ff    	je     72f <_Z5test2v+0x72f>
 9d0:	80 fa 04             	cmp    $0x4,%dl
 9d3:	0f 84 56 fd ff ff    	je     72f <_Z5test2v+0x72f>
 9d9:	e9 e5 fd ff ff       	jmpq   7c3 <_Z5test2v+0x7c3>
 9de:	e9 0b ff ff ff       	jmpq   8ee <_Z5test2v+0x8ee>
 9e3:	80 fa 01             	cmp    $0x1,%dl
 9e6:	0f 84 43 fd ff ff    	je     72f <_Z5test2v+0x72f>
 9ec:	e9 d2 fd ff ff       	jmpq   7c3 <_Z5test2v+0x7c3>
