      10:	41 57                	push   %r15
      12:	66 0f ef c0          	pxor   %xmm0,%xmm0
      16:	41 56                	push   %r14
      18:	41 55                	push   %r13
      1a:	41 54                	push   %r12
      1c:	55                   	push   %rbp
      1d:	53                   	push   %rbx
      1e:	48 81 ec 38 01 00 00 	sub    $0x138,%rsp
      25:	0f 29 84 24 e0 00 00 	movaps %xmm0,0xe0(%rsp)
      2c:	00 
      2d:	64 48 8b 04 25 28 00 	mov    %fs:0x28,%rax
      34:	00 00 
      36:	48 89 84 24 28 01 00 	mov    %rax,0x128(%rsp)
      3d:	00 
      3e:	31 c0                	xor    %eax,%eax
      40:	0f 29 84 24 f0 00 00 	movaps %xmm0,0xf0(%rsp)
      47:	00 
      48:	0f 29 44 24 30       	movaps %xmm0,0x30(%rsp)
      4d:	c6 84 24 d0 00 00 00 	movb   $0x0,0xd0(%rsp)
      54:	00 
      55:	c6 84 24 d8 00 00 00 	movb   $0x0,0xd8(%rsp)
      5c:	00 
      5d:	c6 84 24 d9 00 00 00 	movb   $0x0,0xd9(%rsp)
      64:	00 
      65:	0f 1f 00             	nopl   (%rax)
      68:	31 db                	xor    %ebx,%ebx
      6a:	eb 3c                	jmp    a8 <_Z5test2v+0xa8>
      6c:	0f 1f 40 00          	nopl   0x0(%rax)
      70:	48 81 fb f9 00 00 00 	cmp    $0xf9,%rbx
      77:	0f 86 83 00 00 00    	jbe    100 <_Z5test2v+0x100>
      7d:	48 8d bc 24 80 00 00 	lea    0x80(%rsp),%rdi
      84:	00 
      85:	31 f6                	xor    %esi,%esi
      87:	48 c7 84 24 80 00 00 	movq   $0x0,0x80(%rsp)
      8e:	00 00 00 00 00 
      93:	48 c7 84 24 88 00 00 	movq   $0xf4240,0x88(%rsp)
      9a:	00 40 42 0f 00 
      9f:	e8 00 00 00 00       	callq  a4 <_Z5test2v+0xa4>
      a4:	48 83 c3 01          	add    $0x1,%rbx
      a8:	0f b6 84 24 d8 00 00 	movzbl 0xd8(%rsp),%eax
      af:	00 
      b0:	84 c0                	test   %al,%al
      b2:	74 0c                	je     c0 <_Z5test2v+0xc0>
      b4:	48 83 fb 7c          	cmp    $0x7c,%rbx
      b8:	77 b6                	ja     70 <_Z5test2v+0x70>
      ba:	f3 90                	pause  
      bc:	eb e6                	jmp    a4 <_Z5test2v+0xa4>
      be:	66 90                	xchg   %ax,%ax
      c0:	b8 01 00 00 00       	mov    $0x1,%eax
      c5:	89 c2                	mov    %eax,%edx
      c7:	86 94 24 d8 00 00 00 	xchg   %dl,0xd8(%rsp)
      ce:	84 d2                	test   %dl,%dl
      d0:	75 e2                	jne    b4 <_Z5test2v+0xb4>
      d2:	48 8b 94 24 e0 00 00 	mov    0xe0(%rsp),%rdx
      d9:	00 
      da:	48 85 d2             	test   %rdx,%rdx
      dd:	0f 84 7d 00 00 00    	je     160 <_Z5test2v+0x160>
      e3:	0f b6 4a 18          	movzbl 0x18(%rdx),%ecx
      e7:	48 8d 72 18          	lea    0x18(%rdx),%rsi
      eb:	84 c9                	test   %cl,%cl
      ed:	74 21                	je     110 <_Z5test2v+0x110>
      ef:	c6 84 24 d8 00 00 00 	movb   $0x0,0xd8(%rsp)
      f6:	00 
      f7:	e9 6c ff ff ff       	jmpq   68 <_Z5test2v+0x68>
      fc:	0f 1f 40 00          	nopl   0x0(%rax)
     100:	e8 00 00 00 00       	callq  105 <_Z5test2v+0x105>
     105:	eb 9d                	jmp    a4 <_Z5test2v+0xa4>
     107:	66 0f 1f 84 00 00 00 	nopw   0x0(%rax,%rax,1)
     10e:	00 00 
     110:	86 06                	xchg   %al,(%rsi)
     112:	84 c0                	test   %al,%al
     114:	75 d9                	jne    ef <_Z5test2v+0xef>
     116:	48 8d ac 24 c0 00 00 	lea    0xc0(%rsp),%rbp
     11d:	00 
     11e:	48 89 54 24 38       	mov    %rdx,0x38(%rsp)
     123:	48 89 6c 24 30       	mov    %rbp,0x30(%rsp)
     128:	bf 20 00 00 00       	mov    $0x20,%edi
     12d:	e8 00 00 00 00       	callq  132 <_Z5test2v+0x132>
     132:	49 89 c4             	mov    %rax,%r12
     135:	e8 00 00 00 00       	callq  13a <_Z5test2v+0x13a>
     13a:	be 01 00 00 00       	mov    $0x1,%esi
     13f:	48 89 c2             	mov    %rax,%rdx
     142:	4c 89 e7             	mov    %r12,%rdi
     145:	e8 00 00 00 00       	callq  14a <_Z5test2v+0x14a>
     14a:	ba 00 00 00 00       	mov    $0x0,%edx
     14f:	be 00 00 00 00       	mov    $0x0,%esi
     154:	4c 89 e7             	mov    %r12,%rdi
     157:	e8 00 00 00 00       	callq  15c <_Z5test2v+0x15c>
     15c:	0f 1f 40 00          	nopl   0x0(%rax)
     160:	48 83 7c 24 38 00    	cmpq   $0x0,0x38(%rsp)
     166:	48 8d ac 24 c0 00 00 	lea    0xc0(%rsp),%rbp
     16d:	00 
     16e:	48 89 6c 24 30       	mov    %rbp,0x30(%rsp)
     173:	75 b3                	jne    128 <_Z5test2v+0x128>
     175:	80 bc 24 d9 00 00 00 	cmpb   $0x0,0xd9(%rsp)
     17c:	00 
     17d:	75 a9                	jne    128 <_Z5test2v+0x128>
     17f:	0f b6 84 24 d0 00 00 	movzbl 0xd0(%rsp),%eax
     186:	00 
     187:	c6 44 24 60 00       	movb   $0x0,0x60(%rsp)
     18c:	c6 44 24 68 00       	movb   $0x0,0x68(%rsp)
     191:	c6 44 24 69 00       	movb   $0x0,0x69(%rsp)
     196:	48 c7 44 24 70 00 00 	movq   $0x0,0x70(%rsp)
     19d:	00 00 
     19f:	84 c0                	test   %al,%al
     1a1:	0f 85 d7 0c 00 00    	jne    e7e <_Z5test2v+0xe7e>
     1a7:	48 8d 44 24 50       	lea    0x50(%rsp),%rax
     1ac:	48 89 6c 24 70       	mov    %rbp,0x70(%rsp)
     1b1:	48 89 84 24 e0 00 00 	mov    %rax,0xe0(%rsp)
     1b8:	00 
     1b9:	c6 84 24 d8 00 00 00 	movb   $0x0,0xd8(%rsp)
     1c0:	00 
     1c1:	48 8b 44 24 38       	mov    0x38(%rsp),%rax
     1c6:	48 c7 44 24 30 00 00 	movq   $0x0,0x30(%rsp)
     1cd:	00 00 
     1cf:	48 85 c0             	test   %rax,%rax
     1d2:	74 3c                	je     210 <_Z5test2v+0x210>
     1d4:	c6 40 18 00          	movb   $0x0,0x18(%rax)
     1d8:	48 8b 44 24 30       	mov    0x30(%rsp),%rax
     1dd:	48 c7 44 24 38 00 00 	movq   $0x0,0x38(%rsp)
     1e4:	00 00 
     1e6:	48 85 c0             	test   %rax,%rax
     1e9:	74 25                	je     210 <_Z5test2v+0x210>
     1eb:	c6 40 18 00          	movb   $0x0,0x18(%rax)
     1ef:	48 8b 44 24 38       	mov    0x38(%rsp),%rax
     1f4:	48 c7 44 24 30 00 00 	movq   $0x0,0x30(%rsp)
     1fb:	00 00 
     1fd:	48 85 c0             	test   %rax,%rax
     200:	74 0e                	je     210 <_Z5test2v+0x210>
     202:	c6 40 18 00          	movb   $0x0,0x18(%rax)
     206:	66 2e 0f 1f 84 00 00 	nopw   %cs:0x0(%rax,%rax,1)
     20d:	00 00 00 
     210:	31 db                	xor    %ebx,%ebx
     212:	eb 38                	jmp    24c <_Z5test2v+0x24c>
     214:	0f 1f 40 00          	nopl   0x0(%rax)
     218:	48 81 fb f9 00 00 00 	cmp    $0xf9,%rbx
     21f:	76 6f                	jbe    290 <_Z5test2v+0x290>
     221:	48 8d bc 24 80 00 00 	lea    0x80(%rsp),%rdi
     228:	00 
     229:	31 f6                	xor    %esi,%esi
     22b:	48 c7 84 24 80 00 00 	movq   $0x0,0x80(%rsp)
     232:	00 00 00 00 00 
     237:	48 c7 84 24 88 00 00 	movq   $0xf4240,0x88(%rsp)
     23e:	00 40 42 0f 00 
     243:	e8 00 00 00 00       	callq  248 <_Z5test2v+0x248>
     248:	48 83 c3 01          	add    $0x1,%rbx
     24c:	0f b6 44 24 68       	movzbl 0x68(%rsp),%eax
     251:	84 c0                	test   %al,%al
     253:	74 0b                	je     260 <_Z5test2v+0x260>
     255:	48 83 fb 7c          	cmp    $0x7c,%rbx
     259:	77 bd                	ja     218 <_Z5test2v+0x218>
     25b:	f3 90                	pause  
     25d:	eb e9                	jmp    248 <_Z5test2v+0x248>
     25f:	90                   	nop
     260:	b8 01 00 00 00       	mov    $0x1,%eax
     265:	89 c2                	mov    %eax,%edx
     267:	86 54 24 68          	xchg   %dl,0x68(%rsp)
     26b:	84 d2                	test   %dl,%dl
     26d:	75 e6                	jne    255 <_Z5test2v+0x255>
     26f:	48 8b 54 24 70       	mov    0x70(%rsp),%rdx
     274:	48 85 d2             	test   %rdx,%rdx
     277:	0f 84 0a 04 00 00    	je     687 <_Z5test2v+0x687>
     27d:	48 8d 4a 18          	lea    0x18(%rdx),%rcx
     281:	0f b6 52 18          	movzbl 0x18(%rdx),%edx
     285:	84 d2                	test   %dl,%dl
     287:	74 17                	je     2a0 <_Z5test2v+0x2a0>
     289:	c6 44 24 68 00       	movb   $0x0,0x68(%rsp)
     28e:	eb 80                	jmp    210 <_Z5test2v+0x210>
     290:	e8 00 00 00 00       	callq  295 <_Z5test2v+0x295>
     295:	eb b1                	jmp    248 <_Z5test2v+0x248>
     297:	66 0f 1f 84 00 00 00 	nopw   0x0(%rax,%rax,1)
     29e:	00 00 
     2a0:	86 01                	xchg   %al,(%rcx)
     2a2:	84 c0                	test   %al,%al
     2a4:	75 e3                	jne    289 <_Z5test2v+0x289>
     2a6:	0f b6 44 24 60       	movzbl 0x60(%rsp),%eax
     2ab:	48 8b 54 24 70       	mov    0x70(%rsp),%rdx
     2b0:	3c 02                	cmp    $0x2,%al
     2b2:	0f 84 81 0c 00 00    	je     f39 <_Z5test2v+0xf39>
     2b8:	3c 03                	cmp    $0x3,%al
     2ba:	0f 84 73 04 00 00    	je     733 <_Z5test2v+0x733>
     2c0:	3c 01                	cmp    $0x1,%al
     2c2:	0f 84 0d 0c 00 00    	je     ed5 <_Z5test2v+0xed5>
     2c8:	88 84 24 90 00 00 00 	mov    %al,0x90(%rsp)
     2cf:	0f b6 44 24 69       	movzbl 0x69(%rsp),%eax
     2d4:	48 85 d2             	test   %rdx,%rdx
     2d7:	c6 84 24 98 00 00 00 	movb   $0x0,0x98(%rsp)
     2de:	00 
     2df:	48 89 94 24 a0 00 00 	mov    %rdx,0xa0(%rsp)
     2e6:	00 
     2e7:	48 c7 44 24 70 00 00 	movq   $0x0,0x70(%rsp)
     2ee:	00 00 
     2f0:	88 84 24 99 00 00 00 	mov    %al,0x99(%rsp)
     2f7:	74 0c                	je     305 <_Z5test2v+0x305>
     2f9:	48 8d 84 24 80 00 00 	lea    0x80(%rsp),%rax
     300:	00 
     301:	48 89 42 20          	mov    %rax,0x20(%rdx)
     305:	48 c7 84 24 a8 00 00 	movq   $0x0,0xa8(%rsp)
     30c:	00 00 00 00 00 
     311:	48 c7 84 24 b0 00 00 	movq   $0x0,0xb0(%rsp)
     318:	00 00 00 00 00 
     31d:	c6 44 24 68 00       	movb   $0x0,0x68(%rsp)
     322:	48 8b 84 24 a0 00 00 	mov    0xa0(%rsp),%rax
     329:	00 
     32a:	48 85 c0             	test   %rax,%rax
     32d:	74 04                	je     333 <_Z5test2v+0x333>
     32f:	c6 40 18 00          	movb   $0x0,0x18(%rax)
     333:	bf 48 00 00 00       	mov    $0x48,%edi
     338:	e8 00 00 00 00       	callq  33d <_Z5test2v+0x33d>
     33d:	49 89 c4             	mov    %rax,%r12
     340:	c7 40 08 01 00 00 00 	movl   $0x1,0x8(%rax)
     347:	c7 40 0c 01 00 00 00 	movl   $0x1,0xc(%rax)
     34e:	48 c7 00 00 00 00 00 	movq   $0x0,(%rax)
     355:	0f 1f 00             	nopl   (%rax)
     358:	31 db                	xor    %ebx,%ebx
     35a:	eb 2f                	jmp    38b <_Z5test2v+0x38b>
     35c:	0f 1f 40 00          	nopl   0x0(%rax)
     360:	48 81 fb f9 00 00 00 	cmp    $0xf9,%rbx
     367:	76 7f                	jbe    3e8 <_Z5test2v+0x3e8>
     369:	48 8d 7c 24 40       	lea    0x40(%rsp),%rdi
     36e:	31 f6                	xor    %esi,%esi
     370:	48 c7 44 24 40 00 00 	movq   $0x0,0x40(%rsp)
     377:	00 00 
     379:	48 c7 44 24 48 40 42 	movq   $0xf4240,0x48(%rsp)
     380:	0f 00 
     382:	e8 00 00 00 00       	callq  387 <_Z5test2v+0x387>
     387:	48 83 c3 01          	add    $0x1,%rbx
     38b:	0f b6 84 24 98 00 00 	movzbl 0x98(%rsp),%eax
     392:	00 
     393:	84 c0                	test   %al,%al
     395:	74 11                	je     3a8 <_Z5test2v+0x3a8>
     397:	48 83 fb 7c          	cmp    $0x7c,%rbx
     39b:	77 c3                	ja     360 <_Z5test2v+0x360>
     39d:	f3 90                	pause  
     39f:	eb e6                	jmp    387 <_Z5test2v+0x387>
     3a1:	0f 1f 80 00 00 00 00 	nopl   0x0(%rax)
     3a8:	b8 01 00 00 00       	mov    $0x1,%eax
     3ad:	89 c2                	mov    %eax,%edx
     3af:	86 94 24 98 00 00 00 	xchg   %dl,0x98(%rsp)
     3b6:	84 d2                	test   %dl,%dl
     3b8:	75 dd                	jne    397 <_Z5test2v+0x397>
     3ba:	48 8b 94 24 a0 00 00 	mov    0xa0(%rsp),%rdx
     3c1:	00 
     3c2:	48 85 d2             	test   %rdx,%rdx
     3c5:	0f 84 0e 03 00 00    	je     6d9 <_Z5test2v+0x6d9>
     3cb:	48 8d 4a 18          	lea    0x18(%rdx),%rcx
     3cf:	0f b6 52 18          	movzbl 0x18(%rdx),%edx
     3d3:	84 d2                	test   %dl,%dl
     3d5:	74 19                	je     3f0 <_Z5test2v+0x3f0>
     3d7:	c6 84 24 98 00 00 00 	movb   $0x0,0x98(%rsp)
     3de:	00 
     3df:	e9 74 ff ff ff       	jmpq   358 <_Z5test2v+0x358>
     3e4:	0f 1f 40 00          	nopl   0x0(%rax)
     3e8:	e8 00 00 00 00       	callq  3ed <_Z5test2v+0x3ed>
     3ed:	eb 98                	jmp    387 <_Z5test2v+0x387>
     3ef:	90                   	nop
     3f0:	86 01                	xchg   %al,(%rcx)
     3f2:	84 c0                	test   %al,%al
     3f4:	75 e1                	jne    3d7 <_Z5test2v+0x3d7>
     3f6:	0f b6 84 24 90 00 00 	movzbl 0x90(%rsp),%eax
     3fd:	00 
     3fe:	48 8b 94 24 a0 00 00 	mov    0xa0(%rsp),%rdx
     405:	00 
     406:	41 c6 44 24 20 00    	movb   $0x0,0x20(%r12)
     40c:	3c 02                	cmp    $0x2,%al
     40e:	0f 84 a5 0b 00 00    	je     fb9 <_Z5test2v+0xfb9>
     414:	3c 03                	cmp    $0x3,%al
     416:	0f 84 56 0c 00 00    	je     1072 <_Z5test2v+0x1072>
     41c:	3c 01                	cmp    $0x1,%al
     41e:	0f 84 e9 0b 00 00    	je     100d <_Z5test2v+0x100d>
     424:	41 88 44 24 20       	mov    %al,0x20(%r12)
     429:	0f b6 84 24 99 00 00 	movzbl 0x99(%rsp),%eax
     430:	00 
     431:	48 85 d2             	test   %rdx,%rdx
     434:	41 c6 44 24 28 00    	movb   $0x0,0x28(%r12)
     43a:	49 89 54 24 30       	mov    %rdx,0x30(%r12)
     43f:	48 c7 84 24 a0 00 00 	movq   $0x0,0xa0(%rsp)
     446:	00 00 00 00 00 
     44b:	41 88 44 24 29       	mov    %al,0x29(%r12)
     450:	74 09                	je     45b <_Z5test2v+0x45b>
     452:	49 8d 44 24 10       	lea    0x10(%r12),%rax
     457:	48 89 42 20          	mov    %rax,0x20(%rdx)
     45b:	49 c7 44 24 38 00 00 	movq   $0x0,0x38(%r12)
     462:	00 00 
     464:	49 c7 44 24 40 00 00 	movq   $0x0,0x40(%r12)
     46b:	00 00 
     46d:	c6 84 24 98 00 00 00 	movb   $0x0,0x98(%rsp)
     474:	00 
     475:	49 8b 44 24 30       	mov    0x30(%r12),%rax
     47a:	48 85 c0             	test   %rax,%rax
     47d:	74 04                	je     483 <_Z5test2v+0x483>
     47f:	c6 40 18 00          	movb   $0x0,0x18(%rax)
     483:	49 8b 04 24          	mov    (%r12),%rax
     487:	be 00 00 00 00       	mov    $0x0,%esi
     48c:	4c 89 e7             	mov    %r12,%rdi
     48f:	ff 50 20             	callq  *0x20(%rax)
     492:	48 85 c0             	test   %rax,%rax
     495:	49 89 c5             	mov    %rax,%r13
     498:	74 39                	je     4d3 <_Z5test2v+0x4d3>
     49a:	49 89 45 28          	mov    %rax,0x28(%r13)
     49e:	b8 00 00 00 00       	mov    $0x0,%eax
     4a3:	48 85 c0             	test   %rax,%rax
     4a6:	0f 84 db 0a 00 00    	je     f87 <_Z5test2v+0xf87>
     4ac:	f0 41 83 44 24 0c 01 	lock addl $0x1,0xc(%r12)
     4b3:	49 8b 7d 30          	mov    0x30(%r13),%rdi
     4b7:	48 85 ff             	test   %rdi,%rdi
     4ba:	74 13                	je     4cf <_Z5test2v+0x4cf>
     4bc:	b8 ff ff ff ff       	mov    $0xffffffff,%eax
     4c1:	f0 0f c1 47 0c       	lock xadd %eax,0xc(%rdi)
     4c6:	83 f8 01             	cmp    $0x1,%eax
     4c9:	0f 84 dd 0a 00 00    	je     fac <_Z5test2v+0xfac>
     4cf:	4d 89 65 30          	mov    %r12,0x30(%r13)
     4d3:	48 83 bc 24 a0 00 00 	cmpq   $0x0,0xa0(%rsp)
     4da:	00 00 
     4dc:	0f 84 fb 0a 00 00    	je     fdd <_Z5test2v+0xfdd>
     4e2:	31 db                	xor    %ebx,%ebx
     4e4:	eb 35                	jmp    51b <_Z5test2v+0x51b>
     4e6:	66 2e 0f 1f 84 00 00 	nopw   %cs:0x0(%rax,%rax,1)
     4ed:	00 00 00 
     4f0:	48 81 fb f9 00 00 00 	cmp    $0xf9,%rbx
     4f7:	76 7f                	jbe    578 <_Z5test2v+0x578>
     4f9:	48 8d 7c 24 40       	lea    0x40(%rsp),%rdi
     4fe:	31 f6                	xor    %esi,%esi
     500:	48 c7 44 24 40 00 00 	movq   $0x0,0x40(%rsp)
     507:	00 00 
     509:	48 c7 44 24 48 40 42 	movq   $0xf4240,0x48(%rsp)
     510:	0f 00 
     512:	e8 00 00 00 00       	callq  517 <_Z5test2v+0x517>
     517:	48 83 c3 01          	add    $0x1,%rbx
     51b:	0f b6 84 24 98 00 00 	movzbl 0x98(%rsp),%eax
     522:	00 
     523:	84 c0                	test   %al,%al
     525:	74 11                	je     538 <_Z5test2v+0x538>
     527:	48 83 fb 7c          	cmp    $0x7c,%rbx
     52b:	77 c3                	ja     4f0 <_Z5test2v+0x4f0>
     52d:	f3 90                	pause  
     52f:	eb e6                	jmp    517 <_Z5test2v+0x517>
     531:	0f 1f 80 00 00 00 00 	nopl   0x0(%rax)
     538:	b8 01 00 00 00       	mov    $0x1,%eax
     53d:	89 c2                	mov    %eax,%edx
     53f:	86 94 24 98 00 00 00 	xchg   %dl,0x98(%rsp)
     546:	84 d2                	test   %dl,%dl
     548:	75 dd                	jne    527 <_Z5test2v+0x527>
     54a:	48 8b 9c 24 a0 00 00 	mov    0xa0(%rsp),%rbx
     551:	00 
     552:	48 85 db             	test   %rbx,%rbx
     555:	0f 84 53 09 00 00    	je     eae <_Z5test2v+0xeae>
     55b:	0f b6 53 18          	movzbl 0x18(%rbx),%edx
     55f:	48 8d 4b 18          	lea    0x18(%rbx),%rcx
     563:	84 d2                	test   %dl,%dl
     565:	74 18                	je     57f <_Z5test2v+0x57f>
     567:	c6 84 24 98 00 00 00 	movb   $0x0,0x98(%rsp)
     56e:	00 
     56f:	e9 6e ff ff ff       	jmpq   4e2 <_Z5test2v+0x4e2>
     574:	0f 1f 40 00          	nopl   0x0(%rax)
     578:	e8 00 00 00 00       	callq  57d <_Z5test2v+0x57d>
     57d:	eb 98                	jmp    517 <_Z5test2v+0x517>
     57f:	86 01                	xchg   %al,(%rcx)
     581:	84 c0                	test   %al,%al
     583:	75 e2                	jne    567 <_Z5test2v+0x567>
     585:	48 8b 84 24 a0 00 00 	mov    0xa0(%rsp),%rax
     58c:	00 
     58d:	48 85 c0             	test   %rax,%rax
     590:	74 18                	je     5aa <_Z5test2v+0x5aa>
     592:	48 c7 40 20 00 00 00 	movq   $0x0,0x20(%rax)
     599:	00 
     59a:	c6 40 19 01          	movb   $0x1,0x19(%rax)
     59e:	48 c7 84 24 a0 00 00 	movq   $0x0,0xa0(%rsp)
     5a5:	00 00 00 00 00 
     5aa:	0f b6 84 24 90 00 00 	movzbl 0x90(%rsp),%eax
     5b1:	00 
     5b2:	3c 02                	cmp    $0x2,%al
     5b4:	74 15                	je     5cb <_Z5test2v+0x5cb>
     5b6:	3c 03                	cmp    $0x3,%al
     5b8:	0f 85 c2 0b 00 00    	jne    1180 <_Z5test2v+0x1180>
     5be:	48 8d bc 24 80 00 00 	lea    0x80(%rsp),%rdi
     5c5:	00 
     5c6:	e8 00 00 00 00       	callq  5cb <_Z5test2v+0x5cb>
     5cb:	48 85 db             	test   %rbx,%rbx
     5ce:	c6 84 24 90 00 00 00 	movb   $0x0,0x90(%rsp)
     5d5:	00 
     5d6:	74 04                	je     5dc <_Z5test2v+0x5dc>
     5d8:	c6 43 18 00          	movb   $0x0,0x18(%rbx)
     5dc:	c6 84 24 98 00 00 00 	movb   $0x0,0x98(%rsp)
     5e3:	00 
     5e4:	48 8b bc 24 b0 00 00 	mov    0xb0(%rsp),%rdi
     5eb:	00 
     5ec:	48 85 ff             	test   %rdi,%rdi
     5ef:	74 21                	je     612 <_Z5test2v+0x612>
     5f1:	b8 00 00 00 00       	mov    $0x0,%eax
     5f6:	48 85 c0             	test   %rax,%rax
     5f9:	0f 84 5e 09 00 00    	je     f5d <_Z5test2v+0xf5d>
     5ff:	b8 ff ff ff ff       	mov    $0xffffffff,%eax
     604:	f0 0f c1 47 0c       	lock xadd %eax,0xc(%rdi)
     609:	83 f8 01             	cmp    $0x1,%eax
     60c:	0f 84 5d 09 00 00    	je     f6f <_Z5test2v+0xf6f>
     612:	80 bc 24 90 00 00 00 	cmpb   $0x3,0x90(%rsp)
     619:	03 
     61a:	0f 84 e3 08 00 00    	je     f03 <_Z5test2v+0xf03>
     620:	48 83 7c 24 70 00    	cmpq   $0x0,0x70(%rsp)
     626:	0f 84 f0 08 00 00    	je     f1c <_Z5test2v+0xf1c>
     62c:	0f 1f 40 00          	nopl   0x0(%rax)
     630:	31 db                	xor    %ebx,%ebx
     632:	eb 3c                	jmp    670 <_Z5test2v+0x670>
     634:	0f 1f 40 00          	nopl   0x0(%rax)
     638:	48 81 fb f9 00 00 00 	cmp    $0xf9,%rbx
     63f:	0f 86 4b 01 00 00    	jbe    790 <_Z5test2v+0x790>
     645:	48 8d bc 24 80 00 00 	lea    0x80(%rsp),%rdi
     64c:	00 
     64d:	31 f6                	xor    %esi,%esi
     64f:	48 c7 84 24 80 00 00 	movq   $0x0,0x80(%rsp)
     656:	00 00 00 00 00 
     65b:	48 c7 84 24 88 00 00 	movq   $0xf4240,0x88(%rsp)
     662:	00 40 42 0f 00 
     667:	e8 00 00 00 00       	callq  66c <_Z5test2v+0x66c>
     66c:	48 83 c3 01          	add    $0x1,%rbx
     670:	0f b6 44 24 68       	movzbl 0x68(%rsp),%eax
     675:	84 c0                	test   %al,%al
     677:	0f 84 db 00 00 00    	je     758 <_Z5test2v+0x758>
     67d:	48 83 fb 7c          	cmp    $0x7c,%rbx
     681:	77 b5                	ja     638 <_Z5test2v+0x638>
     683:	f3 90                	pause  
     685:	eb e5                	jmp    66c <_Z5test2v+0x66c>
     687:	0f b6 44 24 60       	movzbl 0x60(%rsp),%eax
     68c:	3c 02                	cmp    $0x2,%al
     68e:	0f 84 a3 08 00 00    	je     f37 <_Z5test2v+0xf37>
     694:	3c 03                	cmp    $0x3,%al
     696:	0f 84 95 00 00 00    	je     731 <_Z5test2v+0x731>
     69c:	3c 01                	cmp    $0x1,%al
     69e:	0f 84 2f 08 00 00    	je     ed3 <_Z5test2v+0xed3>
     6a4:	88 84 24 90 00 00 00 	mov    %al,0x90(%rsp)
     6ab:	0f b6 44 24 69       	movzbl 0x69(%rsp),%eax
     6b0:	c6 84 24 98 00 00 00 	movb   $0x0,0x98(%rsp)
     6b7:	00 
     6b8:	48 c7 84 24 a0 00 00 	movq   $0x0,0xa0(%rsp)
     6bf:	00 00 00 00 00 
     6c4:	48 c7 44 24 70 00 00 	movq   $0x0,0x70(%rsp)
     6cb:	00 00 
     6cd:	88 84 24 99 00 00 00 	mov    %al,0x99(%rsp)
     6d4:	e9 2c fc ff ff       	jmpq   305 <_Z5test2v+0x305>
     6d9:	0f b6 84 24 90 00 00 	movzbl 0x90(%rsp),%eax
     6e0:	00 
     6e1:	41 c6 44 24 20 00    	movb   $0x0,0x20(%r12)
     6e7:	3c 02                	cmp    $0x2,%al
     6e9:	0f 84 c8 08 00 00    	je     fb7 <_Z5test2v+0xfb7>
     6ef:	3c 03                	cmp    $0x3,%al
     6f1:	0f 84 79 09 00 00    	je     1070 <_Z5test2v+0x1070>
     6f7:	3c 01                	cmp    $0x1,%al
     6f9:	0f 84 0c 09 00 00    	je     100b <_Z5test2v+0x100b>
     6ff:	41 88 44 24 20       	mov    %al,0x20(%r12)
     704:	0f b6 84 24 99 00 00 	movzbl 0x99(%rsp),%eax
     70b:	00 
     70c:	41 c6 44 24 28 00    	movb   $0x0,0x28(%r12)
     712:	49 c7 44 24 30 00 00 	movq   $0x0,0x30(%r12)
     719:	00 00 
     71b:	48 c7 84 24 a0 00 00 	movq   $0x0,0xa0(%rsp)
     722:	00 00 00 00 00 
     727:	41 88 44 24 29       	mov    %al,0x29(%r12)
     72c:	e9 2a fd ff ff       	jmpq   45b <_Z5test2v+0x45b>
     731:	31 d2                	xor    %edx,%edx
     733:	48 8b 44 24 50       	mov    0x50(%rsp),%rax
     738:	48 c7 44 24 50 00 00 	movq   $0x0,0x50(%rsp)
     73f:	00 00 
     741:	48 89 84 24 80 00 00 	mov    %rax,0x80(%rsp)
     748:	00 
     749:	b8 03 00 00 00       	mov    $0x3,%eax
     74e:	e9 75 fb ff ff       	jmpq   2c8 <_Z5test2v+0x2c8>
     753:	0f 1f 44 00 00       	nopl   0x0(%rax,%rax,1)
     758:	b8 01 00 00 00       	mov    $0x1,%eax
     75d:	89 c2                	mov    %eax,%edx
     75f:	86 54 24 68          	xchg   %dl,0x68(%rsp)
     763:	84 d2                	test   %dl,%dl
     765:	0f 85 12 ff ff ff    	jne    67d <_Z5test2v+0x67d>
     76b:	48 8b 5c 24 70       	mov    0x70(%rsp),%rbx
     770:	48 85 db             	test   %rbx,%rbx
     773:	0f 84 ed 00 00 00    	je     866 <_Z5test2v+0x866>
     779:	0f b6 53 18          	movzbl 0x18(%rbx),%edx
     77d:	48 8d 4b 18          	lea    0x18(%rbx),%rcx
     781:	84 d2                	test   %dl,%dl
     783:	74 1b                	je     7a0 <_Z5test2v+0x7a0>
     785:	c6 44 24 68 00       	movb   $0x0,0x68(%rsp)
     78a:	e9 a1 fe ff ff       	jmpq   630 <_Z5test2v+0x630>
     78f:	90                   	nop
     790:	e8 00 00 00 00       	callq  795 <_Z5test2v+0x795>
     795:	e9 d2 fe ff ff       	jmpq   66c <_Z5test2v+0x66c>
     79a:	66 0f 1f 44 00 00    	nopw   0x0(%rax,%rax,1)
     7a0:	86 01                	xchg   %al,(%rcx)
     7a2:	84 c0                	test   %al,%al
     7a4:	75 df                	jne    785 <_Z5test2v+0x785>
     7a6:	48 8b 44 24 70       	mov    0x70(%rsp),%rax
     7ab:	48 85 c0             	test   %rax,%rax
     7ae:	74 15                	je     7c5 <_Z5test2v+0x7c5>
     7b0:	48 c7 40 20 00 00 00 	movq   $0x0,0x20(%rax)
     7b7:	00 
     7b8:	c6 40 19 01          	movb   $0x1,0x19(%rax)
     7bc:	48 c7 44 24 70 00 00 	movq   $0x0,0x70(%rsp)
     7c3:	00 00 
     7c5:	0f b6 44 24 60       	movzbl 0x60(%rsp),%eax
     7ca:	3c 02                	cmp    $0x2,%al
     7cc:	74 12                	je     7e0 <_Z5test2v+0x7e0>
     7ce:	3c 03                	cmp    $0x3,%al
     7d0:	0f 85 28 08 00 00    	jne    ffe <_Z5test2v+0xffe>
     7d6:	48 8d 7c 24 50       	lea    0x50(%rsp),%rdi
     7db:	e8 00 00 00 00       	callq  7e0 <_Z5test2v+0x7e0>
     7e0:	48 85 db             	test   %rbx,%rbx
     7e3:	c6 44 24 60 00       	movb   $0x0,0x60(%rsp)
     7e8:	74 04                	je     7ee <_Z5test2v+0x7ee>
     7ea:	c6 43 18 00          	movb   $0x0,0x18(%rbx)
     7ee:	c6 44 24 68 00       	movb   $0x0,0x68(%rsp)
     7f3:	80 7c 24 60 03       	cmpb   $0x3,0x60(%rsp)
     7f8:	0f 84 f6 06 00 00    	je     ef4 <_Z5test2v+0xef4>
     7fe:	48 c7 44 24 40 00 00 	movq   $0x0,0x40(%rsp)
     805:	00 00 
     807:	48 c7 44 24 48 00 00 	movq   $0x0,0x48(%rsp)
     80e:	00 00 
     810:	31 db                	xor    %ebx,%ebx
     812:	eb 3c                	jmp    850 <_Z5test2v+0x850>
     814:	0f 1f 40 00          	nopl   0x0(%rax)
     818:	48 81 fb f9 00 00 00 	cmp    $0xf9,%rbx
     81f:	0f 86 ab 00 00 00    	jbe    8d0 <_Z5test2v+0x8d0>
     825:	48 8d bc 24 80 00 00 	lea    0x80(%rsp),%rdi
     82c:	00 
     82d:	31 f6                	xor    %esi,%esi
     82f:	48 c7 84 24 80 00 00 	movq   $0x0,0x80(%rsp)
     836:	00 00 00 00 00 
     83b:	48 c7 84 24 88 00 00 	movq   $0xf4240,0x88(%rsp)
     842:	00 40 42 0f 00 
     847:	e8 00 00 00 00       	callq  84c <_Z5test2v+0x84c>
     84c:	48 83 c3 01          	add    $0x1,%rbx
     850:	0f b6 84 24 d8 00 00 	movzbl 0xd8(%rsp),%eax
     857:	00 
     858:	84 c0                	test   %al,%al
     85a:	74 34                	je     890 <_Z5test2v+0x890>
     85c:	48 83 fb 7c          	cmp    $0x7c,%rbx
     860:	77 b6                	ja     818 <_Z5test2v+0x818>
     862:	f3 90                	pause  
     864:	eb e6                	jmp    84c <_Z5test2v+0x84c>
     866:	0f b6 44 24 60       	movzbl 0x60(%rsp),%eax
     86b:	3c 02                	cmp    $0x2,%al
     86d:	0f 84 6d ff ff ff    	je     7e0 <_Z5test2v+0x7e0>
     873:	3c 03                	cmp    $0x3,%al
     875:	0f 84 5b ff ff ff    	je     7d6 <_Z5test2v+0x7d6>
     87b:	3c 01                	cmp    $0x1,%al
     87d:	0f 85 6b ff ff ff    	jne    7ee <_Z5test2v+0x7ee>
     883:	e9 58 ff ff ff       	jmpq   7e0 <_Z5test2v+0x7e0>
     888:	0f 1f 84 00 00 00 00 	nopl   0x0(%rax,%rax,1)
     88f:	00 
     890:	b8 01 00 00 00       	mov    $0x1,%eax
     895:	89 c2                	mov    %eax,%edx
     897:	86 94 24 d8 00 00 00 	xchg   %dl,0xd8(%rsp)
     89e:	84 d2                	test   %dl,%dl
     8a0:	75 ba                	jne    85c <_Z5test2v+0x85c>
     8a2:	48 8b 94 24 e0 00 00 	mov    0xe0(%rsp),%rdx
     8a9:	00 
     8aa:	48 85 d2             	test   %rdx,%rdx
     8ad:	0f 84 ee 01 00 00    	je     aa1 <_Z5test2v+0xaa1>
     8b3:	0f b6 4a 18          	movzbl 0x18(%rdx),%ecx
     8b7:	48 8d 72 18          	lea    0x18(%rdx),%rsi
     8bb:	84 c9                	test   %cl,%cl
     8bd:	74 21                	je     8e0 <_Z5test2v+0x8e0>
     8bf:	c6 84 24 d8 00 00 00 	movb   $0x0,0xd8(%rsp)
     8c6:	00 
     8c7:	e9 44 ff ff ff       	jmpq   810 <_Z5test2v+0x810>
     8cc:	0f 1f 40 00          	nopl   0x0(%rax)
     8d0:	e8 00 00 00 00       	callq  8d5 <_Z5test2v+0x8d5>
     8d5:	e9 72 ff ff ff       	jmpq   84c <_Z5test2v+0x84c>
     8da:	66 0f 1f 44 00 00    	nopw   0x0(%rax,%rax,1)
     8e0:	86 06                	xchg   %al,(%rsi)
     8e2:	84 c0                	test   %al,%al
     8e4:	75 d9                	jne    8bf <_Z5test2v+0x8bf>
     8e6:	80 bc 24 d9 00 00 00 	cmpb   $0x0,0xd9(%rsp)
     8ed:	00 
     8ee:	48 89 6c 24 40       	mov    %rbp,0x40(%rsp)
     8f3:	48 89 54 24 48       	mov    %rdx,0x48(%rsp)
     8f8:	0f 85 ec 05 00 00    	jne    eea <_Z5test2v+0xeea>
     8fe:	80 7a 10 00          	cmpb   $0x0,0x10(%rdx)
     902:	0f 85 2c 0e 00 00    	jne    1734 <_Z5test2v+0x1734>
     908:	48 8b 84 24 e8 00 00 	mov    0xe8(%rsp),%rax
     90f:	00 
     910:	48 85 c0             	test   %rax,%rax
     913:	0f 84 da 07 00 00    	je     10f3 <_Z5test2v+0x10f3>
     919:	c7 00 05 00 00 00    	movl   $0x5,(%rax)
     91f:	c6 40 10 01          	movb   $0x1,0x10(%rax)
     923:	48 8b 84 24 e8 00 00 	mov    0xe8(%rsp),%rax
     92a:	00 
     92b:	c6 84 24 d9 00 00 00 	movb   $0x1,0xd9(%rsp)
     932:	01 
     933:	48 89 44 24 50       	mov    %rax,0x50(%rsp)
     938:	48 8b 84 24 f0 00 00 	mov    0xf0(%rsp),%rax
     93f:	00 
     940:	48 c7 84 24 f0 00 00 	movq   $0x0,0xf0(%rsp)
     947:	00 00 00 00 00 
     94c:	48 89 44 24 58       	mov    %rax,0x58(%rsp)
     951:	48 8b 84 24 f8 00 00 	mov    0xf8(%rsp),%rax
     958:	00 
     959:	48 c7 84 24 f8 00 00 	movq   $0x0,0xf8(%rsp)
     960:	00 00 00 00 00 
     965:	48 89 44 24 60       	mov    %rax,0x60(%rsp)
     96a:	48 8b 44 24 48       	mov    0x48(%rsp),%rax
     96f:	48 c7 40 20 00 00 00 	movq   $0x0,0x20(%rax)
     976:	00 
     977:	48 8b 54 24 40       	mov    0x40(%rsp),%rdx
     97c:	48 c7 84 24 e0 00 00 	movq   $0x0,0xe0(%rsp)
     983:	00 00 00 00 00 
     988:	48 85 d2             	test   %rdx,%rdx
     98b:	74 17                	je     9a4 <_Z5test2v+0x9a4>
     98d:	c6 42 18 00          	movb   $0x0,0x18(%rdx)
     991:	48 8b 44 24 48       	mov    0x48(%rsp),%rax
     996:	48 c7 44 24 40 00 00 	movq   $0x0,0x40(%rsp)
     99d:	00 00 
     99f:	48 85 c0             	test   %rax,%rax
     9a2:	74 0d                	je     9b1 <_Z5test2v+0x9b1>
     9a4:	c6 40 18 00          	movb   $0x0,0x18(%rax)
     9a8:	48 c7 44 24 48 00 00 	movq   $0x0,0x48(%rsp)
     9af:	00 00 
     9b1:	48 8b 7c 24 58       	mov    0x58(%rsp),%rdi
     9b6:	48 85 ff             	test   %rdi,%rdi
     9b9:	0f 84 21 07 00 00    	je     10e0 <_Z5test2v+0x10e0>
     9bf:	48 8b 44 24 50       	mov    0x50(%rsp),%rax
     9c4:	48 8d 74 24 28       	lea    0x28(%rsp),%rsi
     9c9:	48 89 44 24 28       	mov    %rax,0x28(%rsp)
     9ce:	48 8b 07             	mov    (%rdi),%rax
     9d1:	ff 50 10             	callq  *0x10(%rax)
     9d4:	48 8b 44 24 60       	mov    0x60(%rsp),%rax
     9d9:	48 85 c0             	test   %rax,%rax
     9dc:	0f 84 5e 01 00 00    	je     b40 <_Z5test2v+0xb40>
     9e2:	48 8b 00             	mov    (%rax),%rax
     9e5:	48 c7 84 24 18 01 00 	movq   $0x0,0x118(%rsp)
     9ec:	00 00 00 00 00 
     9f1:	48 8d 94 24 80 00 00 	lea    0x80(%rsp),%rdx
     9f8:	00 
     9f9:	48 c7 84 24 10 01 00 	movq   $0x0,0x110(%rsp)
     a00:	00 00 00 00 00 
     a05:	4c 8d b4 24 00 01 00 	lea    0x100(%rsp),%r14
     a0c:	00 
     a0d:	48 89 84 24 00 01 00 	mov    %rax,0x100(%rsp)
     a14:	00 
     a15:	48 8b 18             	mov    (%rax),%rbx
     a18:	48 8d 44 24 07       	lea    0x7(%rsp),%rax
     a1d:	c6 44 24 07 00       	movb   $0x0,0x7(%rsp)
     a22:	4c 89 b4 24 88 00 00 	mov    %r14,0x88(%rsp)
     a29:	00 
     a2a:	48 89 84 24 80 00 00 	mov    %rax,0x80(%rsp)
     a31:	00 
     a32:	48 8b 05 00 00 00 00 	mov    0x0(%rip),%rax        # a39 <_Z5test2v+0xa39>
     a39:	48 89 9c 24 90 00 00 	mov    %rbx,0x90(%rsp)
     a40:	00 
     a41:	48 c7 84 24 98 00 00 	movq   $0x0,0x98(%rsp)
     a48:	00 00 00 00 00 
     a4d:	48 c7 84 24 a0 00 00 	movq   $0x0,0xa0(%rsp)
     a54:	00 00 00 00 00 
     a59:	64 48 89 10          	mov    %rdx,%fs:(%rax)
     a5d:	48 8b 05 00 00 00 00 	mov    0x0(%rip),%rax        # a64 <_Z5test2v+0xa64>
     a64:	64 48 c7 00 00 00 00 	movq   $0x0,%fs:(%rax)
     a6b:	00 
     a6c:	b8 00 00 00 00       	mov    $0x0,%eax
     a71:	48 85 c0             	test   %rax,%rax
     a74:	0f 84 5a 06 00 00    	je     10d4 <_Z5test2v+0x10d4>
     a7a:	48 8d 7b 18          	lea    0x18(%rbx),%rdi
     a7e:	be 00 00 00 00       	mov    $0x0,%esi
     a83:	e8 00 00 00 00       	callq  a88 <_Z5test2v+0xa88>
     a88:	85 c0                	test   %eax,%eax
     a8a:	0f 85 49 06 00 00    	jne    10d9 <_Z5test2v+0x10d9>
     a90:	80 7c 24 07 00       	cmpb   $0x0,0x7(%rsp)
     a95:	75 51                	jne    ae8 <_Z5test2v+0xae8>
     a97:	bf 02 00 00 00       	mov    $0x2,%edi
     a9c:	e8 00 00 00 00       	callq  aa1 <_Z5test2v+0xaa1>
     aa1:	80 bc 24 d9 00 00 00 	cmpb   $0x0,0xd9(%rsp)
     aa8:	00 
     aa9:	48 89 6c 24 40       	mov    %rbp,0x40(%rsp)
     aae:	0f 85 36 04 00 00    	jne    eea <_Z5test2v+0xeea>
     ab4:	48 8b 54 24 48       	mov    0x48(%rsp),%rdx
     ab9:	48 85 d2             	test   %rdx,%rdx
     abc:	0f 85 3c fe ff ff    	jne    8fe <_Z5test2v+0x8fe>
     ac2:	80 bc 24 d0 00 00 00 	cmpb   $0x0,0xd0(%rsp)
     ac9:	00 
     aca:	0f 85 c8 0b 00 00    	jne    1698 <_Z5test2v+0x1698>
     ad0:	c7 84 24 c0 00 00 00 	movl   $0x5,0xc0(%rsp)
     ad7:	05 00 00 00 
     adb:	c6 84 24 d0 00 00 00 	movb   $0x1,0xd0(%rsp)
     ae2:	01 
     ae3:	48 89 e8             	mov    %rbp,%rax
     ae6:	eb 72                	jmp    b5a <_Z5test2v+0xb5a>
     ae8:	48 8d 7b 10          	lea    0x10(%rbx),%rdi
     aec:	b8 01 00 00 00       	mov    $0x1,%eax
     af1:	87 07                	xchg   %eax,(%rdi)
     af3:	85 c0                	test   %eax,%eax
     af5:	0f 88 5c 0a 00 00    	js     1557 <_Z5test2v+0x1557>
     afb:	48 8b 84 24 10 01 00 	mov    0x110(%rsp),%rax
     b02:	00 
     b03:	48 85 c0             	test   %rax,%rax
     b06:	74 0d                	je     b15 <_Z5test2v+0xb15>
     b08:	ba 03 00 00 00       	mov    $0x3,%edx
     b0d:	4c 89 f6             	mov    %r14,%rsi
     b10:	4c 89 f7             	mov    %r14,%rdi
     b13:	ff d0                	callq  *%rax
     b15:	4c 8b 74 24 60       	mov    0x60(%rsp),%r14
     b1a:	4d 85 f6             	test   %r14,%r14
     b1d:	74 21                	je     b40 <_Z5test2v+0xb40>
     b1f:	49 8b 5e 08          	mov    0x8(%r14),%rbx
     b23:	48 85 db             	test   %rbx,%rbx
     b26:	74 0b                	je     b33 <_Z5test2v+0xb33>
     b28:	f0 83 6b 08 01       	lock subl $0x1,0x8(%rbx)
     b2d:	0f 84 aa 07 00 00    	je     12dd <_Z5test2v+0x12dd>
     b33:	be 10 00 00 00       	mov    $0x10,%esi
     b38:	4c 89 f7             	mov    %r14,%rdi
     b3b:	e8 00 00 00 00       	callq  b40 <_Z5test2v+0xb40>
     b40:	48 8b 7c 24 58       	mov    0x58(%rsp),%rdi
     b45:	48 85 ff             	test   %rdi,%rdi
     b48:	74 06                	je     b50 <_Z5test2v+0xb50>
     b4a:	48 8b 07             	mov    (%rdi),%rax
     b4d:	ff 50 08             	callq  *0x8(%rax)
     b50:	48 8b 44 24 40       	mov    0x40(%rsp),%rax
     b55:	48 85 c0             	test   %rax,%rax
     b58:	74 0d                	je     b67 <_Z5test2v+0xb67>
     b5a:	c6 40 18 00          	movb   $0x0,0x18(%rax)
     b5e:	48 c7 44 24 40 00 00 	movq   $0x0,0x40(%rsp)
     b65:	00 00 
     b67:	48 8b 44 24 48       	mov    0x48(%rsp),%rax
     b6c:	48 85 c0             	test   %rax,%rax
     b6f:	74 04                	je     b75 <_Z5test2v+0xb75>
     b71:	c6 40 18 00          	movb   $0x0,0x18(%rax)
     b75:	4d 85 ed             	test   %r13,%r13
     b78:	0f 84 04 0c 00 00    	je     1782 <_Z5test2v+0x1782>
     b7e:	41 80 7d 10 00       	cmpb   $0x0,0x10(%r13)
     b83:	0f 84 f1 03 00 00    	je     f7a <_Z5test2v+0xf7a>
     b89:	4d 8d 75 18          	lea    0x18(%r13),%r14
     b8d:	48 c7 44 24 50 00 00 	movq   $0x0,0x50(%rsp)
     b94:	00 00 
     b96:	48 c7 44 24 58 00 00 	movq   $0x0,0x58(%rsp)
     b9d:	00 00 
     b9f:	90                   	nop
     ba0:	31 db                	xor    %ebx,%ebx
     ba2:	eb 38                	jmp    bdc <_Z5test2v+0xbdc>
     ba4:	0f 1f 40 00          	nopl   0x0(%rax)
     ba8:	48 81 fb f9 00 00 00 	cmp    $0xf9,%rbx
     baf:	76 6f                	jbe    c20 <_Z5test2v+0xc20>
     bb1:	48 8d bc 24 80 00 00 	lea    0x80(%rsp),%rdi
     bb8:	00 
     bb9:	31 f6                	xor    %esi,%esi
     bbb:	48 c7 84 24 80 00 00 	movq   $0x0,0x80(%rsp)
     bc2:	00 00 00 00 00 
     bc7:	48 c7 84 24 88 00 00 	movq   $0xf4240,0x88(%rsp)
     bce:	00 40 42 0f 00 
     bd3:	e8 00 00 00 00       	callq  bd8 <_Z5test2v+0xbd8>
     bd8:	48 83 c3 01          	add    $0x1,%rbx
     bdc:	41 0f b6 06          	movzbl (%r14),%eax
     be0:	84 c0                	test   %al,%al
     be2:	74 0c                	je     bf0 <_Z5test2v+0xbf0>
     be4:	48 83 fb 7c          	cmp    $0x7c,%rbx
     be8:	77 be                	ja     ba8 <_Z5test2v+0xba8>
     bea:	f3 90                	pause  
     bec:	eb ea                	jmp    bd8 <_Z5test2v+0xbd8>
     bee:	66 90                	xchg   %ax,%ax
     bf0:	b8 01 00 00 00       	mov    $0x1,%eax
     bf5:	89 c2                	mov    %eax,%edx
     bf7:	41 86 16             	xchg   %dl,(%r14)
     bfa:	84 d2                	test   %dl,%dl
     bfc:	75 e6                	jne    be4 <_Z5test2v+0xbe4>
     bfe:	49 8b 55 20          	mov    0x20(%r13),%rdx
     c02:	48 85 d2             	test   %rdx,%rdx
     c05:	0f 84 69 02 00 00    	je     e74 <_Z5test2v+0xe74>
     c0b:	0f b6 4a 18          	movzbl 0x18(%rdx),%ecx
     c0f:	48 8d 72 18          	lea    0x18(%rdx),%rsi
     c13:	84 c9                	test   %cl,%cl
     c15:	74 19                	je     c30 <_Z5test2v+0xc30>
     c17:	41 c6 06 00          	movb   $0x0,(%r14)
     c1b:	eb 83                	jmp    ba0 <_Z5test2v+0xba0>
     c1d:	0f 1f 00             	nopl   (%rax)
     c20:	e8 00 00 00 00       	callq  c25 <_Z5test2v+0xc25>
     c25:	eb b1                	jmp    bd8 <_Z5test2v+0xbd8>
     c27:	66 0f 1f 84 00 00 00 	nopw   0x0(%rax,%rax,1)
     c2e:	00 00 
     c30:	86 06                	xchg   %al,(%rsi)
     c32:	84 c0                	test   %al,%al
     c34:	75 e1                	jne    c17 <_Z5test2v+0xc17>
     c36:	48 89 54 24 50       	mov    %rdx,0x50(%rsp)
     c3b:	4c 89 6c 24 58       	mov    %r13,0x58(%rsp)
     c40:	41 80 7d 19 00       	cmpb   $0x0,0x19(%r13)
     c45:	0f 85 f3 0a 00 00    	jne    173e <_Z5test2v+0x173e>
     c4b:	49 83 7d 20 00       	cmpq   $0x0,0x20(%r13)
     c50:	41 0f b6 45 10       	movzbl 0x10(%r13),%eax
     c55:	0f 84 e0 04 00 00    	je     113b <_Z5test2v+0x113b>
     c5b:	3c 02                	cmp    $0x2,%al
     c5d:	0f 84 53 05 00 00    	je     11b6 <_Z5test2v+0x11b6>
     c63:	3c 03                	cmp    $0x3,%al
     c65:	75 2c                	jne    c93 <_Z5test2v+0xc93>
     c67:	48 8d 7c 24 40       	lea    0x40(%rsp),%rdi
     c6c:	4c 89 ee             	mov    %r13,%rsi
     c6f:	e8 00 00 00 00       	callq  c74 <_Z5test2v+0xc74>
     c74:	48 8d bc 24 80 00 00 	lea    0x80(%rsp),%rdi
     c7b:	00 
     c7c:	48 8d 74 24 40       	lea    0x40(%rsp),%rsi
     c81:	e8 00 00 00 00       	callq  c86 <_Z5test2v+0xc86>
     c86:	48 8d bc 24 80 00 00 	lea    0x80(%rsp),%rdi
     c8d:	00 
     c8e:	e8 00 00 00 00       	callq  c93 <_Z5test2v+0xc93>
     c93:	48 8b 44 24 50       	mov    0x50(%rsp),%rax
     c98:	45 8b 75 00          	mov    0x0(%r13),%r14d
     c9c:	48 85 c0             	test   %rax,%rax
     c9f:	74 17                	je     cb8 <_Z5test2v+0xcb8>
     ca1:	c6 40 18 00          	movb   $0x0,0x18(%rax)
     ca5:	4c 8b 6c 24 58       	mov    0x58(%rsp),%r13
     caa:	48 c7 44 24 50 00 00 	movq   $0x0,0x50(%rsp)
     cb1:	00 00 
     cb3:	4d 85 ed             	test   %r13,%r13
     cb6:	74 05                	je     cbd <_Z5test2v+0xcbd>
     cb8:	41 c6 45 18 00       	movb   $0x0,0x18(%r13)
     cbd:	41 bd 00 00 00 00    	mov    $0x0,%r13d
     cc3:	4d 85 ed             	test   %r13,%r13
     cc6:	0f 84 d6 03 00 00    	je     10a2 <_Z5test2v+0x10a2>
     ccc:	f0 41 83 6c 24 08 01 	lock subl $0x1,0x8(%r12)
     cd3:	0f 84 d6 05 00 00    	je     12af <_Z5test2v+0x12af>
     cd9:	80 bc 24 d9 00 00 00 	cmpb   $0x0,0xd9(%rsp)
     ce0:	00 
     ce1:	0f 84 c0 00 00 00    	je     da7 <_Z5test2v+0xda7>
     ce7:	4c 8b a4 24 f8 00 00 	mov    0xf8(%rsp),%r12
     cee:	00 
     cef:	4d 85 e4             	test   %r12,%r12
     cf2:	74 2b                	je     d1f <_Z5test2v+0xd1f>
     cf4:	49 8b 5c 24 08       	mov    0x8(%r12),%rbx
     cf9:	48 85 db             	test   %rbx,%rbx
     cfc:	74 14                	je     d12 <_Z5test2v+0xd12>
     cfe:	4d 85 ed             	test   %r13,%r13
     d01:	0f 84 86 04 00 00    	je     118d <_Z5test2v+0x118d>
     d07:	f0 83 6b 08 01       	lock subl $0x1,0x8(%rbx)
     d0c:	0f 84 2f 03 00 00    	je     1041 <_Z5test2v+0x1041>
     d12:	be 10 00 00 00       	mov    $0x10,%esi
     d17:	4c 89 e7             	mov    %r12,%rdi
     d1a:	e8 00 00 00 00       	callq  d1f <_Z5test2v+0xd1f>
     d1f:	48 8b bc 24 f0 00 00 	mov    0xf0(%rsp),%rdi
     d26:	00 
     d27:	48 85 ff             	test   %rdi,%rdi
     d2a:	74 06                	je     d32 <_Z5test2v+0xd32>
     d2c:	48 8b 07             	mov    (%rdi),%rax
     d2f:	ff 50 08             	callq  *0x8(%rax)
     d32:	80 bc 24 d0 00 00 00 	cmpb   $0x3,0xd0(%rsp)
     d39:	03 
     d3a:	0f 84 55 03 00 00    	je     1095 <_Z5test2v+0x1095>
     d40:	48 8b 8c 24 28 01 00 	mov    0x128(%rsp),%rcx
     d47:	00 
     d48:	64 48 33 0c 25 28 00 	xor    %fs:0x28,%rcx
     d4f:	00 00 
     d51:	44 89 f0             	mov    %r14d,%eax
     d54:	0f 85 d5 09 00 00    	jne    172f <_Z5test2v+0x172f>
     d5a:	48 81 c4 38 01 00 00 	add    $0x138,%rsp
     d61:	5b                   	pop    %rbx
     d62:	5d                   	pop    %rbp
     d63:	41 5c                	pop    %r12
     d65:	41 5d                	pop    %r13
     d67:	41 5e                	pop    %r14
     d69:	41 5f                	pop    %r15
     d6b:	c3                   	retq   
     d6c:	0f 1f 40 00          	nopl   0x0(%rax)
     d70:	b8 01 00 00 00       	mov    $0x1,%eax
     d75:	89 c2                	mov    %eax,%edx
     d77:	86 94 24 d8 00 00 00 	xchg   %dl,0xd8(%rsp)
     d7e:	84 d2                	test   %dl,%dl
     d80:	75 6e                	jne    df0 <_Z5test2v+0xdf0>
     d82:	48 8b 9c 24 e0 00 00 	mov    0xe0(%rsp),%rbx
     d89:	00 
     d8a:	48 85 db             	test   %rbx,%rbx
     d8d:	0f 84 6f 03 00 00    	je     1102 <_Z5test2v+0x1102>
     d93:	0f b6 53 18          	movzbl 0x18(%rbx),%edx
     d97:	48 8d 4b 18          	lea    0x18(%rbx),%rcx
     d9b:	84 d2                	test   %dl,%dl
     d9d:	74 68                	je     e07 <_Z5test2v+0xe07>
     d9f:	c6 84 24 d8 00 00 00 	movb   $0x0,0xd8(%rsp)
     da6:	00 
     da7:	31 db                	xor    %ebx,%ebx
     da9:	eb 39                	jmp    de4 <_Z5test2v+0xde4>
     dab:	0f 1f 44 00 00       	nopl   0x0(%rax,%rax,1)
     db0:	48 81 fb f9 00 00 00 	cmp    $0xf9,%rbx
     db7:	76 47                	jbe    e00 <_Z5test2v+0xe00>
     db9:	48 8d bc 24 80 00 00 	lea    0x80(%rsp),%rdi
     dc0:	00 
     dc1:	31 f6                	xor    %esi,%esi
     dc3:	48 c7 84 24 80 00 00 	movq   $0x0,0x80(%rsp)
     dca:	00 00 00 00 00 
     dcf:	48 c7 84 24 88 00 00 	movq   $0xf4240,0x88(%rsp)
     dd6:	00 40 42 0f 00 
     ddb:	e8 00 00 00 00       	callq  de0 <_Z5test2v+0xde0>
     de0:	48 83 c3 01          	add    $0x1,%rbx
     de4:	0f b6 84 24 d8 00 00 	movzbl 0xd8(%rsp),%eax
     deb:	00 
     dec:	84 c0                	test   %al,%al
     dee:	74 80                	je     d70 <_Z5test2v+0xd70>
     df0:	48 83 fb 7c          	cmp    $0x7c,%rbx
     df4:	77 ba                	ja     db0 <_Z5test2v+0xdb0>
     df6:	f3 90                	pause  
     df8:	eb e6                	jmp    de0 <_Z5test2v+0xde0>
     dfa:	66 0f 1f 44 00 00    	nopw   0x0(%rax,%rax,1)
     e00:	e8 00 00 00 00       	callq  e05 <_Z5test2v+0xe05>
     e05:	eb d9                	jmp    de0 <_Z5test2v+0xde0>
     e07:	86 01                	xchg   %al,(%rcx)
     e09:	84 c0                	test   %al,%al
     e0b:	75 92                	jne    d9f <_Z5test2v+0xd9f>
     e0d:	0f b6 84 24 d0 00 00 	movzbl 0xd0(%rsp),%eax
     e14:	00 
     e15:	c6 43 19 01          	movb   $0x1,0x19(%rbx)
     e19:	48 c7 43 20 00 00 00 	movq   $0x0,0x20(%rbx)
     e20:	00 
     e21:	48 c7 84 24 e0 00 00 	movq   $0x0,0xe0(%rsp)
     e28:	00 00 00 00 00 
     e2d:	3c 02                	cmp    $0x2,%al
     e2f:	74 21                	je     e52 <_Z5test2v+0xe52>
     e31:	3c 03                	cmp    $0x3,%al
     e33:	74 15                	je     e4a <_Z5test2v+0xe4a>
     e35:	3c 01                	cmp    $0x1,%al
     e37:	74 19                	je     e52 <_Z5test2v+0xe52>
     e39:	c6 84 24 d8 00 00 00 	movb   $0x0,0xd8(%rsp)
     e40:	00 
     e41:	c6 43 18 00          	movb   $0x0,0x18(%rbx)
     e45:	e9 9d fe ff ff       	jmpq   ce7 <_Z5test2v+0xce7>
     e4a:	48 89 ef             	mov    %rbp,%rdi
     e4d:	e8 00 00 00 00       	callq  e52 <_Z5test2v+0xe52>
     e52:	48 85 db             	test   %rbx,%rbx
     e55:	c6 84 24 d0 00 00 00 	movb   $0x0,0xd0(%rsp)
     e5c:	00 
     e5d:	c6 84 24 d8 00 00 00 	movb   $0x0,0xd8(%rsp)
     e64:	00 
     e65:	0f 84 7c fe ff ff    	je     ce7 <_Z5test2v+0xce7>
     e6b:	c6 43 18 00          	movb   $0x0,0x18(%rbx)
     e6f:	e9 73 fe ff ff       	jmpq   ce7 <_Z5test2v+0xce7>
     e74:	4c 89 6c 24 58       	mov    %r13,0x58(%rsp)
     e79:	e9 c2 fd ff ff       	jmpq   c40 <_Z5test2v+0xc40>
     e7e:	3c 02                	cmp    $0x2,%al
     e80:	0f 84 79 04 00 00    	je     12ff <_Z5test2v+0x12ff>
     e86:	3c 03                	cmp    $0x3,%al
     e88:	0f 84 95 01 00 00    	je     1023 <_Z5test2v+0x1023>
     e8e:	3c 01                	cmp    $0x1,%al
     e90:	75 0b                	jne    e9d <_Z5test2v+0xe9d>
     e92:	8b 94 24 c0 00 00 00 	mov    0xc0(%rsp),%edx
     e99:	89 54 24 50          	mov    %edx,0x50(%rsp)
     e9d:	88 44 24 60          	mov    %al,0x60(%rsp)
     ea1:	c6 84 24 d9 00 00 00 	movb   $0x1,0xd9(%rsp)
     ea8:	01 
     ea9:	e9 0b f3 ff ff       	jmpq   1b9 <_Z5test2v+0x1b9>
     eae:	0f b6 84 24 90 00 00 	movzbl 0x90(%rsp),%eax
     eb5:	00 
     eb6:	3c 02                	cmp    $0x2,%al
     eb8:	0f 84 0d f7 ff ff    	je     5cb <_Z5test2v+0x5cb>
     ebe:	3c 03                	cmp    $0x3,%al
     ec0:	0f 84 f8 f6 ff ff    	je     5be <_Z5test2v+0x5be>
     ec6:	3c 01                	cmp    $0x1,%al
     ec8:	0f 85 0e f7 ff ff    	jne    5dc <_Z5test2v+0x5dc>
     ece:	e9 f8 f6 ff ff       	jmpq   5cb <_Z5test2v+0x5cb>
     ed3:	31 d2                	xor    %edx,%edx
     ed5:	8b 44 24 50          	mov    0x50(%rsp),%eax
     ed9:	89 84 24 80 00 00 00 	mov    %eax,0x80(%rsp)
     ee0:	b8 01 00 00 00       	mov    $0x1,%eax
     ee5:	e9 de f3 ff ff       	jmpq   2c8 <_Z5test2v+0x2c8>
     eea:	bf 01 00 00 00       	mov    $0x1,%edi
     eef:	e8 00 00 00 00       	callq  ef4 <_Z5test2v+0xef4>
     ef4:	48 8d 7c 24 50       	lea    0x50(%rsp),%rdi
     ef9:	e8 00 00 00 00       	callq  efe <_Z5test2v+0xefe>
     efe:	e9 fb f8 ff ff       	jmpq   7fe <_Z5test2v+0x7fe>
     f03:	48 8d bc 24 80 00 00 	lea    0x80(%rsp),%rdi
     f0a:	00 
     f0b:	e8 00 00 00 00       	callq  f10 <_Z5test2v+0xf10>
     f10:	48 83 7c 24 70 00    	cmpq   $0x0,0x70(%rsp)
     f16:	0f 85 14 f7 ff ff    	jne    630 <_Z5test2v+0x630>
     f1c:	80 7c 24 60 00       	cmpb   $0x0,0x60(%rsp)
     f21:	0f 85 09 f7 ff ff    	jne    630 <_Z5test2v+0x630>
     f27:	80 7c 24 69 00       	cmpb   $0x0,0x69(%rsp)
     f2c:	0f 84 cc f8 ff ff    	je     7fe <_Z5test2v+0x7fe>
     f32:	e9 f9 f6 ff ff       	jmpq   630 <_Z5test2v+0x630>
     f37:	31 d2                	xor    %edx,%edx
     f39:	48 8b 4c 24 50       	mov    0x50(%rsp),%rcx
     f3e:	48 8b 5c 24 58       	mov    0x58(%rsp),%rbx
     f43:	b8 02 00 00 00       	mov    $0x2,%eax
     f48:	48 89 8c 24 80 00 00 	mov    %rcx,0x80(%rsp)
     f4f:	00 
     f50:	48 89 9c 24 88 00 00 	mov    %rbx,0x88(%rsp)
     f57:	00 
     f58:	e9 6b f3 ff ff       	jmpq   2c8 <_Z5test2v+0x2c8>
     f5d:	8b 47 0c             	mov    0xc(%rdi),%eax
     f60:	8d 50 ff             	lea    -0x1(%rax),%edx
     f63:	83 f8 01             	cmp    $0x1,%eax
     f66:	89 57 0c             	mov    %edx,0xc(%rdi)
     f69:	0f 85 a3 f6 ff ff    	jne    612 <_Z5test2v+0x612>
     f6f:	48 8b 07             	mov    (%rdi),%rax
     f72:	ff 50 18             	callq  *0x18(%rax)
     f75:	e9 98 f6 ff ff       	jmpq   612 <_Z5test2v+0x612>
     f7a:	4c 89 ef             	mov    %r13,%rdi
     f7d:	e8 00 00 00 00       	callq  f82 <_Z5test2v+0xf82>
     f82:	e9 02 fc ff ff       	jmpq   b89 <_Z5test2v+0xb89>
     f87:	49 8b 7d 30          	mov    0x30(%r13),%rdi
     f8b:	41 83 44 24 0c 01    	addl   $0x1,0xc(%r12)
     f91:	48 85 ff             	test   %rdi,%rdi
     f94:	0f 84 35 f5 ff ff    	je     4cf <_Z5test2v+0x4cf>
     f9a:	8b 47 0c             	mov    0xc(%rdi),%eax
     f9d:	8d 50 ff             	lea    -0x1(%rax),%edx
     fa0:	83 f8 01             	cmp    $0x1,%eax
     fa3:	89 57 0c             	mov    %edx,0xc(%rdi)
     fa6:	0f 85 23 f5 ff ff    	jne    4cf <_Z5test2v+0x4cf>
     fac:	48 8b 07             	mov    (%rdi),%rax
     faf:	ff 50 18             	callq  *0x18(%rax)
     fb2:	e9 18 f5 ff ff       	jmpq   4cf <_Z5test2v+0x4cf>
     fb7:	31 d2                	xor    %edx,%edx
     fb9:	48 8b 8c 24 80 00 00 	mov    0x80(%rsp),%rcx
     fc0:	00 
     fc1:	48 8b 9c 24 88 00 00 	mov    0x88(%rsp),%rbx
     fc8:	00 
     fc9:	b8 02 00 00 00       	mov    $0x2,%eax
     fce:	49 89 4c 24 10       	mov    %rcx,0x10(%r12)
     fd3:	49 89 5c 24 18       	mov    %rbx,0x18(%r12)
     fd8:	e9 47 f4 ff ff       	jmpq   424 <_Z5test2v+0x424>
     fdd:	80 bc 24 90 00 00 00 	cmpb   $0x0,0x90(%rsp)
     fe4:	00 
     fe5:	0f 85 f7 f4 ff ff    	jne    4e2 <_Z5test2v+0x4e2>
     feb:	80 bc 24 99 00 00 00 	cmpb   $0x0,0x99(%rsp)
     ff2:	00 
     ff3:	0f 84 eb f5 ff ff    	je     5e4 <_Z5test2v+0x5e4>
     ff9:	e9 e4 f4 ff ff       	jmpq   4e2 <_Z5test2v+0x4e2>
     ffe:	3c 01                	cmp    $0x1,%al
    1000:	0f 84 da f7 ff ff    	je     7e0 <_Z5test2v+0x7e0>
    1006:	e9 df f7 ff ff       	jmpq   7ea <_Z5test2v+0x7ea>
    100b:	31 d2                	xor    %edx,%edx
    100d:	8b 84 24 80 00 00 00 	mov    0x80(%rsp),%eax
    1014:	41 89 44 24 10       	mov    %eax,0x10(%r12)
    1019:	b8 01 00 00 00       	mov    $0x1,%eax
    101e:	e9 01 f4 ff ff       	jmpq   424 <_Z5test2v+0x424>
    1023:	48 8b 94 24 c0 00 00 	mov    0xc0(%rsp),%rdx
    102a:	00 
    102b:	48 c7 84 24 c0 00 00 	movq   $0x0,0xc0(%rsp)
    1032:	00 00 00 00 00 
    1037:	48 89 54 24 50       	mov    %rdx,0x50(%rsp)
    103c:	e9 5c fe ff ff       	jmpq   e9d <_Z5test2v+0xe9d>
    1041:	48 8b 03             	mov    (%rbx),%rax
    1044:	48 89 df             	mov    %rbx,%rdi
    1047:	ff 50 10             	callq  *0x10(%rax)
    104a:	b8 ff ff ff ff       	mov    $0xffffffff,%eax
    104f:	f0 0f c1 43 0c       	lock xadd %eax,0xc(%rbx)
    1054:	83 f8 01             	cmp    $0x1,%eax
    1057:	0f 85 b5 fc ff ff    	jne    d12 <_Z5test2v+0xd12>
    105d:	48 8b 03             	mov    (%rbx),%rax
    1060:	48 89 df             	mov    %rbx,%rdi
    1063:	ff 50 18             	callq  *0x18(%rax)
    1066:	e9 a7 fc ff ff       	jmpq   d12 <_Z5test2v+0xd12>
    106b:	0f 1f 44 00 00       	nopl   0x0(%rax,%rax,1)
    1070:	31 d2                	xor    %edx,%edx
    1072:	48 8b 84 24 80 00 00 	mov    0x80(%rsp),%rax
    1079:	00 
    107a:	48 c7 84 24 80 00 00 	movq   $0x0,0x80(%rsp)
    1081:	00 00 00 00 00 
    1086:	49 89 44 24 10       	mov    %rax,0x10(%r12)
    108b:	b8 03 00 00 00       	mov    $0x3,%eax
    1090:	e9 8f f3 ff ff       	jmpq   424 <_Z5test2v+0x424>
    1095:	48 89 ef             	mov    %rbp,%rdi
    1098:	e8 00 00 00 00       	callq  109d <_Z5test2v+0x109d>
    109d:	e9 9e fc ff ff       	jmpq   d40 <_Z5test2v+0xd40>
    10a2:	41 8b 44 24 08       	mov    0x8(%r12),%eax
    10a7:	8d 50 ff             	lea    -0x1(%rax),%edx
    10aa:	83 f8 01             	cmp    $0x1,%eax
    10ad:	41 89 54 24 08       	mov    %edx,0x8(%r12)
    10b2:	0f 85 21 fc ff ff    	jne    cd9 <_Z5test2v+0xcd9>
    10b8:	49 8b 04 24          	mov    (%r12),%rax
    10bc:	4c 89 e7             	mov    %r12,%rdi
    10bf:	ff 50 10             	callq  *0x10(%rax)
    10c2:	41 8b 44 24 0c       	mov    0xc(%r12),%eax
    10c7:	8d 50 ff             	lea    -0x1(%rax),%edx
    10ca:	41 89 54 24 0c       	mov    %edx,0xc(%r12)
    10cf:	e9 f1 01 00 00       	jmpq   12c5 <_Z5test2v+0x12c5>
    10d4:	b8 ff ff ff ff       	mov    $0xffffffff,%eax
    10d9:	89 c7                	mov    %eax,%edi
    10db:	e8 00 00 00 00       	callq  10e0 <_Z5test2v+0x10e0>
    10e0:	48 8b 44 24 60       	mov    0x60(%rsp),%rax
    10e5:	48 85 c0             	test   %rax,%rax
    10e8:	0f 85 f4 f8 ff ff    	jne    9e2 <_Z5test2v+0x9e2>
    10ee:	e9 5d fa ff ff       	jmpq   b50 <_Z5test2v+0xb50>
    10f3:	c7 02 05 00 00 00    	movl   $0x5,(%rdx)
    10f9:	c6 42 10 01          	movb   $0x1,0x10(%rdx)
    10fd:	e9 21 f8 ff ff       	jmpq   923 <_Z5test2v+0x923>
    1102:	0f b6 84 24 d0 00 00 	movzbl 0xd0(%rsp),%eax
    1109:	00 
    110a:	48 c7 84 24 e0 00 00 	movq   $0x0,0xe0(%rsp)
    1111:	00 00 00 00 00 
    1116:	3c 02                	cmp    $0x2,%al
    1118:	0f 84 34 fd ff ff    	je     e52 <_Z5test2v+0xe52>
    111e:	3c 03                	cmp    $0x3,%al
    1120:	0f 84 24 fd ff ff    	je     e4a <_Z5test2v+0xe4a>
    1126:	3c 01                	cmp    $0x1,%al
    1128:	0f 84 24 fd ff ff    	je     e52 <_Z5test2v+0xe52>
    112e:	c6 84 24 d8 00 00 00 	movb   $0x0,0xd8(%rsp)
    1135:	00 
    1136:	e9 ac fb ff ff       	jmpq   ce7 <_Z5test2v+0xce7>
    113b:	84 c0                	test   %al,%al
    113d:	0f 85 18 fb ff ff    	jne    c5b <_Z5test2v+0xc5b>
    1143:	bf 20 00 00 00       	mov    $0x20,%edi
    1148:	e8 00 00 00 00       	callq  114d <_Z5test2v+0x114d>
    114d:	49 89 c5             	mov    %rax,%r13
    1150:	e8 00 00 00 00       	callq  1155 <_Z5test2v+0x1155>
    1155:	be 03 00 00 00       	mov    $0x3,%esi
    115a:	48 89 c2             	mov    %rax,%rdx
    115d:	4c 89 ef             	mov    %r13,%rdi
    1160:	e8 00 00 00 00       	callq  1165 <_Z5test2v+0x1165>
    1165:	ba 00 00 00 00       	mov    $0x0,%edx
    116a:	be 00 00 00 00       	mov    $0x0,%esi
    116f:	4c 89 ef             	mov    %r13,%rdi
    1172:	e8 00 00 00 00       	callq  1177 <_Z5test2v+0x1177>
    1177:	66 0f 1f 84 00 00 00 	nopw   0x0(%rax,%rax,1)
    117e:	00 00 
    1180:	3c 01                	cmp    $0x1,%al
    1182:	0f 84 43 f4 ff ff    	je     5cb <_Z5test2v+0x5cb>
    1188:	e9 4b f4 ff ff       	jmpq   5d8 <_Z5test2v+0x5d8>
    118d:	8b 43 08             	mov    0x8(%rbx),%eax
    1190:	8d 50 ff             	lea    -0x1(%rax),%edx
    1193:	83 f8 01             	cmp    $0x1,%eax
    1196:	89 53 08             	mov    %edx,0x8(%rbx)
    1199:	0f 85 73 fb ff ff    	jne    d12 <_Z5test2v+0xd12>
    119f:	48 8b 03             	mov    (%rbx),%rax
    11a2:	48 89 df             	mov    %rbx,%rdi
    11a5:	ff 50 10             	callq  *0x10(%rax)
    11a8:	8b 43 0c             	mov    0xc(%rbx),%eax
    11ab:	8d 50 ff             	lea    -0x1(%rax),%edx
    11ae:	89 53 0c             	mov    %edx,0xc(%rbx)
    11b1:	e9 9e fe ff ff       	jmpq   1054 <_Z5test2v+0x1054>
    11b6:	49 8b 5d 08          	mov    0x8(%r13),%rbx
    11ba:	e8 00 00 00 00       	callq  11bf <_Z5test2v+0x11bf>
    11bf:	4d 8b 7d 08          	mov    0x8(%r13),%r15
    11c3:	45 8b 75 00          	mov    0x0(%r13),%r14d
    11c7:	48 39 c3             	cmp    %rax,%rbx
    11ca:	49 8b 07             	mov    (%r15),%rax
    11cd:	48 8b 40 18          	mov    0x18(%rax),%rax
    11d1:	0f 84 e0 01 00 00    	je     13b7 <_Z5test2v+0x13b7>
    11d7:	48 3d 00 00 00 00    	cmp    $0x0,%rax
    11dd:	48 8d 5c 24 20       	lea    0x20(%rsp),%rbx
    11e2:	0f 85 0f 03 00 00    	jne    14f7 <_Z5test2v+0x14f7>
    11e8:	41 83 fe 02          	cmp    $0x2,%r14d
    11ec:	0f 84 ee 02 00 00    	je     14e0 <_Z5test2v+0x14e0>
    11f2:	41 83 fe 03          	cmp    $0x3,%r14d
    11f6:	0f 84 a4 01 00 00    	je     13a0 <_Z5test2v+0x13a0>
    11fc:	41 83 fe 01          	cmp    $0x1,%r14d
    1200:	0f 84 3a 03 00 00    	je     1540 <_Z5test2v+0x1540>
    1206:	48 8d 54 24 0f       	lea    0xf(%rsp),%rdx
    120b:	be 00 00 00 00       	mov    $0x0,%esi
    1210:	48 89 df             	mov    %rbx,%rdi
    1213:	e8 00 00 00 00       	callq  1218 <_Z5test2v+0x1218>
    1218:	4c 8d ac 24 80 00 00 	lea    0x80(%rsp),%r13
    121f:	00 
    1220:	48 89 de             	mov    %rbx,%rsi
    1223:	4c 89 ef             	mov    %r13,%rdi
    1226:	e8 00 00 00 00       	callq  122b <_Z5test2v+0x122b>
    122b:	48 8b 54 24 20       	mov    0x20(%rsp),%rdx
    1230:	48 8d 7a e8          	lea    -0x18(%rdx),%rdi
    1234:	48 81 ff 00 00 00 00 	cmp    $0x0,%rdi
    123b:	0f 85 c6 02 00 00    	jne    1507 <_Z5test2v+0x1507>
    1241:	bf 20 00 00 00       	mov    $0x20,%edi
    1246:	44 89 b4 24 90 00 00 	mov    %r14d,0x90(%rsp)
    124d:	00 
    124e:	48 c7 84 24 80 00 00 	movq   $0x0,0x80(%rsp)
    1255:	00 00 00 00 00 
    125a:	4c 89 bc 24 98 00 00 	mov    %r15,0x98(%rsp)
    1261:	00 
    1262:	e8 00 00 00 00       	callq  1267 <_Z5test2v+0x1267>
    1267:	49 8d 75 08          	lea    0x8(%r13),%rsi
    126b:	48 8d 78 08          	lea    0x8(%rax),%rdi
    126f:	48 c7 00 00 00 00 00 	movq   $0x0,(%rax)
    1276:	49 89 c6             	mov    %rax,%r14
    1279:	e8 00 00 00 00       	callq  127e <_Z5test2v+0x127e>
    127e:	48 8b 94 24 98 00 00 	mov    0x98(%rsp),%rdx
    1285:	00 
    1286:	48 8b 84 24 90 00 00 	mov    0x90(%rsp),%rax
    128d:	00 
    128e:	be 00 00 00 00       	mov    $0x0,%esi
    1293:	49 c7 06 00 00 00 00 	movq   $0x0,(%r14)
    129a:	4c 89 f7             	mov    %r14,%rdi
    129d:	49 89 56 18          	mov    %rdx,0x18(%r14)
    12a1:	49 89 46 10          	mov    %rax,0x10(%r14)
    12a5:	ba 00 00 00 00       	mov    $0x0,%edx
    12aa:	e8 00 00 00 00       	callq  12af <_Z5test2v+0x12af>
    12af:	49 8b 04 24          	mov    (%r12),%rax
    12b3:	4c 89 e7             	mov    %r12,%rdi
    12b6:	ff 50 10             	callq  *0x10(%rax)
    12b9:	b8 ff ff ff ff       	mov    $0xffffffff,%eax
    12be:	f0 41 0f c1 44 24 0c 	lock xadd %eax,0xc(%r12)
    12c5:	83 f8 01             	cmp    $0x1,%eax
    12c8:	0f 85 0b fa ff ff    	jne    cd9 <_Z5test2v+0xcd9>
    12ce:	49 8b 04 24          	mov    (%r12),%rax
    12d2:	4c 89 e7             	mov    %r12,%rdi
    12d5:	ff 50 18             	callq  *0x18(%rax)
    12d8:	e9 fc f9 ff ff       	jmpq   cd9 <_Z5test2v+0xcd9>
    12dd:	48 8b 03             	mov    (%rbx),%rax
    12e0:	48 89 df             	mov    %rbx,%rdi
    12e3:	ff 50 10             	callq  *0x10(%rax)
    12e6:	f0 83 6b 0c 01       	lock subl $0x1,0xc(%rbx)
    12eb:	0f 85 42 f8 ff ff    	jne    b33 <_Z5test2v+0xb33>
    12f1:	48 8b 03             	mov    (%rbx),%rax
    12f4:	48 89 df             	mov    %rbx,%rdi
    12f7:	ff 50 18             	callq  *0x18(%rax)
    12fa:	e9 34 f8 ff ff       	jmpq   b33 <_Z5test2v+0xb33>
    12ff:	48 8b 8c 24 c0 00 00 	mov    0xc0(%rsp),%rcx
    1306:	00 
    1307:	48 8b 9c 24 c8 00 00 	mov    0xc8(%rsp),%rbx
    130e:	00 
    130f:	48 89 4c 24 50       	mov    %rcx,0x50(%rsp)
    1314:	48 89 5c 24 58       	mov    %rbx,0x58(%rsp)
    1319:	e9 7f fb ff ff       	jmpq   e9d <_Z5test2v+0xe9d>
    131e:	48 89 c3             	mov    %rax,%rbx
    1321:	48 8b 84 24 10 01 00 	mov    0x110(%rsp),%rax
    1328:	00 
    1329:	48 85 c0             	test   %rax,%rax
    132c:	74 0d                	je     133b <_Z5test2v+0x133b>
    132e:	ba 03 00 00 00       	mov    $0x3,%edx
    1333:	4c 89 f6             	mov    %r14,%rsi
    1336:	4c 89 f7             	mov    %r14,%rdi
    1339:	ff d0                	callq  *%rax
    133b:	48 8d 7c 24 50       	lea    0x50(%rsp),%rdi
    1340:	e8 00 00 00 00       	callq  1345 <_Z5test2v+0x1345>
    1345:	48 8d 7c 24 40       	lea    0x40(%rsp),%rdi
    134a:	e8 00 00 00 00       	callq  134f <_Z5test2v+0x134f>
    134f:	4c 89 e7             	mov    %r12,%rdi
    1352:	e8 00 00 00 00       	callq  1357 <_Z5test2v+0x1357>
    1357:	48 89 ef             	mov    %rbp,%rdi
    135a:	e8 00 00 00 00       	callq  135f <_Z5test2v+0x135f>
    135f:	48 89 df             	mov    %rbx,%rdi
    1362:	e8 00 00 00 00       	callq  1367 <_Z5test2v+0x1367>
    1367:	48 89 c3             	mov    %rax,%rbx
    136a:	eb d9                	jmp    1345 <_Z5test2v+0x1345>
    136c:	48 8d bc 24 80 00 00 	lea    0x80(%rsp),%rdi
    1373:	00 
    1374:	48 89 c3             	mov    %rax,%rbx
    1377:	e8 00 00 00 00       	callq  137c <_Z5test2v+0x137c>
    137c:	48 8d 7c 24 40       	lea    0x40(%rsp),%rdi
    1381:	e8 00 00 00 00       	callq  1386 <_Z5test2v+0x1386>
    1386:	48 8d 7c 24 50       	lea    0x50(%rsp),%rdi
    138b:	e8 00 00 00 00       	callq  1390 <_Z5test2v+0x1390>
    1390:	eb bd                	jmp    134f <_Z5test2v+0x134f>
    1392:	48 89 c3             	mov    %rax,%rbx
    1395:	4c 89 ef             	mov    %r13,%rdi
    1398:	e8 00 00 00 00       	callq  139d <_Z5test2v+0x139d>
    139d:	eb e7                	jmp    1386 <_Z5test2v+0x1386>
    139f:	90                   	nop
    13a0:	48 8d 54 24 0e       	lea    0xe(%rsp),%rdx
    13a5:	be 00 00 00 00       	mov    $0x0,%esi
    13aa:	48 89 df             	mov    %rbx,%rdi
    13ad:	e8 00 00 00 00       	callq  13b2 <_Z5test2v+0x13b2>
    13b2:	e9 61 fe ff ff       	jmpq   1218 <_Z5test2v+0x1218>
    13b7:	48 3d 00 00 00 00    	cmp    $0x0,%rax
    13bd:	48 8d 5c 24 10       	lea    0x10(%rsp),%rbx
    13c2:	0f 85 f2 02 00 00    	jne    16ba <_Z5test2v+0x16ba>
    13c8:	41 83 fe 02          	cmp    $0x2,%r14d
    13cc:	0f 84 97 02 00 00    	je     1669 <_Z5test2v+0x1669>
    13d2:	41 83 fe 03          	cmp    $0x3,%r14d
    13d6:	0f 84 76 02 00 00    	je     1652 <_Z5test2v+0x1652>
    13dc:	41 83 fe 01          	cmp    $0x1,%r14d
    13e0:	0f 84 55 02 00 00    	je     163b <_Z5test2v+0x163b>
    13e6:	48 8d 54 24 0b       	lea    0xb(%rsp),%rdx
    13eb:	be 00 00 00 00       	mov    $0x0,%esi
    13f0:	48 89 df             	mov    %rbx,%rdi
    13f3:	e8 00 00 00 00       	callq  13f8 <_Z5test2v+0x13f8>
    13f8:	b9 13 00 00 00       	mov    $0x13,%ecx
    13fd:	ba 00 00 00 00       	mov    $0x0,%edx
    1402:	31 f6                	xor    %esi,%esi
    1404:	48 89 df             	mov    %rbx,%rdi
    1407:	e8 00 00 00 00       	callq  140c <_Z5test2v+0x140c>
    140c:	48 8b 10             	mov    (%rax),%rdx
    140f:	4c 8d ac 24 80 00 00 	lea    0x80(%rsp),%r13
    1416:	00 
    1417:	48 8d 74 24 40       	lea    0x40(%rsp),%rsi
    141c:	4c 89 ef             	mov    %r13,%rdi
    141f:	48 89 54 24 40       	mov    %rdx,0x40(%rsp)
    1424:	48 c7 00 00 00 00 00 	movq   $0x0,(%rax)
    142b:	e8 00 00 00 00       	callq  1430 <_Z5test2v+0x1430>
    1430:	48 8b 54 24 40       	mov    0x40(%rsp),%rdx
    1435:	48 8d 7a e8          	lea    -0x18(%rdx),%rdi
    1439:	48 81 ff 00 00 00 00 	cmp    $0x0,%rdi
    1440:	0f 85 65 01 00 00    	jne    15ab <_Z5test2v+0x15ab>
    1446:	48 8b 54 24 10       	mov    0x10(%rsp),%rdx
    144b:	48 8d 7a e8          	lea    -0x18(%rdx),%rdi
    144f:	48 81 ff 00 00 00 00 	cmp    $0x0,%rdi
    1456:	0f 85 1d 01 00 00    	jne    1579 <_Z5test2v+0x1579>
    145c:	bf 20 00 00 00       	mov    $0x20,%edi
    1461:	44 89 b4 24 90 00 00 	mov    %r14d,0x90(%rsp)
    1468:	00 
    1469:	48 c7 84 24 80 00 00 	movq   $0x0,0x80(%rsp)
    1470:	00 00 00 00 00 
    1475:	4c 89 bc 24 98 00 00 	mov    %r15,0x98(%rsp)
    147c:	00 
    147d:	e8 00 00 00 00       	callq  1482 <_Z5test2v+0x1482>
    1482:	49 8d 75 08          	lea    0x8(%r13),%rsi
    1486:	48 8d 78 08          	lea    0x8(%rax),%rdi
    148a:	48 c7 00 00 00 00 00 	movq   $0x0,(%rax)
    1491:	49 89 c6             	mov    %rax,%r14
    1494:	e8 00 00 00 00       	callq  1499 <_Z5test2v+0x1499>
    1499:	48 8b 94 24 98 00 00 	mov    0x98(%rsp),%rdx
    14a0:	00 
    14a1:	48 8b 84 24 90 00 00 	mov    0x90(%rsp),%rax
    14a8:	00 
    14a9:	be 00 00 00 00       	mov    $0x0,%esi
    14ae:	49 c7 06 00 00 00 00 	movq   $0x0,(%r14)
    14b5:	4c 89 f7             	mov    %r14,%rdi
    14b8:	49 89 56 18          	mov    %rdx,0x18(%r14)
    14bc:	49 89 46 10          	mov    %rax,0x10(%r14)
    14c0:	ba 00 00 00 00       	mov    $0x0,%edx
    14c5:	e8 00 00 00 00       	callq  14ca <_Z5test2v+0x14ca>
    14ca:	48 89 c3             	mov    %rax,%rbx
    14cd:	4c 89 ef             	mov    %r13,%rdi
    14d0:	e8 00 00 00 00       	callq  14d5 <_Z5test2v+0x14d5>
    14d5:	e9 ac fe ff ff       	jmpq   1386 <_Z5test2v+0x1386>
    14da:	66 0f 1f 44 00 00    	nopw   0x0(%rax,%rax,1)
    14e0:	48 8d 54 24 0d       	lea    0xd(%rsp),%rdx
    14e5:	be 00 00 00 00       	mov    $0x0,%esi
    14ea:	48 89 df             	mov    %rbx,%rdi
    14ed:	e8 00 00 00 00       	callq  14f2 <_Z5test2v+0x14f2>
    14f2:	e9 21 fd ff ff       	jmpq   1218 <_Z5test2v+0x1218>
    14f7:	44 89 f2             	mov    %r14d,%edx
    14fa:	4c 89 fe             	mov    %r15,%rsi
    14fd:	48 89 df             	mov    %rbx,%rdi
    1500:	ff d0                	callq  *%rax
    1502:	e9 11 fd ff ff       	jmpq   1218 <_Z5test2v+0x1218>
    1507:	b8 00 00 00 00       	mov    $0x0,%eax
    150c:	48 85 c0             	test   %rax,%rax
    150f:	0f 84 ed 01 00 00    	je     1702 <_Z5test2v+0x1702>
    1515:	b8 ff ff ff ff       	mov    $0xffffffff,%eax
    151a:	f0 0f c1 42 f8       	lock xadd %eax,-0x8(%rdx)
    151f:	85 c0                	test   %eax,%eax
    1521:	0f 8f 1a fd ff ff    	jg     1241 <_Z5test2v+0x1241>
    1527:	48 8d 74 24 40       	lea    0x40(%rsp),%rsi
    152c:	e8 00 00 00 00       	callq  1531 <_Z5test2v+0x1531>
    1531:	e9 0b fd ff ff       	jmpq   1241 <_Z5test2v+0x1241>
    1536:	66 2e 0f 1f 84 00 00 	nopw   %cs:0x0(%rax,%rax,1)
    153d:	00 00 00 
    1540:	48 8d 54 24 0c       	lea    0xc(%rsp),%rdx
    1545:	be 00 00 00 00       	mov    $0x0,%esi
    154a:	48 89 df             	mov    %rbx,%rdi
    154d:	e8 00 00 00 00       	callq  1552 <_Z5test2v+0x1552>
    1552:	e9 c1 fc ff ff       	jmpq   1218 <_Z5test2v+0x1218>
    1557:	e8 00 00 00 00       	callq  155c <_Z5test2v+0x155c>
    155c:	e9 9a f5 ff ff       	jmpq   afb <_Z5test2v+0xafb>
    1561:	4c 89 f7             	mov    %r14,%rdi
    1564:	48 89 c3             	mov    %rax,%rbx
    1567:	e8 00 00 00 00       	callq  156c <_Z5test2v+0x156c>
    156c:	4c 89 f7             	mov    %r14,%rdi
    156f:	e8 00 00 00 00       	callq  1574 <_Z5test2v+0x1574>
    1574:	e9 54 ff ff ff       	jmpq   14cd <_Z5test2v+0x14cd>
    1579:	b8 00 00 00 00       	mov    $0x0,%eax
    157e:	48 8d 4f 10          	lea    0x10(%rdi),%rcx
    1582:	48 85 c0             	test   %rax,%rax
    1585:	0f 84 92 00 00 00    	je     161d <_Z5test2v+0x161d>
    158b:	b8 ff ff ff ff       	mov    $0xffffffff,%eax
    1590:	f0 0f c1 01          	lock xadd %eax,(%rcx)
    1594:	85 c0                	test   %eax,%eax
    1596:	0f 8f c0 fe ff ff    	jg     145c <_Z5test2v+0x145c>
    159c:	48 8d 74 24 40       	lea    0x40(%rsp),%rsi
    15a1:	e8 00 00 00 00       	callq  15a6 <_Z5test2v+0x15a6>
    15a6:	e9 b1 fe ff ff       	jmpq   145c <_Z5test2v+0x145c>
    15ab:	b8 00 00 00 00       	mov    $0x0,%eax
    15b0:	48 8d 4f 10          	lea    0x10(%rdi),%rcx
    15b4:	48 85 c0             	test   %rax,%rax
    15b7:	74 72                	je     162b <_Z5test2v+0x162b>
    15b9:	b8 ff ff ff ff       	mov    $0xffffffff,%eax
    15be:	f0 0f c1 01          	lock xadd %eax,(%rcx)
    15c2:	85 c0                	test   %eax,%eax
    15c4:	0f 8f 7c fe ff ff    	jg     1446 <_Z5test2v+0x1446>
    15ca:	48 8d 74 24 30       	lea    0x30(%rsp),%rsi
    15cf:	e8 00 00 00 00       	callq  15d4 <_Z5test2v+0x15d4>
    15d4:	e9 6d fe ff ff       	jmpq   1446 <_Z5test2v+0x1446>
    15d9:	48 89 c3             	mov    %rax,%rbx
    15dc:	48 8b 44 24 40       	mov    0x40(%rsp),%rax
    15e1:	48 8d 78 e8          	lea    -0x18(%rax),%rdi
    15e5:	48 81 ff 00 00 00 00 	cmp    $0x0,%rdi
    15ec:	74 0a                	je     15f8 <_Z5test2v+0x15f8>
    15ee:	48 8d 74 24 30       	lea    0x30(%rsp),%rsi
    15f3:	e8 00 00 00 00       	callq  15f8 <_Z5test2v+0x15f8>
    15f8:	48 8b 44 24 10       	mov    0x10(%rsp),%rax
    15fd:	48 8d 78 e8          	lea    -0x18(%rax),%rdi
    1601:	48 81 ff 00 00 00 00 	cmp    $0x0,%rdi
    1608:	0f 84 78 fd ff ff    	je     1386 <_Z5test2v+0x1386>
    160e:	48 8d 74 24 40       	lea    0x40(%rsp),%rsi
    1613:	e8 00 00 00 00       	callq  1618 <_Z5test2v+0x1618>
    1618:	e9 69 fd ff ff       	jmpq   1386 <_Z5test2v+0x1386>
    161d:	8b 42 f8             	mov    -0x8(%rdx),%eax
    1620:	8d 48 ff             	lea    -0x1(%rax),%ecx
    1623:	89 4a f8             	mov    %ecx,-0x8(%rdx)
    1626:	e9 69 ff ff ff       	jmpq   1594 <_Z5test2v+0x1594>
    162b:	8b 42 f8             	mov    -0x8(%rdx),%eax
    162e:	8d 48 ff             	lea    -0x1(%rax),%ecx
    1631:	89 4a f8             	mov    %ecx,-0x8(%rdx)
    1634:	eb 8c                	jmp    15c2 <_Z5test2v+0x15c2>
    1636:	48 89 c3             	mov    %rax,%rbx
    1639:	eb bd                	jmp    15f8 <_Z5test2v+0x15f8>
    163b:	48 8d 54 24 08       	lea    0x8(%rsp),%rdx
    1640:	be 00 00 00 00       	mov    $0x0,%esi
    1645:	48 89 df             	mov    %rbx,%rdi
    1648:	e8 00 00 00 00       	callq  164d <_Z5test2v+0x164d>
    164d:	e9 a6 fd ff ff       	jmpq   13f8 <_Z5test2v+0x13f8>
    1652:	48 8d 54 24 0a       	lea    0xa(%rsp),%rdx
    1657:	be 00 00 00 00       	mov    $0x0,%esi
    165c:	48 89 df             	mov    %rbx,%rdi
    165f:	e8 00 00 00 00       	callq  1664 <_Z5test2v+0x1664>
    1664:	e9 8f fd ff ff       	jmpq   13f8 <_Z5test2v+0x13f8>
    1669:	48 8d 54 24 09       	lea    0x9(%rsp),%rdx
    166e:	be 00 00 00 00       	mov    $0x0,%esi
    1673:	48 89 df             	mov    %rbx,%rdi
    1676:	e8 00 00 00 00       	callq  167b <_Z5test2v+0x167b>
    167b:	e9 78 fd ff ff       	jmpq   13f8 <_Z5test2v+0x13f8>
    1680:	4c 89 f7             	mov    %r14,%rdi
    1683:	48 89 c3             	mov    %rax,%rbx
    1686:	e8 00 00 00 00       	callq  168b <_Z5test2v+0x168b>
    168b:	4c 89 f7             	mov    %r14,%rdi
    168e:	e8 00 00 00 00       	callq  1693 <_Z5test2v+0x1693>
    1693:	e9 fd fc ff ff       	jmpq   1395 <_Z5test2v+0x1395>
    1698:	bf 01 00 00 00       	mov    $0x1,%edi
    169d:	e8 00 00 00 00       	callq  16a2 <_Z5test2v+0x16a2>
    16a2:	48 89 c3             	mov    %rax,%rbx
    16a5:	e9 dc fc ff ff       	jmpq   1386 <_Z5test2v+0x1386>
    16aa:	4c 89 ef             	mov    %r13,%rdi
    16ad:	48 89 c3             	mov    %rax,%rbx
    16b0:	e8 00 00 00 00       	callq  16b5 <_Z5test2v+0x16b5>
    16b5:	e9 cc fc ff ff       	jmpq   1386 <_Z5test2v+0x1386>
    16ba:	44 89 f2             	mov    %r14d,%edx
    16bd:	4c 89 fe             	mov    %r15,%rsi
    16c0:	48 89 df             	mov    %rbx,%rdi
    16c3:	ff d0                	callq  *%rax
    16c5:	e9 2e fd ff ff       	jmpq   13f8 <_Z5test2v+0x13f8>
    16ca:	4c 89 e7             	mov    %r12,%rdi
    16cd:	48 89 c3             	mov    %rax,%rbx
    16d0:	e8 00 00 00 00       	callq  16d5 <_Z5test2v+0x16d5>
    16d5:	48 8d 7c 24 30       	lea    0x30(%rsp),%rdi
    16da:	e8 00 00 00 00       	callq  16df <_Z5test2v+0x16df>
    16df:	e9 73 fc ff ff       	jmpq   1357 <_Z5test2v+0x1357>
    16e4:	48 89 c3             	mov    %rax,%rbx
    16e7:	48 8b 44 24 20       	mov    0x20(%rsp),%rax
    16ec:	48 8d 78 e8          	lea    -0x18(%rax),%rdi
    16f0:	48 81 ff 00 00 00 00 	cmp    $0x0,%rdi
    16f7:	0f 84 89 fc ff ff    	je     1386 <_Z5test2v+0x1386>
    16fd:	e9 0c ff ff ff       	jmpq   160e <_Z5test2v+0x160e>
    1702:	8b 42 f8             	mov    -0x8(%rdx),%eax
    1705:	8d 48 ff             	lea    -0x1(%rax),%ecx
    1708:	89 4a f8             	mov    %ecx,-0x8(%rdx)
    170b:	e9 0f fe ff ff       	jmpq   151f <_Z5test2v+0x151f>
    1710:	48 8d bc 24 80 00 00 	lea    0x80(%rsp),%rdi
    1717:	00 
    1718:	48 89 c3             	mov    %rax,%rbx
    171b:	e8 00 00 00 00       	callq  1720 <_Z5test2v+0x1720>
    1720:	48 8d 7c 24 50       	lea    0x50(%rsp),%rdi
    1725:	e8 00 00 00 00       	callq  172a <_Z5test2v+0x172a>
    172a:	e9 28 fc ff ff       	jmpq   1357 <_Z5test2v+0x1357>
    172f:	e8 00 00 00 00       	callq  1734 <_Z5test2v+0x1734>
    1734:	bf 01 00 00 00       	mov    $0x1,%edi
    1739:	e8 00 00 00 00       	callq  173e <_Z5test2v+0x173e>
    173e:	bf 20 00 00 00       	mov    $0x20,%edi
    1743:	e8 00 00 00 00       	callq  1748 <_Z5test2v+0x1748>
    1748:	49 89 c5             	mov    %rax,%r13
    174b:	e8 00 00 00 00       	callq  1750 <_Z5test2v+0x1750>
    1750:	be 04 00 00 00       	mov    $0x4,%esi
    1755:	48 89 c2             	mov    %rax,%rdx
    1758:	4c 89 ef             	mov    %r13,%rdi
    175b:	e8 00 00 00 00       	callq  1760 <_Z5test2v+0x1760>
    1760:	ba 00 00 00 00       	mov    $0x0,%edx
    1765:	be 00 00 00 00       	mov    $0x0,%esi
    176a:	4c 89 ef             	mov    %r13,%rdi
    176d:	e8 00 00 00 00       	callq  1772 <_Z5test2v+0x1772>
    1772:	48 89 c3             	mov    %rax,%rbx
    1775:	e9 d5 fb ff ff       	jmpq   134f <_Z5test2v+0x134f>
    177a:	48 89 c3             	mov    %rax,%rbx
    177d:	e9 53 ff ff ff       	jmpq   16d5 <_Z5test2v+0x16d5>
    1782:	bf 02 00 00 00       	mov    $0x2,%edi
    1787:	e8 00 00 00 00       	callq  178c <_Z5test2v+0x178c>
    178c:	48 89 c3             	mov    %rax,%rbx
    178f:	e9 a7 fb ff ff       	jmpq   133b <_Z5test2v+0x133b>
    1794:	e9 11 ff ff ff       	jmpq   16aa <_Z5test2v+0x16aa>
