   8:	53                   	push   %rbx
   9:	48 83 ec 40          	sub    $0x40,%rsp
   d:	48 89 fb             	mov    %rdi,%rbx
  10:	48 8d 7c 24 08       	lea    0x8(%rsp),%rdi
  15:	e8 00 00 00 00       	callq  1a <_Z5test1v+0x12>
  1a:	c6 44 24 30 00       	movb   $0x0,0x30(%rsp)
  1f:	8a 44 24 18          	mov    0x18(%rsp),%al
  23:	88 c1                	mov    %al,%cl
  25:	fe c9                	dec    %cl
  27:	0f b6 c9             	movzbl %cl,%ecx
  2a:	83 f9 03             	cmp    $0x3,%ecx
  2d:	76 6a                	jbe    99 <_Z5test1v+0x91>
  2f:	88 44 24 30          	mov    %al,0x30(%rsp)
  33:	48 8d 7c 24 20       	lea    0x20(%rsp),%rdi
  38:	e8 00 00 00 00       	callq  3d <_Z5test1v+0x35>
  3d:	6b 44 24 20 03       	imul   $0x3,0x20(%rsp),%eax
  42:	89 03                	mov    %eax,(%rbx)
  44:	c6 43 10 01          	movb   $0x1,0x10(%rbx)
  48:	8a 44 24 30          	mov    0x30(%rsp),%al
  4c:	fe c8                	dec    %al
  4e:	0f b6 c0             	movzbl %al,%eax
  51:	83 f8 03             	cmp    $0x3,%eax
  54:	77 16                	ja     6c <_Z5test1v+0x64>
  56:	ff 24 c5 00 00 00 00 	jmpq   *0x0(,%rax,8)
  5d:	48 8d 7c 24 20       	lea    0x20(%rsp),%rdi
  62:	e8 00 00 00 00       	callq  67 <_Z5test1v+0x5f>
  67:	c6 44 24 30 00       	movb   $0x0,0x30(%rsp)
  6c:	8a 44 24 18          	mov    0x18(%rsp),%al
  70:	fe c8                	dec    %al
  72:	0f b6 c0             	movzbl %al,%eax
  75:	83 f8 03             	cmp    $0x3,%eax
  78:	77 16                	ja     90 <_Z5test1v+0x88>
  7a:	ff 24 c5 00 00 00 00 	jmpq   *0x0(,%rax,8)
  81:	48 8d 7c 24 08       	lea    0x8(%rsp),%rdi
  86:	e8 00 00 00 00       	callq  8b <_Z5test1v+0x83>
  8b:	c6 44 24 18 00       	movb   $0x0,0x18(%rsp)
  90:	48 89 d8             	mov    %rbx,%rax
  93:	48 83 c4 40          	add    $0x40,%rsp
  97:	5b                   	pop    %rbx
  98:	c3                   	retq   
  99:	ff 24 cd 00 00 00 00 	jmpq   *0x0(,%rcx,8)
  a0:	8b 44 24 08          	mov    0x8(%rsp),%eax
  a4:	89 44 24 20          	mov    %eax,0x20(%rsp)
  a8:	b0 01                	mov    $0x1,%al
  aa:	eb 83                	jmp    2f <_Z5test1v+0x27>
  ac:	0f 10 44 24 08       	movups 0x8(%rsp),%xmm0
  b1:	0f 29 44 24 20       	movaps %xmm0,0x20(%rsp)
  b6:	b0 02                	mov    $0x2,%al
  b8:	e9 72 ff ff ff       	jmpq   2f <_Z5test1v+0x27>
  bd:	48 8d 7c 24 20       	lea    0x20(%rsp),%rdi
  c2:	48 8d 74 24 08       	lea    0x8(%rsp),%rsi
  c7:	e8 00 00 00 00       	callq  cc <_Z5test1v+0xc4>
  cc:	8a 44 24 18          	mov    0x18(%rsp),%al
  d0:	e9 5a ff ff ff       	jmpq   2f <_Z5test1v+0x27>
  d5:	48 89 c3             	mov    %rax,%rbx
  d8:	8a 44 24 30          	mov    0x30(%rsp),%al
  dc:	fe c8                	dec    %al
  de:	0f b6 c0             	movzbl %al,%eax
  e1:	83 f8 03             	cmp    $0x3,%eax
  e4:	77 16                	ja     fc <_Z5test1v+0xf4>
  e6:	ff 24 c5 00 00 00 00 	jmpq   *0x0(,%rax,8)
  ed:	48 8d 7c 24 20       	lea    0x20(%rsp),%rdi
  f2:	e8 00 00 00 00       	callq  f7 <_Z5test1v+0xef>
  f7:	c6 44 24 30 00       	movb   $0x0,0x30(%rsp)
  fc:	8a 44 24 18          	mov    0x18(%rsp),%al
 100:	fe c8                	dec    %al
 102:	0f b6 c0             	movzbl %al,%eax
 105:	83 f8 03             	cmp    $0x3,%eax
 108:	77 16                	ja     120 <_Z5test1v+0x118>
 10a:	ff 24 c5 00 00 00 00 	jmpq   *0x0(,%rax,8)
 111:	48 8d 7c 24 08       	lea    0x8(%rsp),%rdi
 116:	e8 00 00 00 00       	callq  11b <_Z5test1v+0x113>
 11b:	c6 44 24 18 00       	movb   $0x0,0x18(%rsp)
 120:	48 89 df             	mov    %rbx,%rdi
 123:	e8 00 00 00 00       	callq  128 <_Z5test1v+0x120>
 128:	e8 00 00 00 00       	callq  12d <_Z5test1v+0x125>
 12d:	0f 1f 00             	nopl   (%rax)
