  10:	41 55                	push   %r13
  12:	41 54                	push   %r12
  14:	55                   	push   %rbp
  15:	53                   	push   %rbx
  16:	48 89 fb             	mov    %rdi,%rbx
  19:	48 83 ec 78          	sub    $0x78,%rsp
  1d:	48 8d 7c 24 10       	lea    0x10(%rsp),%rdi
  22:	e8 00 00 00 00       	callq  27 <_Z5test1v+0x17>
  27:	0f b6 44 24 28       	movzbl 0x28(%rsp),%eax
  2c:	84 c0                	test   %al,%al
  2e:	0f 84 34 02 00 00    	je     268 <_Z5test1v+0x258>
  34:	3c 02                	cmp    $0x2,%al
  36:	74 58                	je     90 <_Z5test1v+0x80>
  38:	3c 03                	cmp    $0x3,%al
  3a:	74 24                	je     60 <_Z5test1v+0x50>
  3c:	48 89 df             	mov    %rbx,%rdi
  3f:	e8 00 00 00 00       	callq  44 <_Z5test1v+0x34>
  44:	80 7c 24 28 03       	cmpb   $0x3,0x28(%rsp)
  49:	74 29                	je     74 <_Z5test1v+0x64>
  4b:	48 83 c4 78          	add    $0x78,%rsp
  4f:	48 89 d8             	mov    %rbx,%rax
  52:	5b                   	pop    %rbx
  53:	5d                   	pop    %rbp
  54:	41 5c                	pop    %r12
  56:	41 5d                	pop    %r13
  58:	c3                   	retq   
  59:	0f 1f 80 00 00 00 00 	nopl   0x0(%rax)
  60:	48 8d 74 24 10       	lea    0x10(%rsp),%rsi
  65:	48 89 df             	mov    %rbx,%rdi
  68:	e8 00 00 00 00       	callq  6d <_Z5test1v+0x5d>
  6d:	80 7c 24 28 03       	cmpb   $0x3,0x28(%rsp)
  72:	75 d7                	jne    4b <_Z5test1v+0x3b>
  74:	48 8d 7c 24 10       	lea    0x10(%rsp),%rdi
  79:	e8 00 00 00 00       	callq  7e <_Z5test1v+0x6e>
  7e:	48 83 c4 78          	add    $0x78,%rsp
  82:	48 89 d8             	mov    %rbx,%rax
  85:	5b                   	pop    %rbx
  86:	5d                   	pop    %rbp
  87:	41 5c                	pop    %r12
  89:	41 5d                	pop    %r13
  8b:	c3                   	retq   
  8c:	0f 1f 40 00          	nopl   0x0(%rax)
  90:	4c 8b 6c 24 18       	mov    0x18(%rsp),%r13
  95:	44 8b 64 24 10       	mov    0x10(%rsp),%r12d
  9a:	48 8d 6c 24 50       	lea    0x50(%rsp),%rbp
  9f:	49 8b 45 00          	mov    0x0(%r13),%rax
  a3:	48 8b 40 20          	mov    0x20(%rax),%rax
  a7:	48 3d 00 00 00 00    	cmp    $0x0,%rax
  ad:	0f 85 a5 01 00 00    	jne    258 <_Z5test1v+0x248>
  b3:	48 8d 45 10          	lea    0x10(%rbp),%rax
  b7:	41 83 fc 02          	cmp    $0x2,%r12d
  bb:	48 89 44 24 50       	mov    %rax,0x50(%rsp)
  c0:	0f 84 da 00 00 00    	je     1a0 <_Z5test1v+0x190>
  c6:	41 83 fc 03          	cmp    $0x3,%r12d
  ca:	0f 84 f8 00 00 00    	je     1c8 <_Z5test1v+0x1b8>
  d0:	41 83 fc 01          	cmp    $0x1,%r12d
  d4:	0f 84 4c 01 00 00    	je     226 <_Z5test1v+0x216>
  da:	b8 6f 77 00 00       	mov    $0x776f,%eax
  df:	c7 44 24 60 75 6e 6b 	movl   $0x6e6b6e75,0x60(%rsp)
  e6:	6e 
  e7:	48 c7 44 24 58 07 00 	movq   $0x7,0x58(%rsp)
  ee:	00 00 
  f0:	66 89 45 14          	mov    %ax,0x14(%rbp)
  f4:	c6 45 16 6e          	movb   $0x6e,0x16(%rbp)
  f8:	c6 44 24 67 00       	movb   $0x0,0x67(%rsp)
  fd:	48 8d 7c 24 30       	lea    0x30(%rsp),%rdi
 102:	48 89 ee             	mov    %rbp,%rsi
 105:	e8 00 00 00 00       	callq  10a <_Z5test1v+0xfa>
 10a:	48 8b 7c 24 50       	mov    0x50(%rsp),%rdi
 10f:	48 83 c5 10          	add    $0x10,%rbp
 113:	48 39 ef             	cmp    %rbp,%rdi
 116:	74 05                	je     11d <_Z5test1v+0x10d>
 118:	e8 00 00 00 00       	callq  11d <_Z5test1v+0x10d>
 11d:	bf 20 00 00 00       	mov    $0x20,%edi
 122:	48 c7 44 24 30 00 00 	movq   $0x0,0x30(%rsp)
 129:	00 00 
 12b:	44 89 64 24 40       	mov    %r12d,0x40(%rsp)
 130:	4c 89 6c 24 48       	mov    %r13,0x48(%rsp)
 135:	e8 00 00 00 00       	callq  13a <_Z5test1v+0x12a>
 13a:	48 8d 74 24 30       	lea    0x30(%rsp),%rsi
 13f:	48 89 c7             	mov    %rax,%rdi
 142:	48 89 c5             	mov    %rax,%rbp
 145:	e8 00 00 00 00       	callq  14a <_Z5test1v+0x13a>
 14a:	48 8b 54 24 48       	mov    0x48(%rsp),%rdx
 14f:	48 8b 44 24 40       	mov    0x40(%rsp),%rax
 154:	be 00 00 00 00       	mov    $0x0,%esi
 159:	48 c7 45 00 00 00 00 	movq   $0x0,0x0(%rbp)
 160:	00 
 161:	48 89 ef             	mov    %rbp,%rdi
 164:	48 89 55 18          	mov    %rdx,0x18(%rbp)
 168:	48 89 45 10          	mov    %rax,0x10(%rbp)
 16c:	ba 00 00 00 00       	mov    $0x0,%edx
 171:	e8 00 00 00 00       	callq  176 <_Z5test1v+0x166>
 176:	48 89 c7             	mov    %rax,%rdi
 179:	e8 00 00 00 00       	callq  17e <_Z5test1v+0x16e>
 17e:	48 89 df             	mov    %rbx,%rdi
 181:	e8 00 00 00 00       	callq  186 <_Z5test1v+0x176>
 186:	e8 00 00 00 00       	callq  18b <_Z5test1v+0x17b>
 18b:	48 8d 7c 24 30       	lea    0x30(%rsp),%rdi
 190:	e8 00 00 00 00       	callq  195 <_Z5test1v+0x185>
 195:	e9 aa fe ff ff       	jmpq   44 <_Z5test1v+0x34>
 19a:	66 0f 1f 44 00 00    	nopw   0x0(%rax,%rax,1)
 1a0:	48 b8 6e 6f 20 73 74 	movabs $0x6574617473206f6e,%rax
 1a7:	61 74 65 
 1aa:	48 c7 44 24 58 08 00 	movq   $0x8,0x58(%rsp)
 1b1:	00 00 
 1b3:	c6 44 24 68 00       	movb   $0x0,0x68(%rsp)
 1b8:	48 89 44 24 60       	mov    %rax,0x60(%rsp)
 1bd:	e9 3b ff ff ff       	jmpq   fd <_Z5test1v+0xed>
 1c2:	66 0f 1f 44 00 00    	nopw   0x0(%rax,%rax,1)
 1c8:	48 8d 74 24 08       	lea    0x8(%rsp),%rsi
 1cd:	31 d2                	xor    %edx,%edx
 1cf:	48 89 ef             	mov    %rbp,%rdi
 1d2:	48 c7 44 24 08 11 00 	movq   $0x11,0x8(%rsp)
 1d9:	00 00 
 1db:	e8 00 00 00 00       	callq  1e0 <_Z5test1v+0x1d0>
 1e0:	48 8b 54 24 08       	mov    0x8(%rsp),%rdx
 1e5:	48 b9 65 78 63 65 70 	movabs $0x6f69747065637865,%rcx
 1ec:	74 69 6f 
 1ef:	48 89 44 24 50       	mov    %rax,0x50(%rsp)
 1f4:	48 89 54 24 60       	mov    %rdx,0x60(%rsp)
 1f9:	48 89 08             	mov    %rcx,(%rax)
 1fc:	48 b9 6e 20 70 72 65 	movabs $0x6e6573657270206e,%rcx
 203:	73 65 6e 
 206:	48 89 48 08          	mov    %rcx,0x8(%rax)
 20a:	c6 40 10 74          	movb   $0x74,0x10(%rax)
 20e:	48 8b 54 24 50       	mov    0x50(%rsp),%rdx
 213:	48 8b 44 24 08       	mov    0x8(%rsp),%rax
 218:	48 89 44 24 58       	mov    %rax,0x58(%rsp)
 21d:	c6 04 02 00          	movb   $0x0,(%rdx,%rax,1)
 221:	e9 d7 fe ff ff       	jmpq   fd <_Z5test1v+0xed>
 226:	48 b9 61 6c 72 65 61 	movabs $0x2079646165726c61,%rcx
 22d:	64 79 20 
 230:	ba 73 65 00 00       	mov    $0x6573,%edx
 235:	48 c7 44 24 58 0b 00 	movq   $0xb,0x58(%rsp)
 23c:	00 00 
 23e:	48 89 4c 24 60       	mov    %rcx,0x60(%rsp)
 243:	66 89 55 18          	mov    %dx,0x18(%rbp)
 247:	c6 45 1a 74          	movb   $0x74,0x1a(%rbp)
 24b:	c6 44 24 6b 00       	movb   $0x0,0x6b(%rsp)
 250:	e9 a8 fe ff ff       	jmpq   fd <_Z5test1v+0xed>
 255:	0f 1f 00             	nopl   (%rax)
 258:	44 89 e2             	mov    %r12d,%edx
 25b:	4c 89 ee             	mov    %r13,%rsi
 25e:	48 89 ef             	mov    %rbp,%rdi
 261:	ff d0                	callq  *%rax
 263:	e9 95 fe ff ff       	jmpq   fd <_Z5test1v+0xed>
 268:	bf 02 00 00 00       	mov    $0x2,%edi
 26d:	e8 00 00 00 00       	callq  272 <_Z5test1v+0x262>
 272:	48 89 c3             	mov    %rax,%rbx
 275:	80 7c 24 28 03       	cmpb   $0x3,0x28(%rsp)
 27a:	75 0a                	jne    286 <_Z5test1v+0x276>
 27c:	48 8d 7c 24 10       	lea    0x10(%rsp),%rdi
 281:	e8 00 00 00 00       	callq  286 <_Z5test1v+0x276>
 286:	48 89 df             	mov    %rbx,%rdi
 289:	e8 00 00 00 00       	callq  28e <_Z5test1v+0x27e>
 28e:	48 8b 7c 24 50       	mov    0x50(%rsp),%rdi
 293:	48 83 c5 10          	add    $0x10,%rbp
 297:	48 89 c3             	mov    %rax,%rbx
 29a:	48 39 ef             	cmp    %rbp,%rdi
 29d:	74 d6                	je     275 <_Z5test1v+0x265>
 29f:	e8 00 00 00 00       	callq  2a4 <_Z5test1v+0x294>
 2a4:	eb cf                	jmp    275 <_Z5test1v+0x265>
