   0:	53                   	push   %rbx
   1:	48 83 ec 50          	sub    $0x50,%rsp
   5:	c6 44 24 20 00       	movb   $0x0,0x20(%rsp)
   a:	c6 44 24 28 00       	movb   $0x0,0x28(%rsp)
   f:	c6 44 24 29 00       	movb   $0x0,0x29(%rsp)
  14:	c6 44 24 40 00       	movb   $0x0,0x40(%rsp)
  19:	c6 44 24 48 00       	movb   $0x0,0x48(%rsp)
  1e:	c6 44 24 49 00       	movb   $0x0,0x49(%rsp)
  23:	0f 1f 44 00 00       	nopl   0x0(%rax,%rax,1)
  28:	31 db                	xor    %ebx,%ebx
  2a:	eb 2c                	jmp    58 <_Z5test1v+0x58>
  2c:	0f 1f 40 00          	nopl   0x0(%rax)
  30:	48 81 fb f9 00 00 00 	cmp    $0xf9,%rbx
  37:	76 6f                	jbe    a8 <_Z5test1v+0xa8>
  39:	31 f6                	xor    %esi,%esi
  3b:	48 89 e7             	mov    %rsp,%rdi
  3e:	48 c7 04 24 00 00 00 	movq   $0x0,(%rsp)
  45:	00 
  46:	48 c7 44 24 08 40 42 	movq   $0xf4240,0x8(%rsp)
  4d:	0f 00 
  4f:	e8 00 00 00 00       	callq  54 <_Z5test1v+0x54>
  54:	48 83 c3 01          	add    $0x1,%rbx
  58:	0f b6 44 24 29       	movzbl 0x29(%rsp),%eax
  5d:	84 c0                	test   %al,%al
  5f:	74 0f                	je     70 <_Z5test1v+0x70>
  61:	48 83 fb 7c          	cmp    $0x7c,%rbx
  65:	77 c9                	ja     30 <_Z5test1v+0x30>
  67:	f3 90                	pause  
  69:	eb e9                	jmp    54 <_Z5test1v+0x54>
  6b:	0f 1f 44 00 00       	nopl   0x0(%rax,%rax,1)
  70:	b8 01 00 00 00       	mov    $0x1,%eax
  75:	89 c2                	mov    %eax,%edx
  77:	86 54 24 29          	xchg   %dl,0x29(%rsp)
  7b:	84 d2                	test   %dl,%dl
  7d:	75 e2                	jne    61 <_Z5test1v+0x61>
  7f:	80 7c 24 20 04       	cmpb   $0x4,0x20(%rsp)
  84:	0f 85 c1 00 00 00    	jne    14b <_Z5test1v+0x14b>
  8a:	48 8b 54 24 10       	mov    0x10(%rsp),%rdx
  8f:	48 8d 4a 19          	lea    0x19(%rdx),%rcx
  93:	0f b6 52 19          	movzbl 0x19(%rdx),%edx
  97:	84 d2                	test   %dl,%dl
  99:	74 15                	je     b0 <_Z5test1v+0xb0>
  9b:	c6 44 24 29 00       	movb   $0x0,0x29(%rsp)
  a0:	eb 86                	jmp    28 <_Z5test1v+0x28>
  a2:	66 0f 1f 44 00 00    	nopw   0x0(%rax,%rax,1)
  a8:	e8 00 00 00 00       	callq  ad <_Z5test1v+0xad>
  ad:	eb a5                	jmp    54 <_Z5test1v+0x54>
  af:	90                   	nop
  b0:	86 01                	xchg   %al,(%rcx)
  b2:	84 c0                	test   %al,%al
  b4:	75 e5                	jne    9b <_Z5test1v+0x9b>
  b6:	0f b6 44 24 40       	movzbl 0x40(%rsp),%eax
  bb:	48 8b 5c 24 10       	mov    0x10(%rsp),%rbx
  c0:	3c 03                	cmp    $0x3,%al
  c2:	0f 84 92 00 00 00    	je     15a <_Z5test1v+0x15a>
  c8:	3c 04                	cmp    $0x4,%al
  ca:	0f 84 19 03 00 00    	je     3e9 <_Z5test1v+0x3e9>
  d0:	0f b6 44 24 20       	movzbl 0x20(%rsp),%eax
  d5:	3c 02                	cmp    $0x2,%al
  d7:	0f 84 94 00 00 00    	je     171 <_Z5test1v+0x171>
  dd:	0f 86 f1 02 00 00    	jbe    3d4 <_Z5test1v+0x3d4>
  e3:	3c 03                	cmp    $0x3,%al
  e5:	74 04                	je     eb <_Z5test1v+0xeb>
  e7:	3c 04                	cmp    $0x4,%al
  e9:	75 13                	jne    fe <_Z5test1v+0xfe>
  eb:	48 8b 54 24 10       	mov    0x10(%rsp),%rdx
  f0:	48 c7 44 24 10 00 00 	movq   $0x0,0x10(%rsp)
  f7:	00 00 
  f9:	48 89 54 24 30       	mov    %rdx,0x30(%rsp)
  fe:	48 85 db             	test   %rbx,%rbx
 101:	88 44 24 40          	mov    %al,0x40(%rsp)
 105:	0f 84 87 00 00 00    	je     192 <_Z5test1v+0x192>
 10b:	48 8d 44 24 30       	lea    0x30(%rsp),%rax
 110:	48 89 43 20          	mov    %rax,0x20(%rbx)
 114:	c6 44 24 29 00       	movb   $0x0,0x29(%rsp)
 119:	c6 43 19 00          	movb   $0x0,0x19(%rbx)
 11d:	80 7c 24 48 00       	cmpb   $0x0,0x48(%rsp)
 122:	74 7c                	je     1a0 <_Z5test1v+0x1a0>
 124:	80 7c 24 40 03       	cmpb   $0x3,0x40(%rsp)
 129:	0f 84 11 02 00 00    	je     340 <_Z5test1v+0x340>
 12f:	80 7c 24 28 00       	cmpb   $0x0,0x28(%rsp)
 134:	0f 84 ed 00 00 00    	je     227 <_Z5test1v+0x227>
 13a:	80 7c 24 20 03       	cmpb   $0x3,0x20(%rsp)
 13f:	0f 84 7f 02 00 00    	je     3c4 <_Z5test1v+0x3c4>
 145:	48 83 c4 50          	add    $0x50,%rsp
 149:	5b                   	pop    %rbx
 14a:	c3                   	retq   
 14b:	0f b6 44 24 40       	movzbl 0x40(%rsp),%eax
 150:	31 db                	xor    %ebx,%ebx
 152:	3c 03                	cmp    $0x3,%al
 154:	0f 85 6e ff ff ff    	jne    c8 <_Z5test1v+0xc8>
 15a:	48 8d 7c 24 30       	lea    0x30(%rsp),%rdi
 15f:	e8 00 00 00 00       	callq  164 <_Z5test1v+0x164>
 164:	0f b6 44 24 20       	movzbl 0x20(%rsp),%eax
 169:	3c 02                	cmp    $0x2,%al
 16b:	0f 85 6c ff ff ff    	jne    dd <_Z5test1v+0xdd>
 171:	48 8b 74 24 10       	mov    0x10(%rsp),%rsi
 176:	48 8b 7c 24 18       	mov    0x18(%rsp),%rdi
 17b:	48 85 db             	test   %rbx,%rbx
 17e:	88 44 24 40          	mov    %al,0x40(%rsp)
 182:	48 89 74 24 30       	mov    %rsi,0x30(%rsp)
 187:	48 89 7c 24 38       	mov    %rdi,0x38(%rsp)
 18c:	0f 85 79 ff ff ff    	jne    10b <_Z5test1v+0x10b>
 192:	c6 44 24 29 00       	movb   $0x0,0x29(%rsp)
 197:	80 7c 24 48 00       	cmpb   $0x0,0x48(%rsp)
 19c:	75 86                	jne    124 <_Z5test1v+0x124>
 19e:	66 90                	xchg   %ax,%ax
 1a0:	31 db                	xor    %ebx,%ebx
 1a2:	eb 30                	jmp    1d4 <_Z5test1v+0x1d4>
 1a4:	0f 1f 40 00          	nopl   0x0(%rax)
 1a8:	48 81 fb f9 00 00 00 	cmp    $0xf9,%rbx
 1af:	0f 86 0b 01 00 00    	jbe    2c0 <_Z5test1v+0x2c0>
 1b5:	31 f6                	xor    %esi,%esi
 1b7:	48 89 e7             	mov    %rsp,%rdi
 1ba:	48 c7 04 24 00 00 00 	movq   $0x0,(%rsp)
 1c1:	00 
 1c2:	48 c7 44 24 08 40 42 	movq   $0xf4240,0x8(%rsp)
 1c9:	0f 00 
 1cb:	e8 00 00 00 00       	callq  1d0 <_Z5test1v+0x1d0>
 1d0:	48 83 c3 01          	add    $0x1,%rbx
 1d4:	0f b6 44 24 49       	movzbl 0x49(%rsp),%eax
 1d9:	84 c0                	test   %al,%al
 1db:	0f 84 8f 00 00 00    	je     270 <_Z5test1v+0x270>
 1e1:	48 83 fb 7c          	cmp    $0x7c,%rbx
 1e5:	77 c1                	ja     1a8 <_Z5test1v+0x1a8>
 1e7:	f3 90                	pause  
 1e9:	eb e5                	jmp    1d0 <_Z5test1v+0x1d0>
 1eb:	0f 1f 44 00 00       	nopl   0x0(%rax,%rax,1)
 1f0:	b8 01 00 00 00       	mov    $0x1,%eax
 1f5:	89 c2                	mov    %eax,%edx
 1f7:	86 54 24 29          	xchg   %dl,0x29(%rsp)
 1fb:	84 d2                	test   %dl,%dl
 1fd:	75 62                	jne    261 <_Z5test1v+0x261>
 1ff:	0f b6 54 24 20       	movzbl 0x20(%rsp),%edx
 204:	80 fa 04             	cmp    $0x4,%dl
 207:	0f 85 03 02 00 00    	jne    410 <_Z5test1v+0x410>
 20d:	48 8b 54 24 10       	mov    0x10(%rsp),%rdx
 212:	48 8d 4a 19          	lea    0x19(%rdx),%rcx
 216:	0f b6 52 19          	movzbl 0x19(%rdx),%edx
 21a:	84 d2                	test   %dl,%dl
 21c:	0f 84 2e 01 00 00    	je     350 <_Z5test1v+0x350>
 222:	c6 44 24 29 00       	movb   $0x0,0x29(%rsp)
 227:	31 db                	xor    %ebx,%ebx
 229:	eb 2d                	jmp    258 <_Z5test1v+0x258>
 22b:	0f 1f 44 00 00       	nopl   0x0(%rax,%rax,1)
 230:	48 81 fb f9 00 00 00 	cmp    $0xf9,%rbx
 237:	76 77                	jbe    2b0 <_Z5test1v+0x2b0>
 239:	31 f6                	xor    %esi,%esi
 23b:	48 89 e7             	mov    %rsp,%rdi
 23e:	48 c7 04 24 00 00 00 	movq   $0x0,(%rsp)
 245:	00 
 246:	48 c7 44 24 08 40 42 	movq   $0xf4240,0x8(%rsp)
 24d:	0f 00 
 24f:	e8 00 00 00 00       	callq  254 <_Z5test1v+0x254>
 254:	48 83 c3 01          	add    $0x1,%rbx
 258:	0f b6 44 24 29       	movzbl 0x29(%rsp),%eax
 25d:	84 c0                	test   %al,%al
 25f:	74 8f                	je     1f0 <_Z5test1v+0x1f0>
 261:	48 83 fb 7c          	cmp    $0x7c,%rbx
 265:	77 c9                	ja     230 <_Z5test1v+0x230>
 267:	f3 90                	pause  
 269:	eb e9                	jmp    254 <_Z5test1v+0x254>
 26b:	0f 1f 44 00 00       	nopl   0x0(%rax,%rax,1)
 270:	b8 01 00 00 00       	mov    $0x1,%eax
 275:	89 c2                	mov    %eax,%edx
 277:	86 54 24 49          	xchg   %dl,0x49(%rsp)
 27b:	84 d2                	test   %dl,%dl
 27d:	0f 85 5e ff ff ff    	jne    1e1 <_Z5test1v+0x1e1>
 283:	0f b6 54 24 40       	movzbl 0x40(%rsp),%edx
 288:	80 fa 04             	cmp    $0x4,%dl
 28b:	0f 85 66 01 00 00    	jne    3f7 <_Z5test1v+0x3f7>
 291:	48 8b 54 24 30       	mov    0x30(%rsp),%rdx
 296:	48 8d 4a 19          	lea    0x19(%rdx),%rcx
 29a:	0f b6 52 19          	movzbl 0x19(%rdx),%edx
 29e:	84 d2                	test   %dl,%dl
 2a0:	74 2e                	je     2d0 <_Z5test1v+0x2d0>
 2a2:	c6 44 24 49 00       	movb   $0x0,0x49(%rsp)
 2a7:	e9 f4 fe ff ff       	jmpq   1a0 <_Z5test1v+0x1a0>
 2ac:	0f 1f 40 00          	nopl   0x0(%rax)
 2b0:	e8 00 00 00 00       	callq  2b5 <_Z5test1v+0x2b5>
 2b5:	eb 9d                	jmp    254 <_Z5test1v+0x254>
 2b7:	66 0f 1f 84 00 00 00 	nopw   0x0(%rax,%rax,1)
 2be:	00 00 
 2c0:	e8 00 00 00 00       	callq  2c5 <_Z5test1v+0x2c5>
 2c5:	e9 06 ff ff ff       	jmpq   1d0 <_Z5test1v+0x1d0>
 2ca:	66 0f 1f 44 00 00    	nopw   0x0(%rax,%rax,1)
 2d0:	86 01                	xchg   %al,(%rcx)
 2d2:	84 c0                	test   %al,%al
 2d4:	75 cc                	jne    2a2 <_Z5test1v+0x2a2>
 2d6:	48 8b 5c 24 30       	mov    0x30(%rsp),%rbx
 2db:	48 85 db             	test   %rbx,%rbx
 2de:	0f 84 b5 01 00 00    	je     499 <_Z5test1v+0x499>
 2e4:	80 7b 10 00          	cmpb   $0x0,0x10(%rbx)
 2e8:	0f 84 44 01 00 00    	je     432 <_Z5test1v+0x432>
 2ee:	0f b6 44 24 40       	movzbl 0x40(%rsp),%eax
 2f3:	48 c7 43 20 00 00 00 	movq   $0x0,0x20(%rbx)
 2fa:	00 
 2fb:	3c 02                	cmp    $0x2,%al
 2fd:	74 1f                	je     31e <_Z5test1v+0x31e>
 2ff:	0f 86 36 01 00 00    	jbe    43b <_Z5test1v+0x43b>
 305:	3c 03                	cmp    $0x3,%al
 307:	0f 84 62 01 00 00    	je     46f <_Z5test1v+0x46f>
 30d:	3c 04                	cmp    $0x4,%al
 30f:	0f 85 2e 01 00 00    	jne    443 <_Z5test1v+0x443>
 315:	48 c7 44 24 30 00 00 	movq   $0x0,0x30(%rsp)
 31c:	00 00 
 31e:	c6 44 24 40 00       	movb   $0x0,0x40(%rsp)
 323:	48 85 db             	test   %rbx,%rbx
 326:	c6 44 24 49 00       	movb   $0x0,0x49(%rsp)
 32b:	0f 84 f3 fd ff ff    	je     124 <_Z5test1v+0x124>
 331:	c6 43 19 00          	movb   $0x0,0x19(%rbx)
 335:	80 7c 24 40 03       	cmpb   $0x3,0x40(%rsp)
 33a:	0f 85 ef fd ff ff    	jne    12f <_Z5test1v+0x12f>
 340:	48 8d 7c 24 30       	lea    0x30(%rsp),%rdi
 345:	e8 00 00 00 00       	callq  34a <_Z5test1v+0x34a>
 34a:	e9 e0 fd ff ff       	jmpq   12f <_Z5test1v+0x12f>
 34f:	90                   	nop
 350:	86 01                	xchg   %al,(%rcx)
 352:	84 c0                	test   %al,%al
 354:	0f 85 c8 fe ff ff    	jne    222 <_Z5test1v+0x222>
 35a:	48 8b 5c 24 10       	mov    0x10(%rsp),%rbx
 35f:	48 85 db             	test   %rbx,%rbx
 362:	0f 84 51 01 00 00    	je     4b9 <_Z5test1v+0x4b9>
 368:	80 7b 10 00          	cmpb   $0x0,0x10(%rbx)
 36c:	0f 84 b7 00 00 00    	je     429 <_Z5test1v+0x429>
 372:	0f b6 44 24 20       	movzbl 0x20(%rsp),%eax
 377:	48 c7 43 20 00 00 00 	movq   $0x0,0x20(%rbx)
 37e:	00 
 37f:	3c 02                	cmp    $0x2,%al
 381:	74 1f                	je     3a2 <_Z5test1v+0x3a2>
 383:	0f 86 c4 00 00 00    	jbe    44d <_Z5test1v+0x44d>
 389:	3c 03                	cmp    $0x3,%al
 38b:	0f 84 f4 00 00 00    	je     485 <_Z5test1v+0x485>
 391:	3c 04                	cmp    $0x4,%al
 393:	0f 85 bc 00 00 00    	jne    455 <_Z5test1v+0x455>
 399:	48 c7 44 24 10 00 00 	movq   $0x0,0x10(%rsp)
 3a0:	00 00 
 3a2:	c6 44 24 20 00       	movb   $0x0,0x20(%rsp)
 3a7:	48 85 db             	test   %rbx,%rbx
 3aa:	c6 44 24 29 00       	movb   $0x0,0x29(%rsp)
 3af:	0f 84 85 fd ff ff    	je     13a <_Z5test1v+0x13a>
 3b5:	c6 43 19 00          	movb   $0x0,0x19(%rbx)
 3b9:	80 7c 24 20 03       	cmpb   $0x3,0x20(%rsp)
 3be:	0f 85 81 fd ff ff    	jne    145 <_Z5test1v+0x145>
 3c4:	48 8d 7c 24 10       	lea    0x10(%rsp),%rdi
 3c9:	e8 00 00 00 00       	callq  3ce <_Z5test1v+0x3ce>
 3ce:	48 83 c4 50          	add    $0x50,%rsp
 3d2:	5b                   	pop    %rbx
 3d3:	c3                   	retq   
 3d4:	3c 01                	cmp    $0x1,%al
 3d6:	0f 85 22 fd ff ff    	jne    fe <_Z5test1v+0xfe>
 3dc:	8b 54 24 10          	mov    0x10(%rsp),%edx
 3e0:	89 54 24 30          	mov    %edx,0x30(%rsp)
 3e4:	e9 15 fd ff ff       	jmpq   fe <_Z5test1v+0xfe>
 3e9:	48 c7 44 24 30 00 00 	movq   $0x0,0x30(%rsp)
 3f0:	00 00 
 3f2:	e9 d9 fc ff ff       	jmpq   d0 <_Z5test1v+0xd0>
 3f7:	80 fa 02             	cmp    $0x2,%dl
 3fa:	74 6a                	je     466 <_Z5test1v+0x466>
 3fc:	80 fa 03             	cmp    $0x3,%dl
 3ff:	74 6c                	je     46d <_Z5test1v+0x46d>
 401:	80 fa 01             	cmp    $0x1,%dl
 404:	74 60                	je     466 <_Z5test1v+0x466>
 406:	c6 44 24 49 00       	movb   $0x0,0x49(%rsp)
 40b:	e9 14 fd ff ff       	jmpq   124 <_Z5test1v+0x124>
 410:	80 fa 02             	cmp    $0x2,%dl
 413:	74 4a                	je     45f <_Z5test1v+0x45f>
 415:	80 fa 03             	cmp    $0x3,%dl
 418:	74 69                	je     483 <_Z5test1v+0x483>
 41a:	80 fa 01             	cmp    $0x1,%dl
 41d:	74 40                	je     45f <_Z5test1v+0x45f>
 41f:	c6 44 24 29 00       	movb   $0x0,0x29(%rsp)
 424:	e9 11 fd ff ff       	jmpq   13a <_Z5test1v+0x13a>
 429:	c6 43 18 01          	movb   $0x1,0x18(%rbx)
 42d:	e9 40 ff ff ff       	jmpq   372 <_Z5test1v+0x372>
 432:	c6 43 18 01          	movb   $0x1,0x18(%rbx)
 436:	e9 b3 fe ff ff       	jmpq   2ee <_Z5test1v+0x2ee>
 43b:	3c 01                	cmp    $0x1,%al
 43d:	0f 84 db fe ff ff    	je     31e <_Z5test1v+0x31e>
 443:	c6 44 24 49 00       	movb   $0x0,0x49(%rsp)
 448:	e9 e4 fe ff ff       	jmpq   331 <_Z5test1v+0x331>
 44d:	3c 01                	cmp    $0x1,%al
 44f:	0f 84 4d ff ff ff    	je     3a2 <_Z5test1v+0x3a2>
 455:	c6 44 24 29 00       	movb   $0x0,0x29(%rsp)
 45a:	e9 56 ff ff ff       	jmpq   3b5 <_Z5test1v+0x3b5>
 45f:	31 db                	xor    %ebx,%ebx
 461:	e9 3c ff ff ff       	jmpq   3a2 <_Z5test1v+0x3a2>
 466:	31 db                	xor    %ebx,%ebx
 468:	e9 b1 fe ff ff       	jmpq   31e <_Z5test1v+0x31e>
 46d:	31 db                	xor    %ebx,%ebx
 46f:	48 8d 7c 24 30       	lea    0x30(%rsp),%rdi
 474:	e8 00 00 00 00       	callq  479 <_Z5test1v+0x479>
 479:	c6 44 24 40 00       	movb   $0x0,0x40(%rsp)
 47e:	e9 a0 fe ff ff       	jmpq   323 <_Z5test1v+0x323>
 483:	31 db                	xor    %ebx,%ebx
 485:	48 8d 7c 24 10       	lea    0x10(%rsp),%rdi
 48a:	e8 00 00 00 00       	callq  48f <_Z5test1v+0x48f>
 48f:	c6 44 24 20 00       	movb   $0x0,0x20(%rsp)
 494:	e9 0e ff ff ff       	jmpq   3a7 <_Z5test1v+0x3a7>
 499:	0f b6 44 24 40       	movzbl 0x40(%rsp),%eax
 49e:	3c 02                	cmp    $0x2,%al
 4a0:	0f 84 78 fe ff ff    	je     31e <_Z5test1v+0x31e>
 4a6:	76 31                	jbe    4d9 <_Z5test1v+0x4d9>
 4a8:	3c 03                	cmp    $0x3,%al
 4aa:	74 c3                	je     46f <_Z5test1v+0x46f>
 4ac:	3c 04                	cmp    $0x4,%al
 4ae:	0f 84 61 fe ff ff    	je     315 <_Z5test1v+0x315>
 4b4:	e9 4d ff ff ff       	jmpq   406 <_Z5test1v+0x406>
 4b9:	0f b6 44 24 20       	movzbl 0x20(%rsp),%eax
 4be:	3c 02                	cmp    $0x2,%al
 4c0:	0f 84 dc fe ff ff    	je     3a2 <_Z5test1v+0x3a2>
 4c6:	76 1e                	jbe    4e6 <_Z5test1v+0x4e6>
 4c8:	3c 03                	cmp    $0x3,%al
 4ca:	74 b9                	je     485 <_Z5test1v+0x485>
 4cc:	3c 04                	cmp    $0x4,%al
 4ce:	0f 84 c5 fe ff ff    	je     399 <_Z5test1v+0x399>
 4d4:	e9 46 ff ff ff       	jmpq   41f <_Z5test1v+0x41f>
 4d9:	3c 01                	cmp    $0x1,%al
 4db:	0f 84 3d fe ff ff    	je     31e <_Z5test1v+0x31e>
 4e1:	e9 20 ff ff ff       	jmpq   406 <_Z5test1v+0x406>
 4e6:	3c 01                	cmp    $0x1,%al
 4e8:	0f 84 b4 fe ff ff    	je     3a2 <_Z5test1v+0x3a2>
 4ee:	e9 2c ff ff ff       	jmpq   41f <_Z5test1v+0x41f>
 4f3:	66 66 66 66 2e 0f 1f 	data32 data32 data32 nopw %cs:0x0(%rax,%rax,1)
 4fa:	84 00 00 00 00 00 
