   0:	53                   	push   %rbx
   1:	48 83 ec 30          	sub    $0x30,%rsp
   5:	c7 44 24 18 05 00 00 	movl   $0x5,0x18(%rsp)
   c:	00 
   d:	c6 44 24 28 01       	movb   $0x1,0x28(%rsp)
  12:	c7 04 24 05 00 00 00 	movl   $0x5,(%rsp)
  19:	c6 44 24 10 01       	movb   $0x1,0x10(%rsp)
  1e:	48 8d 3c 24          	lea    (%rsp),%rdi
  22:	e8 00 00 00 00       	callq  27 <_Z5test1v+0x27>
  27:	8b 1c 24             	mov    (%rsp),%ebx
  2a:	8a 44 24 10          	mov    0x10(%rsp),%al
  2e:	fe c8                	dec    %al
  30:	0f b6 c0             	movzbl %al,%eax
  33:	83 f8 03             	cmp    $0x3,%eax
  36:	77 1f                	ja     57 <_Z5test1v+0x57>
  38:	ff 24 c5 00 00 00 00 	jmpq   *0x0(,%rax,8)
  3f:	48 8d 3c 24          	lea    (%rsp),%rdi
  43:	e8 00 00 00 00       	callq  48 <_Z5test1v+0x48>
  48:	eb 08                	jmp    52 <_Z5test1v+0x52>
  4a:	48 c7 04 24 00 00 00 	movq   $0x0,(%rsp)
  51:	00 
  52:	c6 44 24 10 00       	movb   $0x0,0x10(%rsp)
  57:	8a 44 24 28          	mov    0x28(%rsp),%al
  5b:	fe c8                	dec    %al
  5d:	0f b6 c0             	movzbl %al,%eax
  60:	83 f8 03             	cmp    $0x3,%eax
  63:	77 21                	ja     86 <_Z5test1v+0x86>
  65:	ff 24 c5 00 00 00 00 	jmpq   *0x0(,%rax,8)
  6c:	48 8d 7c 24 18       	lea    0x18(%rsp),%rdi
  71:	e8 00 00 00 00       	callq  76 <_Z5test1v+0x76>
  76:	eb 09                	jmp    81 <_Z5test1v+0x81>
  78:	48 c7 44 24 18 00 00 	movq   $0x0,0x18(%rsp)
  7f:	00 00 
  81:	c6 44 24 28 00       	movb   $0x0,0x28(%rsp)
  86:	89 d8                	mov    %ebx,%eax
  88:	48 83 c4 30          	add    $0x30,%rsp
  8c:	5b                   	pop    %rbx
  8d:	c3                   	retq   
  8e:	48 89 c3             	mov    %rax,%rbx
  91:	8a 44 24 10          	mov    0x10(%rsp),%al
  95:	fe c8                	dec    %al
  97:	0f b6 c0             	movzbl %al,%eax
  9a:	83 f8 03             	cmp    $0x3,%eax
  9d:	77 1f                	ja     be <_Z5test1v+0xbe>
  9f:	ff 24 c5 00 00 00 00 	jmpq   *0x0(,%rax,8)
  a6:	48 8d 3c 24          	lea    (%rsp),%rdi
  aa:	e8 00 00 00 00       	callq  af <_Z5test1v+0xaf>
  af:	eb 08                	jmp    b9 <_Z5test1v+0xb9>
  b1:	48 c7 04 24 00 00 00 	movq   $0x0,(%rsp)
  b8:	00 
  b9:	c6 44 24 10 00       	movb   $0x0,0x10(%rsp)
  be:	8a 44 24 28          	mov    0x28(%rsp),%al
  c2:	fe c8                	dec    %al
  c4:	0f b6 c0             	movzbl %al,%eax
  c7:	83 f8 03             	cmp    $0x3,%eax
  ca:	77 21                	ja     ed <_Z5test1v+0xed>
  cc:	ff 24 c5 00 00 00 00 	jmpq   *0x0(,%rax,8)
  d3:	48 8d 7c 24 18       	lea    0x18(%rsp),%rdi
  d8:	e8 00 00 00 00       	callq  dd <_Z5test1v+0xdd>
  dd:	eb 09                	jmp    e8 <_Z5test1v+0xe8>
  df:	48 c7 44 24 18 00 00 	movq   $0x0,0x18(%rsp)
  e6:	00 00 
  e8:	c6 44 24 28 00       	movb   $0x0,0x28(%rsp)
  ed:	48 89 df             	mov    %rbx,%rdi
  f0:	e8 00 00 00 00       	callq  f5 <_Z5test1v+0xf5>
  f5:	66 66 2e 0f 1f 84 00 	data32 nopw %cs:0x0(%rax,%rax,1)
  fc:	00 00 00 00 
