   0:	53                   	push   %rbx
   1:	48 83 ec 30          	sub    $0x30,%rsp
   5:	c6 44 24 20 00       	movb   $0x0,0x20(%rsp)
   a:	c6 44 24 28 00       	movb   $0x0,0x28(%rsp)
   f:	c6 44 24 29 00       	movb   $0x0,0x29(%rsp)
  14:	0f 1f 40 00          	nopl   0x0(%rax)
  18:	31 db                	xor    %ebx,%ebx
  1a:	eb 2c                	jmp    48 <_Z5test1v+0x48>
  1c:	0f 1f 40 00          	nopl   0x0(%rax)
  20:	48 81 fb f9 00 00 00 	cmp    $0xf9,%rbx
  27:	76 6f                	jbe    98 <_Z5test1v+0x98>
  29:	31 f6                	xor    %esi,%esi
  2b:	48 89 e7             	mov    %rsp,%rdi
  2e:	48 c7 04 24 00 00 00 	movq   $0x0,(%rsp)
  35:	00 
  36:	48 c7 44 24 08 40 42 	movq   $0xf4240,0x8(%rsp)
  3d:	0f 00 
  3f:	e8 00 00 00 00       	callq  44 <_Z5test1v+0x44>
  44:	48 83 c3 01          	add    $0x1,%rbx
  48:	0f b6 44 24 29       	movzbl 0x29(%rsp),%eax
  4d:	84 c0                	test   %al,%al
  4f:	74 0f                	je     60 <_Z5test1v+0x60>
  51:	48 83 fb 7c          	cmp    $0x7c,%rbx
  55:	77 c9                	ja     20 <_Z5test1v+0x20>
  57:	f3 90                	pause  
  59:	eb e9                	jmp    44 <_Z5test1v+0x44>
  5b:	0f 1f 44 00 00       	nopl   0x0(%rax,%rax,1)
  60:	b8 01 00 00 00       	mov    $0x1,%eax
  65:	89 c2                	mov    %eax,%edx
  67:	86 54 24 29          	xchg   %dl,0x29(%rsp)
  6b:	84 d2                	test   %dl,%dl
  6d:	75 e2                	jne    51 <_Z5test1v+0x51>
  6f:	0f b6 54 24 20       	movzbl 0x20(%rsp),%edx
  74:	80 fa 04             	cmp    $0x4,%dl
  77:	0f 85 91 00 00 00    	jne    10e <_Z5test1v+0x10e>
  7d:	48 8b 54 24 10       	mov    0x10(%rsp),%rdx
  82:	48 8d 4a 19          	lea    0x19(%rdx),%rcx
  86:	0f b6 52 19          	movzbl 0x19(%rdx),%edx
  8a:	84 d2                	test   %dl,%dl
  8c:	74 12                	je     a0 <_Z5test1v+0xa0>
  8e:	c6 44 24 29 00       	movb   $0x0,0x29(%rsp)
  93:	eb 83                	jmp    18 <_Z5test1v+0x18>
  95:	0f 1f 00             	nopl   (%rax)
  98:	e8 00 00 00 00       	callq  9d <_Z5test1v+0x9d>
  9d:	eb a5                	jmp    44 <_Z5test1v+0x44>
  9f:	90                   	nop
  a0:	86 01                	xchg   %al,(%rcx)
  a2:	84 c0                	test   %al,%al
  a4:	75 e8                	jne    8e <_Z5test1v+0x8e>
  a6:	48 8b 5c 24 10       	mov    0x10(%rsp),%rbx
  ab:	48 85 db             	test   %rbx,%rbx
  ae:	0f 84 9c 00 00 00    	je     150 <_Z5test1v+0x150>
  b4:	80 7b 10 00          	cmpb   $0x0,0x10(%rbx)
  b8:	74 6e                	je     128 <_Z5test1v+0x128>
  ba:	0f b6 44 24 20       	movzbl 0x20(%rsp),%eax
  bf:	48 c7 43 20 00 00 00 	movq   $0x0,0x20(%rbx)
  c6:	00 
  c7:	3c 02                	cmp    $0x2,%al
  c9:	74 13                	je     de <_Z5test1v+0xde>
  cb:	76 61                	jbe    12e <_Z5test1v+0x12e>
  cd:	3c 03                	cmp    $0x3,%al
  cf:	74 6e                	je     13f <_Z5test1v+0x13f>
  d1:	3c 04                	cmp    $0x4,%al
  d3:	75 5d                	jne    132 <_Z5test1v+0x132>
  d5:	48 c7 44 24 10 00 00 	movq   $0x0,0x10(%rsp)
  dc:	00 00 
  de:	c6 44 24 20 00       	movb   $0x0,0x20(%rsp)
  e3:	48 85 db             	test   %rbx,%rbx
  e6:	c6 44 24 29 00       	movb   $0x0,0x29(%rsp)
  eb:	74 04                	je     f1 <_Z5test1v+0xf1>
  ed:	c6 43 19 00          	movb   $0x0,0x19(%rbx)
  f1:	80 7c 24 20 03       	cmpb   $0x3,0x20(%rsp)
  f6:	74 06                	je     fe <_Z5test1v+0xfe>
  f8:	48 83 c4 30          	add    $0x30,%rsp
  fc:	5b                   	pop    %rbx
  fd:	c3                   	retq   
  fe:	48 8d 7c 24 10       	lea    0x10(%rsp),%rdi
 103:	e8 00 00 00 00       	callq  108 <_Z5test1v+0x108>
 108:	48 83 c4 30          	add    $0x30,%rsp
 10c:	5b                   	pop    %rbx
 10d:	c3                   	retq   
 10e:	80 fa 02             	cmp    $0x2,%dl
 111:	74 26                	je     139 <_Z5test1v+0x139>
 113:	80 fa 03             	cmp    $0x3,%dl
 116:	74 25                	je     13d <_Z5test1v+0x13d>
 118:	80 fa 01             	cmp    $0x1,%dl
 11b:	74 1c                	je     139 <_Z5test1v+0x139>
 11d:	c6 44 24 29 00       	movb   $0x0,0x29(%rsp)
 122:	eb cd                	jmp    f1 <_Z5test1v+0xf1>
 124:	0f 1f 40 00          	nopl   0x0(%rax)
 128:	c6 43 18 01          	movb   $0x1,0x18(%rbx)
 12c:	eb 8c                	jmp    ba <_Z5test1v+0xba>
 12e:	3c 01                	cmp    $0x1,%al
 130:	74 ac                	je     de <_Z5test1v+0xde>
 132:	c6 44 24 29 00       	movb   $0x0,0x29(%rsp)
 137:	eb b4                	jmp    ed <_Z5test1v+0xed>
 139:	31 db                	xor    %ebx,%ebx
 13b:	eb a1                	jmp    de <_Z5test1v+0xde>
 13d:	31 db                	xor    %ebx,%ebx
 13f:	48 8d 7c 24 10       	lea    0x10(%rsp),%rdi
 144:	e8 00 00 00 00       	callq  149 <_Z5test1v+0x149>
 149:	c6 44 24 20 00       	movb   $0x0,0x20(%rsp)
 14e:	eb 93                	jmp    e3 <_Z5test1v+0xe3>
 150:	0f b6 44 24 20       	movzbl 0x20(%rsp),%eax
 155:	3c 02                	cmp    $0x2,%al
 157:	74 85                	je     de <_Z5test1v+0xde>
 159:	76 0e                	jbe    169 <_Z5test1v+0x169>
 15b:	3c 03                	cmp    $0x3,%al
 15d:	74 e0                	je     13f <_Z5test1v+0x13f>
 15f:	3c 04                	cmp    $0x4,%al
 161:	0f 84 6e ff ff ff    	je     d5 <_Z5test1v+0xd5>
 167:	eb b4                	jmp    11d <_Z5test1v+0x11d>
 169:	3c 01                	cmp    $0x1,%al
 16b:	0f 84 6d ff ff ff    	je     de <_Z5test1v+0xde>
 171:	eb aa                	jmp    11d <_Z5test1v+0x11d>
 173:	66 66 66 66 2e 0f 1f 	data32 data32 data32 nopw %cs:0x0(%rax,%rax,1)
 17a:	84 00 00 00 00 00 
