  10:	41 55                	push   %r13
  12:	41 54                	push   %r12
  14:	55                   	push   %rbp
  15:	53                   	push   %rbx
  16:	48 81 ec e8 00 00 00 	sub    $0xe8,%rsp
  1d:	48 8d 7c 24 60       	lea    0x60(%rsp),%rdi
  22:	c6 84 24 b0 00 00 00 	movb   $0x0,0xb0(%rsp)
  29:	00 
  2a:	48 c7 84 24 b8 00 00 	movq   $0x0,0xb8(%rsp)
  31:	00 00 00 00 00 
  36:	48 c7 84 24 c0 00 00 	movq   $0x0,0xc0(%rsp)
  3d:	00 00 00 00 00 
  42:	48 c7 84 24 c8 00 00 	movq   $0x0,0xc8(%rsp)
  49:	00 00 00 00 00 
  4e:	48 c7 84 24 d0 00 00 	movq   $0x0,0xd0(%rsp)
  55:	00 00 00 00 00 
  5a:	48 c7 84 24 d8 00 00 	movq   $0x0,0xd8(%rsp)
  61:	00 00 00 00 00 
  66:	48 c7 84 24 90 00 00 	movq   $0x0,0x90(%rsp)
  6d:	00 00 00 00 00 
  72:	c7 84 24 98 00 00 00 	movl   $0x5,0x98(%rsp)
  79:	05 00 00 00 
  7d:	c6 84 24 a8 00 00 00 	movb   $0x1,0xa8(%rsp)
  84:	01 
  85:	c6 84 24 80 00 00 00 	movb   $0x0,0x80(%rsp)
  8c:	00 
  8d:	c6 84 24 82 00 00 00 	movb   $0x0,0x82(%rsp)
  94:	00 
  95:	48 c7 84 24 88 00 00 	movq   $0x0,0x88(%rsp)
  9c:	00 00 00 00 00 
  a1:	48 c7 44 24 60 00 00 	movq   $0x0,0x60(%rsp)
  a8:	00 00 
  aa:	c7 44 24 68 05 00 00 	movl   $0x5,0x68(%rsp)
  b1:	00 
  b2:	c6 44 24 78 01       	movb   $0x1,0x78(%rsp)
  b7:	c6 84 24 b2 00 00 00 	movb   $0x1,0xb2(%rsp)
  be:	01 
  bf:	e8 00 00 00 00       	callq  c4 <_Z5test2v+0xc4>
  c4:	80 bc 24 80 00 00 00 	cmpb   $0x0,0x80(%rsp)
  cb:	00 
  cc:	48 c7 44 24 30 00 00 	movq   $0x0,0x30(%rsp)
  d3:	00 00 
  d5:	48 c7 44 24 38 00 00 	movq   $0x0,0x38(%rsp)
  dc:	00 00 
  de:	0f 85 d7 00 00 00    	jne    1bb <_Z5test2v+0x1bb>
  e4:	48 8b 84 24 88 00 00 	mov    0x88(%rsp),%rax
  eb:	00 
  ec:	48 89 44 24 30       	mov    %rax,0x30(%rsp)
  f1:	48 8d 44 24 60       	lea    0x60(%rsp),%rax
  f6:	48 89 44 24 38       	mov    %rax,0x38(%rsp)
  fb:	80 bc 24 82 00 00 00 	cmpb   $0x0,0x82(%rsp)
 102:	00 
 103:	0f 85 7a 0a 00 00    	jne    b83 <_Z5test2v+0xb83>
 109:	48 83 bc 24 88 00 00 	cmpq   $0x0,0x88(%rsp)
 110:	00 00 
 112:	0f b6 44 24 78       	movzbl 0x78(%rsp),%eax
 117:	0f 84 f3 04 00 00    	je     610 <_Z5test2v+0x610>
 11d:	3c 02                	cmp    $0x2,%al
 11f:	0f 84 af 05 00 00    	je     6d4 <_Z5test2v+0x6d4>
 125:	3c 03                	cmp    $0x3,%al
 127:	0f 85 e2 00 00 00    	jne    20f <_Z5test2v+0x20f>
 12d:	48 8d 6c 24 68       	lea    0x68(%rsp),%rbp
 132:	48 8d 5c 24 20       	lea    0x20(%rsp),%rbx
 137:	48 89 ee             	mov    %rbp,%rsi
 13a:	48 89 df             	mov    %rbx,%rdi
 13d:	e8 00 00 00 00       	callq  142 <_Z5test2v+0x142>
 142:	0f b6 44 24 78       	movzbl 0x78(%rsp),%eax
 147:	3c 02                	cmp    $0x2,%al
 149:	0f 84 ae 04 00 00    	je     5fd <_Z5test2v+0x5fd>
 14f:	3c 03                	cmp    $0x3,%al
 151:	0f 84 9e 04 00 00    	je     5f5 <_Z5test2v+0x5f5>
 157:	3c 01                	cmp    $0x1,%al
 159:	0f 84 9e 04 00 00    	je     5fd <_Z5test2v+0x5fd>
 15f:	48 8d 7c 24 40       	lea    0x40(%rsp),%rdi
 164:	48 89 de             	mov    %rbx,%rsi
 167:	e8 00 00 00 00       	callq  16c <_Z5test2v+0x16c>
 16c:	48 8d 7c 24 40       	lea    0x40(%rsp),%rdi
 171:	e8 00 00 00 00       	callq  176 <_Z5test2v+0x176>
 176:	66 2e 0f 1f 84 00 00 	nopw   %cs:0x0(%rax,%rax,1)
 17d:	00 00 00 
 180:	b8 01 00 00 00       	mov    $0x1,%eax
 185:	89 c2                	mov    %eax,%edx
 187:	86 94 24 81 00 00 00 	xchg   %dl,0x81(%rsp)
 18e:	84 d2                	test   %dl,%dl
 190:	75 65                	jne    1f7 <_Z5test2v+0x1f7>
 192:	48 8b 94 24 88 00 00 	mov    0x88(%rsp),%rdx
 199:	00 
 19a:	48 85 d2             	test   %rdx,%rdx
 19d:	0f 84 4e ff ff ff    	je     f1 <_Z5test2v+0xf1>
 1a3:	0f b6 4a 21          	movzbl 0x21(%rdx),%ecx
 1a7:	48 8d 72 21          	lea    0x21(%rdx),%rsi
 1ab:	84 c9                	test   %cl,%cl
 1ad:	0f 84 5d 01 00 00    	je     310 <_Z5test2v+0x310>
 1b3:	c6 84 24 81 00 00 00 	movb   $0x0,0x81(%rsp)
 1ba:	00 
 1bb:	31 db                	xor    %ebx,%ebx
 1bd:	eb 2c                	jmp    1eb <_Z5test2v+0x1eb>
 1bf:	90                   	nop
 1c0:	48 81 fb f9 00 00 00 	cmp    $0xf9,%rbx
 1c7:	76 3f                	jbe    208 <_Z5test2v+0x208>
 1c9:	48 8d 7c 24 40       	lea    0x40(%rsp),%rdi
 1ce:	31 f6                	xor    %esi,%esi
 1d0:	48 c7 44 24 40 00 00 	movq   $0x0,0x40(%rsp)
 1d7:	00 00 
 1d9:	48 c7 44 24 48 40 42 	movq   $0xf4240,0x48(%rsp)
 1e0:	0f 00 
 1e2:	e8 00 00 00 00       	callq  1e7 <_Z5test2v+0x1e7>
 1e7:	48 83 c3 01          	add    $0x1,%rbx
 1eb:	0f b6 84 24 81 00 00 	movzbl 0x81(%rsp),%eax
 1f2:	00 
 1f3:	84 c0                	test   %al,%al
 1f5:	74 89                	je     180 <_Z5test2v+0x180>
 1f7:	48 83 fb 7c          	cmp    $0x7c,%rbx
 1fb:	77 c3                	ja     1c0 <_Z5test2v+0x1c0>
 1fd:	f3 90                	pause  
 1ff:	eb e6                	jmp    1e7 <_Z5test2v+0x1e7>
 201:	0f 1f 80 00 00 00 00 	nopl   0x0(%rax)
 208:	e8 00 00 00 00       	callq  20d <_Z5test2v+0x20d>
 20d:	eb d8                	jmp    1e7 <_Z5test2v+0x1e7>
 20f:	3c 01                	cmp    $0x1,%al
 211:	8b 6c 24 68          	mov    0x68(%rsp),%ebp
 215:	0f 84 15 01 00 00    	je     330 <_Z5test2v+0x330>
 21b:	48 8b 44 24 30       	mov    0x30(%rsp),%rax
 220:	48 85 c0             	test   %rax,%rax
 223:	74 13                	je     238 <_Z5test2v+0x238>
 225:	80 78 20 00          	cmpb   $0x0,0x20(%rax)
 229:	0f 85 83 02 00 00    	jne    4b2 <_Z5test2v+0x4b2>
 22f:	48 c7 44 24 30 00 00 	movq   $0x0,0x30(%rsp)
 236:	00 00 
 238:	48 8b 44 24 38       	mov    0x38(%rsp),%rax
 23d:	48 85 c0             	test   %rax,%rax
 240:	74 0a                	je     24c <_Z5test2v+0x24c>
 242:	80 78 20 00          	cmpb   $0x0,0x20(%rax)
 246:	0f 85 5d 02 00 00    	jne    4a9 <_Z5test2v+0x4a9>
 24c:	48 8b 9c 24 88 00 00 	mov    0x88(%rsp),%rbx
 253:	00 
 254:	48 c7 44 24 60 00 00 	movq   $0x0,0x60(%rsp)
 25b:	00 00 
 25d:	48 85 db             	test   %rbx,%rbx
 260:	0f 84 3a 04 00 00    	je     6a0 <_Z5test2v+0x6a0>
 266:	80 bc 24 80 00 00 00 	cmpb   $0x0,0x80(%rsp)
 26d:	00 
 26e:	48 89 d8             	mov    %rbx,%rax
 271:	0f 84 dc 00 00 00    	je     353 <_Z5test2v+0x353>
 277:	31 db                	xor    %ebx,%ebx
 279:	eb 30                	jmp    2ab <_Z5test2v+0x2ab>
 27b:	0f 1f 44 00 00       	nopl   0x0(%rax,%rax,1)
 280:	48 81 fb f9 00 00 00 	cmp    $0xf9,%rbx
 287:	76 7f                	jbe    308 <_Z5test2v+0x308>
 289:	48 8d 7c 24 40       	lea    0x40(%rsp),%rdi
 28e:	31 f6                	xor    %esi,%esi
 290:	48 c7 44 24 40 00 00 	movq   $0x0,0x40(%rsp)
 297:	00 00 
 299:	48 c7 44 24 48 40 42 	movq   $0xf4240,0x48(%rsp)
 2a0:	0f 00 
 2a2:	e8 00 00 00 00       	callq  2a7 <_Z5test2v+0x2a7>
 2a7:	48 83 c3 01          	add    $0x1,%rbx
 2ab:	0f b6 84 24 81 00 00 	movzbl 0x81(%rsp),%eax
 2b2:	00 
 2b3:	84 c0                	test   %al,%al
 2b5:	74 11                	je     2c8 <_Z5test2v+0x2c8>
 2b7:	48 83 fb 7c          	cmp    $0x7c,%rbx
 2bb:	77 c3                	ja     280 <_Z5test2v+0x280>
 2bd:	f3 90                	pause  
 2bf:	eb e6                	jmp    2a7 <_Z5test2v+0x2a7>
 2c1:	0f 1f 80 00 00 00 00 	nopl   0x0(%rax)
 2c8:	b8 01 00 00 00       	mov    $0x1,%eax
 2cd:	89 c2                	mov    %eax,%edx
 2cf:	86 94 24 81 00 00 00 	xchg   %dl,0x81(%rsp)
 2d6:	84 d2                	test   %dl,%dl
 2d8:	75 dd                	jne    2b7 <_Z5test2v+0x2b7>
 2da:	48 8b 9c 24 88 00 00 	mov    0x88(%rsp),%rbx
 2e1:	00 
 2e2:	48 85 db             	test   %rbx,%rbx
 2e5:	0f 84 3b 05 00 00    	je     826 <_Z5test2v+0x826>
 2eb:	0f b6 53 21          	movzbl 0x21(%rbx),%edx
 2ef:	48 8d 4b 21          	lea    0x21(%rbx),%rcx
 2f3:	84 d2                	test   %dl,%dl
 2f5:	74 49                	je     340 <_Z5test2v+0x340>
 2f7:	c6 84 24 81 00 00 00 	movb   $0x0,0x81(%rsp)
 2fe:	00 
 2ff:	e9 73 ff ff ff       	jmpq   277 <_Z5test2v+0x277>
 304:	0f 1f 40 00          	nopl   0x0(%rax)
 308:	e8 00 00 00 00       	callq  30d <_Z5test2v+0x30d>
 30d:	eb 98                	jmp    2a7 <_Z5test2v+0x2a7>
 30f:	90                   	nop
 310:	86 06                	xchg   %al,(%rsi)
 312:	84 c0                	test   %al,%al
 314:	0f 85 99 fe ff ff    	jne    1b3 <_Z5test2v+0x1b3>
 31a:	48 8d 44 24 60       	lea    0x60(%rsp),%rax
 31f:	48 89 54 24 30       	mov    %rdx,0x30(%rsp)
 324:	48 89 44 24 38       	mov    %rax,0x38(%rsp)
 329:	e9 cd fd ff ff       	jmpq   fb <_Z5test2v+0xfb>
 32e:	66 90                	xchg   %ax,%ax
 330:	c6 44 24 78 00       	movb   $0x0,0x78(%rsp)
 335:	e9 e1 fe ff ff       	jmpq   21b <_Z5test2v+0x21b>
 33a:	66 0f 1f 44 00 00    	nopw   0x0(%rax,%rax,1)
 340:	86 01                	xchg   %al,(%rcx)
 342:	84 c0                	test   %al,%al
 344:	75 b1                	jne    2f7 <_Z5test2v+0x2f7>
 346:	48 8b 84 24 88 00 00 	mov    0x88(%rsp),%rax
 34d:	00 
 34e:	48 85 c0             	test   %rax,%rax
 351:	74 18                	je     36b <_Z5test2v+0x36b>
 353:	48 c7 40 28 00 00 00 	movq   $0x0,0x28(%rax)
 35a:	00 
 35b:	c6 40 22 01          	movb   $0x1,0x22(%rax)
 35f:	48 c7 84 24 88 00 00 	movq   $0x0,0x88(%rsp)
 366:	00 00 00 00 00 
 36b:	0f b6 44 24 78       	movzbl 0x78(%rsp),%eax
 370:	3c 02                	cmp    $0x2,%al
 372:	0f 84 d5 01 00 00    	je     54d <_Z5test2v+0x54d>
 378:	3c 03                	cmp    $0x3,%al
 37a:	0f 84 c3 01 00 00    	je     543 <_Z5test2v+0x543>
 380:	3c 01                	cmp    $0x1,%al
 382:	0f 84 c5 01 00 00    	je     54d <_Z5test2v+0x54d>
 388:	80 7b 20 00          	cmpb   $0x0,0x20(%rbx)
 38c:	0f 85 b4 04 00 00    	jne    846 <_Z5test2v+0x846>
 392:	80 bc 24 80 00 00 00 	cmpb   $0x0,0x80(%rsp)
 399:	00 
 39a:	0f 85 27 03 00 00    	jne    6c7 <_Z5test2v+0x6c7>
 3a0:	80 7c 24 78 03       	cmpb   $0x3,0x78(%rsp)
 3a5:	48 c7 44 24 60 00 00 	movq   $0x0,0x60(%rsp)
 3ac:	00 00 
 3ae:	0f 84 e5 01 00 00    	je     599 <_Z5test2v+0x599>
 3b4:	80 bc 24 b2 00 00 00 	cmpb   $0x0,0xb2(%rsp)
 3bb:	00 
 3bc:	48 c7 84 24 90 00 00 	movq   $0x0,0x90(%rsp)
 3c3:	00 00 00 00 00 
 3c8:	75 70                	jne    43a <_Z5test2v+0x43a>
 3ca:	80 bc 24 b0 00 00 00 	cmpb   $0x0,0xb0(%rsp)
 3d1:	00 
 3d2:	0f 85 23 01 00 00    	jne    4fb <_Z5test2v+0x4fb>
 3d8:	48 8b 9c 24 b8 00 00 	mov    0xb8(%rsp),%rbx
 3df:	00 
 3e0:	48 85 db             	test   %rbx,%rbx
 3e3:	74 0c                	je     3f1 <_Z5test2v+0x3f1>
 3e5:	c6 43 22 01          	movb   $0x1,0x22(%rbx)
 3e9:	48 c7 43 28 00 00 00 	movq   $0x0,0x28(%rbx)
 3f0:	00 
 3f1:	0f b6 84 24 a8 00 00 	movzbl 0xa8(%rsp),%eax
 3f8:	00 
 3f9:	48 c7 84 24 b8 00 00 	movq   $0x0,0xb8(%rsp)
 400:	00 00 00 00 00 
 405:	3c 02                	cmp    $0x2,%al
 407:	0f 84 7f 01 00 00    	je     58c <_Z5test2v+0x58c>
 40d:	3c 03                	cmp    $0x3,%al
 40f:	0f 84 6a 01 00 00    	je     57f <_Z5test2v+0x57f>
 415:	3c 01                	cmp    $0x1,%al
 417:	0f 84 6f 01 00 00    	je     58c <_Z5test2v+0x58c>
 41d:	80 bc 24 b0 00 00 00 	cmpb   $0x0,0xb0(%rsp)
 424:	00 
 425:	0f 85 68 02 00 00    	jne    693 <_Z5test2v+0x693>
 42b:	48 85 db             	test   %rbx,%rbx
 42e:	74 0a                	je     43a <_Z5test2v+0x43a>
 430:	80 7b 20 00          	cmpb   $0x0,0x20(%rbx)
 434:	0f 85 16 02 00 00    	jne    650 <_Z5test2v+0x650>
 43a:	48 8b 9c 24 d8 00 00 	mov    0xd8(%rsp),%rbx
 441:	00 
 442:	48 c7 84 24 90 00 00 	movq   $0x0,0x90(%rsp)
 449:	00 00 00 00 00 
 44e:	48 85 db             	test   %rbx,%rbx
 451:	74 19                	je     46c <_Z5test2v+0x46c>
 453:	b8 00 00 00 00       	mov    $0x0,%eax
 458:	48 85 c0             	test   %rax,%rax
 45b:	0f 84 59 01 00 00    	je     5ba <_Z5test2v+0x5ba>
 461:	f0 83 6b 08 01       	lock subl $0x1,0x8(%rbx)
 466:	0f 84 e3 03 00 00    	je     84f <_Z5test2v+0x84f>
 46c:	48 8b bc 24 c8 00 00 	mov    0xc8(%rsp),%rdi
 473:	00 
 474:	48 85 ff             	test   %rdi,%rdi
 477:	74 06                	je     47f <_Z5test2v+0x47f>
 479:	48 8b 07             	mov    (%rdi),%rax
 47c:	ff 50 08             	callq  *0x8(%rax)
 47f:	80 bc 24 a8 00 00 00 	cmpb   $0x3,0xa8(%rsp)
 486:	03 
 487:	48 c7 84 24 90 00 00 	movq   $0x0,0x90(%rsp)
 48e:	00 00 00 00 00 
 493:	0f 84 0f 01 00 00    	je     5a8 <_Z5test2v+0x5a8>
 499:	48 81 c4 e8 00 00 00 	add    $0xe8,%rsp
 4a0:	89 e8                	mov    %ebp,%eax
 4a2:	5b                   	pop    %rbx
 4a3:	5d                   	pop    %rbp
 4a4:	41 5c                	pop    %r12
 4a6:	41 5d                	pop    %r13
 4a8:	c3                   	retq   
 4a9:	c6 40 21 00          	movb   $0x0,0x21(%rax)
 4ad:	e9 9a fd ff ff       	jmpq   24c <_Z5test2v+0x24c>
 4b2:	c6 40 21 00          	movb   $0x0,0x21(%rax)
 4b6:	e9 74 fd ff ff       	jmpq   22f <_Z5test2v+0x22f>
 4bb:	0f 1f 44 00 00       	nopl   0x0(%rax,%rax,1)
 4c0:	b8 01 00 00 00       	mov    $0x1,%eax
 4c5:	89 c2                	mov    %eax,%edx
 4c7:	86 94 24 b1 00 00 00 	xchg   %dl,0xb1(%rsp)
 4ce:	84 d2                	test   %dl,%dl
 4d0:	75 65                	jne    537 <_Z5test2v+0x537>
 4d2:	48 8b 9c 24 b8 00 00 	mov    0xb8(%rsp),%rbx
 4d9:	00 
 4da:	48 85 db             	test   %rbx,%rbx
 4dd:	0f 84 76 01 00 00    	je     659 <_Z5test2v+0x659>
 4e3:	0f b6 53 21          	movzbl 0x21(%rbx),%edx
 4e7:	48 8d 4b 21          	lea    0x21(%rbx),%rcx
 4eb:	84 d2                	test   %dl,%dl
 4ed:	0f 84 7d 00 00 00    	je     570 <_Z5test2v+0x570>
 4f3:	c6 84 24 b1 00 00 00 	movb   $0x0,0xb1(%rsp)
 4fa:	00 
 4fb:	31 db                	xor    %ebx,%ebx
 4fd:	eb 2c                	jmp    52b <_Z5test2v+0x52b>
 4ff:	90                   	nop
 500:	48 81 fb f9 00 00 00 	cmp    $0xf9,%rbx
 507:	76 57                	jbe    560 <_Z5test2v+0x560>
 509:	48 8d 7c 24 40       	lea    0x40(%rsp),%rdi
 50e:	31 f6                	xor    %esi,%esi
 510:	48 c7 44 24 40 00 00 	movq   $0x0,0x40(%rsp)
 517:	00 00 
 519:	48 c7 44 24 48 40 42 	movq   $0xf4240,0x48(%rsp)
 520:	0f 00 
 522:	e8 00 00 00 00       	callq  527 <_Z5test2v+0x527>
 527:	48 83 c3 01          	add    $0x1,%rbx
 52b:	0f b6 84 24 b1 00 00 	movzbl 0xb1(%rsp),%eax
 532:	00 
 533:	84 c0                	test   %al,%al
 535:	74 89                	je     4c0 <_Z5test2v+0x4c0>
 537:	48 83 fb 7c          	cmp    $0x7c,%rbx
 53b:	77 c3                	ja     500 <_Z5test2v+0x500>
 53d:	f3 90                	pause  
 53f:	eb e6                	jmp    527 <_Z5test2v+0x527>
 541:	31 db                	xor    %ebx,%ebx
 543:	48 8d 7c 24 68       	lea    0x68(%rsp),%rdi
 548:	e8 00 00 00 00       	callq  54d <_Z5test2v+0x54d>
 54d:	48 85 db             	test   %rbx,%rbx
 550:	c6 44 24 78 00       	movb   $0x0,0x78(%rsp)
 555:	0f 85 2d fe ff ff    	jne    388 <_Z5test2v+0x388>
 55b:	e9 32 fe ff ff       	jmpq   392 <_Z5test2v+0x392>
 560:	e8 00 00 00 00       	callq  565 <_Z5test2v+0x565>
 565:	eb c0                	jmp    527 <_Z5test2v+0x527>
 567:	66 0f 1f 84 00 00 00 	nopw   0x0(%rax,%rax,1)
 56e:	00 00 
 570:	86 01                	xchg   %al,(%rcx)
 572:	84 c0                	test   %al,%al
 574:	0f 85 79 ff ff ff    	jne    4f3 <_Z5test2v+0x4f3>
 57a:	e9 66 fe ff ff       	jmpq   3e5 <_Z5test2v+0x3e5>
 57f:	48 8d bc 24 98 00 00 	lea    0x98(%rsp),%rdi
 586:	00 
 587:	e8 00 00 00 00       	callq  58c <_Z5test2v+0x58c>
 58c:	c6 84 24 a8 00 00 00 	movb   $0x0,0xa8(%rsp)
 593:	00 
 594:	e9 84 fe ff ff       	jmpq   41d <_Z5test2v+0x41d>
 599:	48 8d 7c 24 68       	lea    0x68(%rsp),%rdi
 59e:	e8 00 00 00 00       	callq  5a3 <_Z5test2v+0x5a3>
 5a3:	e9 0c fe ff ff       	jmpq   3b4 <_Z5test2v+0x3b4>
 5a8:	48 8d bc 24 98 00 00 	lea    0x98(%rsp),%rdi
 5af:	00 
 5b0:	e8 00 00 00 00       	callq  5b5 <_Z5test2v+0x5b5>
 5b5:	e9 df fe ff ff       	jmpq   499 <_Z5test2v+0x499>
 5ba:	8b 43 08             	mov    0x8(%rbx),%eax
 5bd:	8d 50 ff             	lea    -0x1(%rax),%edx
 5c0:	83 f8 01             	cmp    $0x1,%eax
 5c3:	89 53 08             	mov    %edx,0x8(%rbx)
 5c6:	0f 85 a0 fe ff ff    	jne    46c <_Z5test2v+0x46c>
 5cc:	48 8b 03             	mov    (%rbx),%rax
 5cf:	48 89 df             	mov    %rbx,%rdi
 5d2:	ff 50 10             	callq  *0x10(%rax)
 5d5:	8b 43 0c             	mov    0xc(%rbx),%eax
 5d8:	8d 50 ff             	lea    -0x1(%rax),%edx
 5db:	89 53 0c             	mov    %edx,0xc(%rbx)
 5de:	83 f8 01             	cmp    $0x1,%eax
 5e1:	0f 85 85 fe ff ff    	jne    46c <_Z5test2v+0x46c>
 5e7:	48 8b 03             	mov    (%rbx),%rax
 5ea:	48 89 df             	mov    %rbx,%rdi
 5ed:	ff 50 18             	callq  *0x18(%rax)
 5f0:	e9 77 fe ff ff       	jmpq   46c <_Z5test2v+0x46c>
 5f5:	48 89 ef             	mov    %rbp,%rdi
 5f8:	e8 00 00 00 00       	callq  5fd <_Z5test2v+0x5fd>
 5fd:	c6 44 24 78 00       	movb   $0x0,0x78(%rsp)
 602:	e9 58 fb ff ff       	jmpq   15f <_Z5test2v+0x15f>
 607:	66 0f 1f 84 00 00 00 	nopw   0x0(%rax,%rax,1)
 60e:	00 00 
 610:	84 c0                	test   %al,%al
 612:	0f 85 05 fb ff ff    	jne    11d <_Z5test2v+0x11d>
 618:	bf 20 00 00 00       	mov    $0x20,%edi
 61d:	e8 00 00 00 00       	callq  622 <_Z5test2v+0x622>
 622:	48 89 c5             	mov    %rax,%rbp
 625:	e8 00 00 00 00       	callq  62a <_Z5test2v+0x62a>
 62a:	be 03 00 00 00       	mov    $0x3,%esi
 62f:	48 89 c2             	mov    %rax,%rdx
 632:	48 89 ef             	mov    %rbp,%rdi
 635:	e8 00 00 00 00       	callq  63a <_Z5test2v+0x63a>
 63a:	ba 00 00 00 00       	mov    $0x0,%edx
 63f:	be 00 00 00 00       	mov    $0x0,%esi
 644:	48 89 ef             	mov    %rbp,%rdi
 647:	e8 00 00 00 00       	callq  64c <_Z5test2v+0x64c>
 64c:	0f 1f 40 00          	nopl   0x0(%rax)
 650:	c6 43 21 00          	movb   $0x0,0x21(%rbx)
 654:	e9 e1 fd ff ff       	jmpq   43a <_Z5test2v+0x43a>
 659:	0f b6 84 24 a8 00 00 	movzbl 0xa8(%rsp),%eax
 660:	00 
 661:	48 c7 84 24 b8 00 00 	movq   $0x0,0xb8(%rsp)
 668:	00 00 00 00 00 
 66d:	3c 02                	cmp    $0x2,%al
 66f:	0f 84 17 ff ff ff    	je     58c <_Z5test2v+0x58c>
 675:	3c 03                	cmp    $0x3,%al
 677:	0f 84 02 ff ff ff    	je     57f <_Z5test2v+0x57f>
 67d:	3c 01                	cmp    $0x1,%al
 67f:	0f 84 07 ff ff ff    	je     58c <_Z5test2v+0x58c>
 685:	80 bc 24 b0 00 00 00 	cmpb   $0x0,0xb0(%rsp)
 68c:	00 
 68d:	0f 84 a7 fd ff ff    	je     43a <_Z5test2v+0x43a>
 693:	c6 84 24 b1 00 00 00 	movb   $0x0,0xb1(%rsp)
 69a:	00 
 69b:	e9 8b fd ff ff       	jmpq   42b <_Z5test2v+0x42b>
 6a0:	80 7c 24 78 00       	cmpb   $0x0,0x78(%rsp)
 6a5:	0f 85 6d 01 00 00    	jne    818 <_Z5test2v+0x818>
 6ab:	80 bc 24 82 00 00 00 	cmpb   $0x0,0x82(%rsp)
 6b2:	00 
 6b3:	0f 85 5f 01 00 00    	jne    818 <_Z5test2v+0x818>
 6b9:	48 c7 44 24 60 00 00 	movq   $0x0,0x60(%rsp)
 6c0:	00 00 
 6c2:	e9 ed fc ff ff       	jmpq   3b4 <_Z5test2v+0x3b4>
 6c7:	c6 84 24 81 00 00 00 	movb   $0x0,0x81(%rsp)
 6ce:	00 
 6cf:	e9 cc fc ff ff       	jmpq   3a0 <_Z5test2v+0x3a0>
 6d4:	48 8b 5c 24 70       	mov    0x70(%rsp),%rbx
 6d9:	e8 00 00 00 00       	callq  6de <_Z5test2v+0x6de>
 6de:	4c 8b 6c 24 70       	mov    0x70(%rsp),%r13
 6e3:	44 8b 64 24 68       	mov    0x68(%rsp),%r12d
 6e8:	48 39 c3             	cmp    %rax,%rbx
 6eb:	49 8b 45 00          	mov    0x0(%r13),%rax
 6ef:	48 8b 40 18          	mov    0x18(%rax),%rax
 6f3:	0f 84 e7 01 00 00    	je     8e0 <_Z5test2v+0x8e0>
 6f9:	48 3d 00 00 00 00    	cmp    $0x0,%rax
 6ff:	0f 85 b0 01 00 00    	jne    8b5 <_Z5test2v+0x8b5>
 705:	41 83 fc 02          	cmp    $0x2,%r12d
 709:	0f 84 8d 01 00 00    	je     89c <_Z5test2v+0x89c>
 70f:	41 83 fc 03          	cmp    $0x3,%r12d
 713:	0f 84 62 01 00 00    	je     87b <_Z5test2v+0x87b>
 719:	41 83 fc 01          	cmp    $0x1,%r12d
 71d:	0f 84 a4 01 00 00    	je     8c7 <_Z5test2v+0x8c7>
 723:	48 8d 6c 24 40       	lea    0x40(%rsp),%rbp
 728:	48 8d 5c 24 20       	lea    0x20(%rsp),%rbx
 72d:	be 00 00 00 00       	mov    $0x0,%esi
 732:	48 89 ea             	mov    %rbp,%rdx
 735:	48 89 df             	mov    %rbx,%rdi
 738:	e8 00 00 00 00       	callq  73d <_Z5test2v+0x73d>
 73d:	48 89 de             	mov    %rbx,%rsi
 740:	48 89 ef             	mov    %rbp,%rdi
 743:	e8 00 00 00 00       	callq  748 <_Z5test2v+0x748>
 748:	48 8b 44 24 20       	mov    0x20(%rsp),%rax
 74d:	48 8d 78 e8          	lea    -0x18(%rax),%rdi
 751:	48 81 ff 00 00 00 00 	cmp    $0x0,%rdi
 758:	0f 85 c3 02 00 00    	jne    a21 <_Z5test2v+0xa21>
 75e:	0f b6 44 24 78       	movzbl 0x78(%rsp),%eax
 763:	48 c7 44 24 40 00 00 	movq   $0x0,0x40(%rsp)
 76a:	00 00 
 76c:	44 89 64 24 50       	mov    %r12d,0x50(%rsp)
 771:	4c 89 6c 24 58       	mov    %r13,0x58(%rsp)
 776:	3c 02                	cmp    $0x2,%al
 778:	0f 84 f3 00 00 00    	je     871 <_Z5test2v+0x871>
 77e:	3c 03                	cmp    $0x3,%al
 780:	0f 84 e1 00 00 00    	je     867 <_Z5test2v+0x867>
 786:	3c 01                	cmp    $0x1,%al
 788:	0f 84 e3 00 00 00    	je     871 <_Z5test2v+0x871>
 78e:	bf 20 00 00 00       	mov    $0x20,%edi
 793:	e8 00 00 00 00       	callq  798 <_Z5test2v+0x798>
 798:	48 8d 75 08          	lea    0x8(%rbp),%rsi
 79c:	48 8d 78 08          	lea    0x8(%rax),%rdi
 7a0:	48 c7 00 00 00 00 00 	movq   $0x0,(%rax)
 7a7:	49 89 c4             	mov    %rax,%r12
 7aa:	e8 00 00 00 00       	callq  7af <_Z5test2v+0x7af>
 7af:	48 8b 54 24 58       	mov    0x58(%rsp),%rdx
 7b4:	48 8b 44 24 50       	mov    0x50(%rsp),%rax
 7b9:	be 00 00 00 00       	mov    $0x0,%esi
 7be:	49 c7 04 24 00 00 00 	movq   $0x0,(%r12)
 7c5:	00 
 7c6:	4c 89 e7             	mov    %r12,%rdi
 7c9:	49 89 54 24 18       	mov    %rdx,0x18(%r12)
 7ce:	49 89 44 24 10       	mov    %rax,0x10(%r12)
 7d3:	ba 00 00 00 00       	mov    $0x0,%edx
 7d8:	e8 00 00 00 00       	callq  7dd <_Z5test2v+0x7dd>
 7dd:	48 89 c3             	mov    %rax,%rbx
 7e0:	48 89 ef             	mov    %rbp,%rdi
 7e3:	e8 00 00 00 00       	callq  7e8 <_Z5test2v+0x7e8>
 7e8:	48 8d 7c 24 30       	lea    0x30(%rsp),%rdi
 7ed:	e8 00 00 00 00       	callq  7f2 <_Z5test2v+0x7f2>
 7f2:	48 8d 7c 24 60       	lea    0x60(%rsp),%rdi
 7f7:	e8 00 00 00 00       	callq  7fc <_Z5test2v+0x7fc>
 7fc:	48 8d bc 24 90 00 00 	lea    0x90(%rsp),%rdi
 803:	00 
 804:	e8 00 00 00 00       	callq  809 <_Z5test2v+0x809>
 809:	48 89 df             	mov    %rbx,%rdi
 80c:	e8 00 00 00 00       	callq  811 <_Z5test2v+0x811>
 811:	0f 1f 80 00 00 00 00 	nopl   0x0(%rax)
 818:	80 bc 24 80 00 00 00 	cmpb   $0x0,0x80(%rsp)
 81f:	00 
 820:	0f 85 51 fa ff ff    	jne    277 <_Z5test2v+0x277>
 826:	0f b6 44 24 78       	movzbl 0x78(%rsp),%eax
 82b:	3c 02                	cmp    $0x2,%al
 82d:	74 10                	je     83f <_Z5test2v+0x83f>
 82f:	3c 03                	cmp    $0x3,%al
 831:	0f 84 0a fd ff ff    	je     541 <_Z5test2v+0x541>
 837:	3c 01                	cmp    $0x1,%al
 839:	0f 85 53 fb ff ff    	jne    392 <_Z5test2v+0x392>
 83f:	31 db                	xor    %ebx,%ebx
 841:	e9 07 fd ff ff       	jmpq   54d <_Z5test2v+0x54d>
 846:	c6 43 21 00          	movb   $0x0,0x21(%rbx)
 84a:	e9 43 fb ff ff       	jmpq   392 <_Z5test2v+0x392>
 84f:	48 8b 03             	mov    (%rbx),%rax
 852:	48 89 df             	mov    %rbx,%rdi
 855:	ff 50 10             	callq  *0x10(%rax)
 858:	b8 ff ff ff ff       	mov    $0xffffffff,%eax
 85d:	f0 0f c1 43 0c       	lock xadd %eax,0xc(%rbx)
 862:	e9 77 fd ff ff       	jmpq   5de <_Z5test2v+0x5de>
 867:	48 8d 7c 24 68       	lea    0x68(%rsp),%rdi
 86c:	e8 00 00 00 00       	callq  871 <_Z5test2v+0x871>
 871:	c6 44 24 78 00       	movb   $0x0,0x78(%rsp)
 876:	e9 13 ff ff ff       	jmpq   78e <_Z5test2v+0x78e>
 87b:	48 8d 5c 24 20       	lea    0x20(%rsp),%rbx
 880:	48 8d 54 24 0f       	lea    0xf(%rsp),%rdx
 885:	be 00 00 00 00       	mov    $0x0,%esi
 88a:	48 89 df             	mov    %rbx,%rdi
 88d:	e8 00 00 00 00       	callq  892 <_Z5test2v+0x892>
 892:	48 8d 6c 24 40       	lea    0x40(%rsp),%rbp
 897:	e9 a1 fe ff ff       	jmpq   73d <_Z5test2v+0x73d>
 89c:	48 8d 5c 24 20       	lea    0x20(%rsp),%rbx
 8a1:	48 8d 54 24 0e       	lea    0xe(%rsp),%rdx
 8a6:	be 00 00 00 00       	mov    $0x0,%esi
 8ab:	48 89 df             	mov    %rbx,%rdi
 8ae:	e8 00 00 00 00       	callq  8b3 <_Z5test2v+0x8b3>
 8b3:	eb dd                	jmp    892 <_Z5test2v+0x892>
 8b5:	48 8d 5c 24 20       	lea    0x20(%rsp),%rbx
 8ba:	44 89 e2             	mov    %r12d,%edx
 8bd:	4c 89 ee             	mov    %r13,%rsi
 8c0:	48 89 df             	mov    %rbx,%rdi
 8c3:	ff d0                	callq  *%rax
 8c5:	eb cb                	jmp    892 <_Z5test2v+0x892>
 8c7:	48 8d 5c 24 20       	lea    0x20(%rsp),%rbx
 8cc:	48 8d 54 24 0d       	lea    0xd(%rsp),%rdx
 8d1:	be 00 00 00 00       	mov    $0x0,%esi
 8d6:	48 89 df             	mov    %rbx,%rdi
 8d9:	e8 00 00 00 00       	callq  8de <_Z5test2v+0x8de>
 8de:	eb b2                	jmp    892 <_Z5test2v+0x892>
 8e0:	48 3d 00 00 00 00    	cmp    $0x0,%rax
 8e6:	48 8d 5c 24 10       	lea    0x10(%rsp),%rbx
 8eb:	0f 85 a4 01 00 00    	jne    a95 <_Z5test2v+0xa95>
 8f1:	41 83 fc 02          	cmp    $0x2,%r12d
 8f5:	0f 84 83 01 00 00    	je     a7e <_Z5test2v+0xa7e>
 8fb:	41 83 fc 03          	cmp    $0x3,%r12d
 8ff:	0f 84 62 01 00 00    	je     a67 <_Z5test2v+0xa67>
 905:	41 83 fc 01          	cmp    $0x1,%r12d
 909:	0f 84 41 01 00 00    	je     a50 <_Z5test2v+0xa50>
 90f:	48 8d 54 24 0c       	lea    0xc(%rsp),%rdx
 914:	be 00 00 00 00       	mov    $0x0,%esi
 919:	48 89 df             	mov    %rbx,%rdi
 91c:	e8 00 00 00 00       	callq  921 <_Z5test2v+0x921>
 921:	b9 13 00 00 00       	mov    $0x13,%ecx
 926:	ba 00 00 00 00       	mov    $0x0,%edx
 92b:	31 f6                	xor    %esi,%esi
 92d:	48 89 df             	mov    %rbx,%rdi
 930:	e8 00 00 00 00       	callq  935 <_Z5test2v+0x935>
 935:	48 8b 10             	mov    (%rax),%rdx
 938:	48 8d 5c 24 20       	lea    0x20(%rsp),%rbx
 93d:	48 8d 6c 24 40       	lea    0x40(%rsp),%rbp
 942:	48 89 de             	mov    %rbx,%rsi
 945:	48 89 ef             	mov    %rbp,%rdi
 948:	48 89 54 24 20       	mov    %rdx,0x20(%rsp)
 94d:	48 c7 00 00 00 00 00 	movq   $0x0,(%rax)
 954:	e8 00 00 00 00       	callq  959 <_Z5test2v+0x959>
 959:	48 8b 54 24 20       	mov    0x20(%rsp),%rdx
 95e:	48 8d 7a e8          	lea    -0x18(%rdx),%rdi
 962:	48 81 ff 00 00 00 00 	cmp    $0x0,%rdi
 969:	0f 85 6f 01 00 00    	jne    ade <_Z5test2v+0xade>
 96f:	48 8b 54 24 10       	mov    0x10(%rsp),%rdx
 974:	48 8d 7a e8          	lea    -0x18(%rdx),%rdi
 978:	48 81 ff 00 00 00 00 	cmp    $0x0,%rdi
 97f:	0f 85 2d 01 00 00    	jne    ab2 <_Z5test2v+0xab2>
 985:	0f b6 44 24 78       	movzbl 0x78(%rsp),%eax
 98a:	48 c7 44 24 40 00 00 	movq   $0x0,0x40(%rsp)
 991:	00 00 
 993:	44 89 64 24 50       	mov    %r12d,0x50(%rsp)
 998:	4c 89 6c 24 58       	mov    %r13,0x58(%rsp)
 99d:	3c 02                	cmp    $0x2,%al
 99f:	74 79                	je     a1a <_Z5test2v+0xa1a>
 9a1:	3c 03                	cmp    $0x3,%al
 9a3:	74 6b                	je     a10 <_Z5test2v+0xa10>
 9a5:	3c 01                	cmp    $0x1,%al
 9a7:	74 71                	je     a1a <_Z5test2v+0xa1a>
 9a9:	bf 20 00 00 00       	mov    $0x20,%edi
 9ae:	e8 00 00 00 00       	callq  9b3 <_Z5test2v+0x9b3>
 9b3:	48 8d 75 08          	lea    0x8(%rbp),%rsi
 9b7:	48 8d 78 08          	lea    0x8(%rax),%rdi
 9bb:	48 c7 00 00 00 00 00 	movq   $0x0,(%rax)
 9c2:	49 89 c4             	mov    %rax,%r12
 9c5:	e8 00 00 00 00       	callq  9ca <_Z5test2v+0x9ca>
 9ca:	48 8b 54 24 58       	mov    0x58(%rsp),%rdx
 9cf:	48 8b 44 24 50       	mov    0x50(%rsp),%rax
 9d4:	be 00 00 00 00       	mov    $0x0,%esi
 9d9:	49 c7 04 24 00 00 00 	movq   $0x0,(%r12)
 9e0:	00 
 9e1:	4c 89 e7             	mov    %r12,%rdi
 9e4:	49 89 54 24 18       	mov    %rdx,0x18(%r12)
 9e9:	49 89 44 24 10       	mov    %rax,0x10(%r12)
 9ee:	ba 00 00 00 00       	mov    $0x0,%edx
 9f3:	e8 00 00 00 00       	callq  9f8 <_Z5test2v+0x9f8>
 9f8:	48 89 c3             	mov    %rax,%rbx
 9fb:	48 89 ef             	mov    %rbp,%rdi
 9fe:	e8 00 00 00 00       	callq  a03 <_Z5test2v+0xa03>
 a03:	e9 e0 fd ff ff       	jmpq   7e8 <_Z5test2v+0x7e8>
 a08:	0f 1f 84 00 00 00 00 	nopl   0x0(%rax,%rax,1)
 a0f:	00 
 a10:	48 8d 7c 24 68       	lea    0x68(%rsp),%rdi
 a15:	e8 00 00 00 00       	callq  a1a <_Z5test2v+0xa1a>
 a1a:	c6 44 24 78 00       	movb   $0x0,0x78(%rsp)
 a1f:	eb 88                	jmp    9a9 <_Z5test2v+0x9a9>
 a21:	ba 00 00 00 00       	mov    $0x0,%edx
 a26:	48 85 d2             	test   %rdx,%rdx
 a29:	74 7a                	je     aa5 <_Z5test2v+0xaa5>
 a2b:	ba ff ff ff ff       	mov    $0xffffffff,%edx
 a30:	f0 0f c1 50 f8       	lock xadd %edx,-0x8(%rax)
 a35:	89 d0                	mov    %edx,%eax
 a37:	85 c0                	test   %eax,%eax
 a39:	0f 8f 1f fd ff ff    	jg     75e <_Z5test2v+0x75e>
 a3f:	48 8d 74 24 10       	lea    0x10(%rsp),%rsi
 a44:	e8 00 00 00 00       	callq  a49 <_Z5test2v+0xa49>
 a49:	e9 10 fd ff ff       	jmpq   75e <_Z5test2v+0x75e>
 a4e:	66 90                	xchg   %ax,%ax
 a50:	48 8d 54 24 09       	lea    0x9(%rsp),%rdx
 a55:	be 00 00 00 00       	mov    $0x0,%esi
 a5a:	48 89 df             	mov    %rbx,%rdi
 a5d:	e8 00 00 00 00       	callq  a62 <_Z5test2v+0xa62>
 a62:	e9 ba fe ff ff       	jmpq   921 <_Z5test2v+0x921>
 a67:	48 8d 54 24 0b       	lea    0xb(%rsp),%rdx
 a6c:	be 00 00 00 00       	mov    $0x0,%esi
 a71:	48 89 df             	mov    %rbx,%rdi
 a74:	e8 00 00 00 00       	callq  a79 <_Z5test2v+0xa79>
 a79:	e9 a3 fe ff ff       	jmpq   921 <_Z5test2v+0x921>
 a7e:	48 8d 54 24 0a       	lea    0xa(%rsp),%rdx
 a83:	be 00 00 00 00       	mov    $0x0,%esi
 a88:	48 89 df             	mov    %rbx,%rdi
 a8b:	e8 00 00 00 00       	callq  a90 <_Z5test2v+0xa90>
 a90:	e9 8c fe ff ff       	jmpq   921 <_Z5test2v+0x921>
 a95:	44 89 e2             	mov    %r12d,%edx
 a98:	4c 89 ee             	mov    %r13,%rsi
 a9b:	48 89 df             	mov    %rbx,%rdi
 a9e:	ff d0                	callq  *%rax
 aa0:	e9 7c fe ff ff       	jmpq   921 <_Z5test2v+0x921>
 aa5:	8b 50 f8             	mov    -0x8(%rax),%edx
 aa8:	8d 4a ff             	lea    -0x1(%rdx),%ecx
 aab:	89 48 f8             	mov    %ecx,-0x8(%rax)
 aae:	89 d0                	mov    %edx,%eax
 ab0:	eb 85                	jmp    a37 <_Z5test2v+0xa37>
 ab2:	b8 00 00 00 00       	mov    $0x0,%eax
 ab7:	48 8d 4f 10          	lea    0x10(%rdi),%rcx
 abb:	48 85 c0             	test   %rax,%rax
 abe:	74 4c                	je     b0c <_Z5test2v+0xb0c>
 ac0:	b8 ff ff ff ff       	mov    $0xffffffff,%eax
 ac5:	f0 0f c1 01          	lock xadd %eax,(%rcx)
 ac9:	85 c0                	test   %eax,%eax
 acb:	0f 8f b4 fe ff ff    	jg     985 <_Z5test2v+0x985>
 ad1:	48 89 de             	mov    %rbx,%rsi
 ad4:	e8 00 00 00 00       	callq  ad9 <_Z5test2v+0xad9>
 ad9:	e9 a7 fe ff ff       	jmpq   985 <_Z5test2v+0x985>
 ade:	b8 00 00 00 00       	mov    $0x0,%eax
 ae3:	48 8d 4f 10          	lea    0x10(%rdi),%rcx
 ae7:	48 85 c0             	test   %rax,%rax
 aea:	74 2b                	je     b17 <_Z5test2v+0xb17>
 aec:	b8 ff ff ff ff       	mov    $0xffffffff,%eax
 af1:	f0 0f c1 01          	lock xadd %eax,(%rcx)
 af5:	85 c0                	test   %eax,%eax
 af7:	0f 8f 72 fe ff ff    	jg     96f <_Z5test2v+0x96f>
 afd:	48 8d 74 24 0f       	lea    0xf(%rsp),%rsi
 b02:	e8 00 00 00 00       	callq  b07 <_Z5test2v+0xb07>
 b07:	e9 63 fe ff ff       	jmpq   96f <_Z5test2v+0x96f>
 b0c:	8b 42 f8             	mov    -0x8(%rdx),%eax
 b0f:	8d 48 ff             	lea    -0x1(%rax),%ecx
 b12:	89 4a f8             	mov    %ecx,-0x8(%rdx)
 b15:	eb b2                	jmp    ac9 <_Z5test2v+0xac9>
 b17:	8b 42 f8             	mov    -0x8(%rdx),%eax
 b1a:	8d 48 ff             	lea    -0x1(%rax),%ecx
 b1d:	89 4a f8             	mov    %ecx,-0x8(%rdx)
 b20:	eb d3                	jmp    af5 <_Z5test2v+0xaf5>
 b22:	48 89 c3             	mov    %rax,%rbx
 b25:	48 8b 44 24 20       	mov    0x20(%rsp),%rax
 b2a:	48 8d 78 e8          	lea    -0x18(%rax),%rdi
 b2e:	48 81 ff 00 00 00 00 	cmp    $0x0,%rdi
 b35:	74 0a                	je     b41 <_Z5test2v+0xb41>
 b37:	48 8d 74 24 0f       	lea    0xf(%rsp),%rsi
 b3c:	e8 00 00 00 00       	callq  b41 <_Z5test2v+0xb41>
 b41:	48 8b 44 24 10       	mov    0x10(%rsp),%rax
 b46:	48 8d 78 e8          	lea    -0x18(%rax),%rdi
 b4a:	48 81 ff 00 00 00 00 	cmp    $0x0,%rdi
 b51:	0f 84 91 fc ff ff    	je     7e8 <_Z5test2v+0x7e8>
 b57:	48 8d 74 24 20       	lea    0x20(%rsp),%rsi
 b5c:	e8 00 00 00 00       	callq  b61 <_Z5test2v+0xb61>
 b61:	e9 82 fc ff ff       	jmpq   7e8 <_Z5test2v+0x7e8>
 b66:	48 89 c3             	mov    %rax,%rbx
 b69:	eb d6                	jmp    b41 <_Z5test2v+0xb41>
 b6b:	4c 89 e7             	mov    %r12,%rdi
 b6e:	48 89 c3             	mov    %rax,%rbx
 b71:	e8 00 00 00 00       	callq  b76 <_Z5test2v+0xb76>
 b76:	4c 89 e7             	mov    %r12,%rdi
 b79:	e8 00 00 00 00       	callq  b7e <_Z5test2v+0xb7e>
 b7e:	e9 78 fe ff ff       	jmpq   9fb <_Z5test2v+0x9fb>
 b83:	bf 20 00 00 00       	mov    $0x20,%edi
 b88:	e8 00 00 00 00       	callq  b8d <_Z5test2v+0xb8d>
 b8d:	48 89 c5             	mov    %rax,%rbp
 b90:	e8 00 00 00 00       	callq  b95 <_Z5test2v+0xb95>
 b95:	be 04 00 00 00       	mov    $0x4,%esi
 b9a:	48 89 c2             	mov    %rax,%rdx
 b9d:	48 89 ef             	mov    %rbp,%rdi
 ba0:	e8 00 00 00 00       	callq  ba5 <_Z5test2v+0xba5>
 ba5:	ba 00 00 00 00       	mov    $0x0,%edx
 baa:	be 00 00 00 00       	mov    $0x0,%esi
 baf:	48 89 ef             	mov    %rbp,%rdi
 bb2:	e8 00 00 00 00       	callq  bb7 <_Z5test2v+0xbb7>
 bb7:	48 89 c3             	mov    %rax,%rbx
 bba:	e9 29 fc ff ff       	jmpq   7e8 <_Z5test2v+0x7e8>
 bbf:	48 89 ef             	mov    %rbp,%rdi
 bc2:	48 89 c3             	mov    %rax,%rbx
 bc5:	e8 00 00 00 00       	callq  bca <_Z5test2v+0xbca>
 bca:	e9 19 fc ff ff       	jmpq   7e8 <_Z5test2v+0x7e8>
 bcf:	eb ee                	jmp    bbf <_Z5test2v+0xbbf>
 bd1:	48 89 c3             	mov    %rax,%rbx
 bd4:	48 8b 44 24 20       	mov    0x20(%rsp),%rax
 bd9:	48 8d 78 e8          	lea    -0x18(%rax),%rdi
 bdd:	48 81 ff 00 00 00 00 	cmp    $0x0,%rdi
 be4:	0f 84 fe fb ff ff    	je     7e8 <_Z5test2v+0x7e8>
 bea:	48 8d 74 24 10       	lea    0x10(%rsp),%rsi
 bef:	e8 00 00 00 00       	callq  bf4 <_Z5test2v+0xbf4>
 bf4:	e9 ef fb ff ff       	jmpq   7e8 <_Z5test2v+0x7e8>
 bf9:	4c 89 e7             	mov    %r12,%rdi
 bfc:	48 89 c3             	mov    %rax,%rbx
 bff:	e8 00 00 00 00       	callq  c04 <_Z5test2v+0xc04>
 c04:	4c 89 e7             	mov    %r12,%rdi
 c07:	e8 00 00 00 00       	callq  c0c <_Z5test2v+0xc0c>
 c0c:	e9 cf fb ff ff       	jmpq   7e0 <_Z5test2v+0x7e0>
 c11:	48 89 c3             	mov    %rax,%rbx
 c14:	e9 d9 fb ff ff       	jmpq   7f2 <_Z5test2v+0x7f2>
 c19:	48 8d 7c 24 40       	lea    0x40(%rsp),%rdi
 c1e:	48 89 c5             	mov    %rax,%rbp
 c21:	e8 00 00 00 00       	callq  c26 <_Z5test2v+0xc26>
 c26:	48 89 df             	mov    %rbx,%rdi
 c29:	48 89 eb             	mov    %rbp,%rbx
 c2c:	e8 00 00 00 00       	callq  c31 <_Z5test2v+0xc31>
 c31:	e9 b2 fb ff ff       	jmpq   7e8 <_Z5test2v+0x7e8>
