   0:	53                   	push   %rbx
   1:	48 83 ec 70          	sub    $0x70,%rsp
   5:	c6 44 24 20 00       	movb   $0x0,0x20(%rsp)
   a:	c6 44 24 28 00       	movb   $0x0,0x28(%rsp)
   f:	c6 44 24 29 00       	movb   $0x0,0x29(%rsp)
  14:	48 c7 44 24 30 00 00 	movq   $0x0,0x30(%rsp)
  1b:	00 00 
  1d:	c6 44 24 50 00       	movb   $0x0,0x50(%rsp)
  22:	c6 44 24 58 00       	movb   $0x0,0x58(%rsp)
  27:	c6 44 24 59 00       	movb   $0x0,0x59(%rsp)
  2c:	48 c7 44 24 60 00 00 	movq   $0x0,0x60(%rsp)
  33:	00 00 
  35:	0f 1f 00             	nopl   (%rax)
  38:	31 db                	xor    %ebx,%ebx
  3a:	eb 2c                	jmp    68 <_Z5test1v+0x68>
  3c:	0f 1f 40 00          	nopl   0x0(%rax)
  40:	48 81 fb f9 00 00 00 	cmp    $0xf9,%rbx
  47:	76 67                	jbe    b0 <_Z5test1v+0xb0>
  49:	31 f6                	xor    %esi,%esi
  4b:	48 89 e7             	mov    %rsp,%rdi
  4e:	48 c7 04 24 00 00 00 	movq   $0x0,(%rsp)
  55:	00 
  56:	48 c7 44 24 08 40 42 	movq   $0xf4240,0x8(%rsp)
  5d:	0f 00 
  5f:	e8 00 00 00 00       	callq  64 <_Z5test1v+0x64>
  64:	48 83 c3 01          	add    $0x1,%rbx
  68:	0f b6 44 24 29       	movzbl 0x29(%rsp),%eax
  6d:	84 c0                	test   %al,%al
  6f:	74 0f                	je     80 <_Z5test1v+0x80>
  71:	48 83 fb 7c          	cmp    $0x7c,%rbx
  75:	77 c9                	ja     40 <_Z5test1v+0x40>
  77:	f3 90                	pause  
  79:	eb e9                	jmp    64 <_Z5test1v+0x64>
  7b:	0f 1f 44 00 00       	nopl   0x0(%rax,%rax,1)
  80:	b8 01 00 00 00       	mov    $0x1,%eax
  85:	89 c2                	mov    %eax,%edx
  87:	86 54 24 29          	xchg   %dl,0x29(%rsp)
  8b:	84 d2                	test   %dl,%dl
  8d:	75 e2                	jne    71 <_Z5test1v+0x71>
  8f:	48 8b 54 24 30       	mov    0x30(%rsp),%rdx
  94:	48 85 d2             	test   %rdx,%rdx
  97:	0f 84 7b 01 00 00    	je     218 <_Z5test1v+0x218>
  9d:	48 8d 4a 19          	lea    0x19(%rdx),%rcx
  a1:	0f b6 52 19          	movzbl 0x19(%rdx),%edx
  a5:	84 d2                	test   %dl,%dl
  a7:	74 17                	je     c0 <_Z5test1v+0xc0>
  a9:	c6 44 24 29 00       	movb   $0x0,0x29(%rsp)
  ae:	eb 88                	jmp    38 <_Z5test1v+0x38>
  b0:	e8 00 00 00 00       	callq  b5 <_Z5test1v+0xb5>
  b5:	eb ad                	jmp    64 <_Z5test1v+0x64>
  b7:	66 0f 1f 84 00 00 00 	nopw   0x0(%rax,%rax,1)
  be:	00 00 
  c0:	86 01                	xchg   %al,(%rcx)
  c2:	84 c0                	test   %al,%al
  c4:	75 e3                	jne    a9 <_Z5test1v+0xa9>
  c6:	0f b6 44 24 20       	movzbl 0x20(%rsp),%eax
  cb:	48 8b 54 24 30       	mov    0x30(%rsp),%rdx
  d0:	3c 02                	cmp    $0x2,%al
  d2:	0f 84 bf 03 00 00    	je     497 <_Z5test1v+0x497>
  d8:	0f 86 78 01 00 00    	jbe    256 <_Z5test1v+0x256>
  de:	3c 03                	cmp    $0x3,%al
  e0:	0f 84 94 03 00 00    	je     47a <_Z5test1v+0x47a>
  e6:	3c 04                	cmp    $0x4,%al
  e8:	0f 84 4b 01 00 00    	je     239 <_Z5test1v+0x239>
  ee:	48 85 d2             	test   %rdx,%rdx
  f1:	88 44 24 50          	mov    %al,0x50(%rsp)
  f5:	74 1a                	je     111 <_Z5test1v+0x111>
  f7:	48 8d 44 24 40       	lea    0x40(%rsp),%rax
  fc:	48 89 54 24 60       	mov    %rdx,0x60(%rsp)
 101:	48 c7 44 24 30 00 00 	movq   $0x0,0x30(%rsp)
 108:	00 00 
 10a:	48 89 02             	mov    %rax,(%rdx)
 10d:	c6 42 19 00          	movb   $0x0,0x19(%rdx)
 111:	c6 44 24 29 00       	movb   $0x0,0x29(%rsp)
 116:	48 83 7c 24 60 00    	cmpq   $0x0,0x60(%rsp)
 11c:	0f 84 09 03 00 00    	je     42b <_Z5test1v+0x42b>
 122:	66 0f 1f 44 00 00    	nopw   0x0(%rax,%rax,1)
 128:	31 db                	xor    %ebx,%ebx
 12a:	eb 2c                	jmp    158 <_Z5test1v+0x158>
 12c:	0f 1f 40 00          	nopl   0x0(%rax)
 130:	48 81 fb f9 00 00 00 	cmp    $0xf9,%rbx
 137:	76 67                	jbe    1a0 <_Z5test1v+0x1a0>
 139:	31 f6                	xor    %esi,%esi
 13b:	48 89 e7             	mov    %rsp,%rdi
 13e:	48 c7 04 24 00 00 00 	movq   $0x0,(%rsp)
 145:	00 
 146:	48 c7 44 24 08 40 42 	movq   $0xf4240,0x8(%rsp)
 14d:	0f 00 
 14f:	e8 00 00 00 00       	callq  154 <_Z5test1v+0x154>
 154:	48 83 c3 01          	add    $0x1,%rbx
 158:	0f b6 44 24 59       	movzbl 0x59(%rsp),%eax
 15d:	84 c0                	test   %al,%al
 15f:	74 0f                	je     170 <_Z5test1v+0x170>
 161:	48 83 fb 7c          	cmp    $0x7c,%rbx
 165:	77 c9                	ja     130 <_Z5test1v+0x130>
 167:	f3 90                	pause  
 169:	eb e9                	jmp    154 <_Z5test1v+0x154>
 16b:	0f 1f 44 00 00       	nopl   0x0(%rax,%rax,1)
 170:	b8 01 00 00 00       	mov    $0x1,%eax
 175:	89 c2                	mov    %eax,%edx
 177:	86 54 24 59          	xchg   %dl,0x59(%rsp)
 17b:	84 d2                	test   %dl,%dl
 17d:	75 e2                	jne    161 <_Z5test1v+0x161>
 17f:	48 8b 54 24 60       	mov    0x60(%rsp),%rdx
 184:	48 85 d2             	test   %rdx,%rdx
 187:	0f 84 ed 00 00 00    	je     27a <_Z5test1v+0x27a>
 18d:	48 8d 4a 19          	lea    0x19(%rdx),%rcx
 191:	0f b6 52 19          	movzbl 0x19(%rdx),%edx
 195:	84 d2                	test   %dl,%dl
 197:	74 17                	je     1b0 <_Z5test1v+0x1b0>
 199:	c6 44 24 59 00       	movb   $0x0,0x59(%rsp)
 19e:	eb 88                	jmp    128 <_Z5test1v+0x128>
 1a0:	e8 00 00 00 00       	callq  1a5 <_Z5test1v+0x1a5>
 1a5:	eb ad                	jmp    154 <_Z5test1v+0x154>
 1a7:	66 0f 1f 84 00 00 00 	nopw   0x0(%rax,%rax,1)
 1ae:	00 00 
 1b0:	86 01                	xchg   %al,(%rcx)
 1b2:	84 c0                	test   %al,%al
 1b4:	75 e3                	jne    199 <_Z5test1v+0x199>
 1b6:	48 8b 5c 24 60       	mov    0x60(%rsp),%rbx
 1bb:	48 85 db             	test   %rbx,%rbx
 1be:	0f 84 b6 00 00 00    	je     27a <_Z5test1v+0x27a>
 1c4:	0f b6 43 10          	movzbl 0x10(%rbx),%eax
 1c8:	3c 02                	cmp    $0x2,%al
 1ca:	74 19                	je     1e5 <_Z5test1v+0x1e5>
 1cc:	0f 86 9b 02 00 00    	jbe    46d <_Z5test1v+0x46d>
 1d2:	3c 03                	cmp    $0x3,%al
 1d4:	0f 84 37 03 00 00    	je     511 <_Z5test1v+0x511>
 1da:	3c 04                	cmp    $0x4,%al
 1dc:	75 0b                	jne    1e9 <_Z5test1v+0x1e9>
 1de:	48 c7 03 00 00 00 00 	movq   $0x0,(%rbx)
 1e5:	c6 43 10 00          	movb   $0x0,0x10(%rbx)
 1e9:	0f b6 44 24 50       	movzbl 0x50(%rsp),%eax
 1ee:	3c 02                	cmp    $0x2,%al
 1f0:	0f 84 aa 00 00 00    	je     2a0 <_Z5test1v+0x2a0>
 1f6:	0f 86 ea 02 00 00    	jbe    4e6 <_Z5test1v+0x4e6>
 1fc:	3c 03                	cmp    $0x3,%al
 1fe:	0f 84 ba 02 00 00    	je     4be <_Z5test1v+0x4be>
 204:	3c 04                	cmp    $0x4,%al
 206:	0f 84 8b 00 00 00    	je     297 <_Z5test1v+0x297>
 20c:	e9 99 00 00 00       	jmpq   2aa <_Z5test1v+0x2aa>
 211:	0f 1f 80 00 00 00 00 	nopl   0x0(%rax)
 218:	0f b6 44 24 20       	movzbl 0x20(%rsp),%eax
 21d:	31 d2                	xor    %edx,%edx
 21f:	3c 02                	cmp    $0x2,%al
 221:	0f 84 70 02 00 00    	je     497 <_Z5test1v+0x497>
 227:	76 37                	jbe    260 <_Z5test1v+0x260>
 229:	3c 03                	cmp    $0x3,%al
 22b:	0f 84 49 02 00 00    	je     47a <_Z5test1v+0x47a>
 231:	3c 04                	cmp    $0x4,%al
 233:	0f 85 7c 02 00 00    	jne    4b5 <_Z5test1v+0x4b5>
 239:	48 8b 44 24 10       	mov    0x10(%rsp),%rax
 23e:	48 c7 44 24 10 00 00 	movq   $0x0,0x10(%rsp)
 245:	00 00 
 247:	48 89 44 24 40       	mov    %rax,0x40(%rsp)
 24c:	b8 04 00 00 00       	mov    $0x4,%eax
 251:	e9 98 fe ff ff       	jmpq   ee <_Z5test1v+0xee>
 256:	3c 01                	cmp    $0x1,%al
 258:	0f 85 90 fe ff ff    	jne    ee <_Z5test1v+0xee>
 25e:	eb 08                	jmp    268 <_Z5test1v+0x268>
 260:	3c 01                	cmp    $0x1,%al
 262:	0f 85 4d 02 00 00    	jne    4b5 <_Z5test1v+0x4b5>
 268:	8b 44 24 10          	mov    0x10(%rsp),%eax
 26c:	89 44 24 40          	mov    %eax,0x40(%rsp)
 270:	b8 01 00 00 00       	mov    $0x1,%eax
 275:	e9 74 fe ff ff       	jmpq   ee <_Z5test1v+0xee>
 27a:	0f b6 44 24 50       	movzbl 0x50(%rsp),%eax
 27f:	31 db                	xor    %ebx,%ebx
 281:	3c 02                	cmp    $0x2,%al
 283:	74 1b                	je     2a0 <_Z5test1v+0x2a0>
 285:	0f 86 bb 01 00 00    	jbe    446 <_Z5test1v+0x446>
 28b:	3c 03                	cmp    $0x3,%al
 28d:	0f 84 2b 02 00 00    	je     4be <_Z5test1v+0x4be>
 293:	3c 04                	cmp    $0x4,%al
 295:	75 17                	jne    2ae <_Z5test1v+0x2ae>
 297:	48 c7 44 24 40 00 00 	movq   $0x0,0x40(%rsp)
 29e:	00 00 
 2a0:	c6 44 24 50 00       	movb   $0x0,0x50(%rsp)
 2a5:	48 85 db             	test   %rbx,%rbx
 2a8:	74 04                	je     2ae <_Z5test1v+0x2ae>
 2aa:	c6 43 19 00          	movb   $0x0,0x19(%rbx)
 2ae:	c6 44 24 59 00       	movb   $0x0,0x59(%rsp)
 2b3:	80 7c 24 50 03       	cmpb   $0x3,0x50(%rsp)
 2b8:	0f 84 30 01 00 00    	je     3ee <_Z5test1v+0x3ee>
 2be:	48 83 7c 24 30 00    	cmpq   $0x0,0x30(%rsp)
 2c4:	0f 84 3a 01 00 00    	je     404 <_Z5test1v+0x404>
 2ca:	66 0f 1f 44 00 00    	nopw   0x0(%rax,%rax,1)
 2d0:	31 db                	xor    %ebx,%ebx
 2d2:	eb 2c                	jmp    300 <_Z5test1v+0x300>
 2d4:	0f 1f 40 00          	nopl   0x0(%rax)
 2d8:	48 81 fb f9 00 00 00 	cmp    $0xf9,%rbx
 2df:	76 67                	jbe    348 <_Z5test1v+0x348>
 2e1:	31 f6                	xor    %esi,%esi
 2e3:	48 89 e7             	mov    %rsp,%rdi
 2e6:	48 c7 04 24 00 00 00 	movq   $0x0,(%rsp)
 2ed:	00 
 2ee:	48 c7 44 24 08 40 42 	movq   $0xf4240,0x8(%rsp)
 2f5:	0f 00 
 2f7:	e8 00 00 00 00       	callq  2fc <_Z5test1v+0x2fc>
 2fc:	48 83 c3 01          	add    $0x1,%rbx
 300:	0f b6 44 24 29       	movzbl 0x29(%rsp),%eax
 305:	84 c0                	test   %al,%al
 307:	74 0f                	je     318 <_Z5test1v+0x318>
 309:	48 83 fb 7c          	cmp    $0x7c,%rbx
 30d:	77 c9                	ja     2d8 <_Z5test1v+0x2d8>
 30f:	f3 90                	pause  
 311:	eb e9                	jmp    2fc <_Z5test1v+0x2fc>
 313:	0f 1f 44 00 00       	nopl   0x0(%rax,%rax,1)
 318:	b8 01 00 00 00       	mov    $0x1,%eax
 31d:	89 c2                	mov    %eax,%edx
 31f:	86 54 24 29          	xchg   %dl,0x29(%rsp)
 323:	84 d2                	test   %dl,%dl
 325:	75 e2                	jne    309 <_Z5test1v+0x309>
 327:	48 8b 54 24 30       	mov    0x30(%rsp),%rdx
 32c:	48 85 d2             	test   %rdx,%rdx
 32f:	74 77                	je     3a8 <_Z5test1v+0x3a8>
 331:	48 8d 4a 19          	lea    0x19(%rdx),%rcx
 335:	0f b6 52 19          	movzbl 0x19(%rdx),%edx
 339:	84 d2                	test   %dl,%dl
 33b:	74 13                	je     350 <_Z5test1v+0x350>
 33d:	c6 44 24 29 00       	movb   $0x0,0x29(%rsp)
 342:	eb 8c                	jmp    2d0 <_Z5test1v+0x2d0>
 344:	0f 1f 40 00          	nopl   0x0(%rax)
 348:	e8 00 00 00 00       	callq  34d <_Z5test1v+0x34d>
 34d:	eb ad                	jmp    2fc <_Z5test1v+0x2fc>
 34f:	90                   	nop
 350:	86 01                	xchg   %al,(%rcx)
 352:	84 c0                	test   %al,%al
 354:	75 e7                	jne    33d <_Z5test1v+0x33d>
 356:	48 8b 5c 24 30       	mov    0x30(%rsp),%rbx
 35b:	48 85 db             	test   %rbx,%rbx
 35e:	74 48                	je     3a8 <_Z5test1v+0x3a8>
 360:	0f b6 43 10          	movzbl 0x10(%rbx),%eax
 364:	3c 02                	cmp    $0x2,%al
 366:	74 19                	je     381 <_Z5test1v+0x381>
 368:	0f 86 f2 00 00 00    	jbe    460 <_Z5test1v+0x460>
 36e:	3c 03                	cmp    $0x3,%al
 370:	0f 84 8a 01 00 00    	je     500 <_Z5test1v+0x500>
 376:	3c 04                	cmp    $0x4,%al
 378:	75 0b                	jne    385 <_Z5test1v+0x385>
 37a:	48 c7 03 00 00 00 00 	movq   $0x0,(%rbx)
 381:	c6 43 10 00          	movb   $0x0,0x10(%rbx)
 385:	0f b6 44 24 20       	movzbl 0x20(%rsp),%eax
 38a:	3c 02                	cmp    $0x2,%al
 38c:	74 40                	je     3ce <_Z5test1v+0x3ce>
 38e:	0f 86 5f 01 00 00    	jbe    4f3 <_Z5test1v+0x4f3>
 394:	3c 03                	cmp    $0x3,%al
 396:	0f 84 36 01 00 00    	je     4d2 <_Z5test1v+0x4d2>
 39c:	3c 04                	cmp    $0x4,%al
 39e:	74 25                	je     3c5 <_Z5test1v+0x3c5>
 3a0:	eb 36                	jmp    3d8 <_Z5test1v+0x3d8>
 3a2:	66 0f 1f 44 00 00    	nopw   0x0(%rax,%rax,1)
 3a8:	0f b6 44 24 20       	movzbl 0x20(%rsp),%eax
 3ad:	31 db                	xor    %ebx,%ebx
 3af:	3c 02                	cmp    $0x2,%al
 3b1:	74 1b                	je     3ce <_Z5test1v+0x3ce>
 3b3:	0f 86 9a 00 00 00    	jbe    453 <_Z5test1v+0x453>
 3b9:	3c 03                	cmp    $0x3,%al
 3bb:	0f 84 11 01 00 00    	je     4d2 <_Z5test1v+0x4d2>
 3c1:	3c 04                	cmp    $0x4,%al
 3c3:	75 17                	jne    3dc <_Z5test1v+0x3dc>
 3c5:	48 c7 44 24 10 00 00 	movq   $0x0,0x10(%rsp)
 3cc:	00 00 
 3ce:	c6 44 24 20 00       	movb   $0x0,0x20(%rsp)
 3d3:	48 85 db             	test   %rbx,%rbx
 3d6:	74 04                	je     3dc <_Z5test1v+0x3dc>
 3d8:	c6 43 19 00          	movb   $0x0,0x19(%rbx)
 3dc:	c6 44 24 29 00       	movb   $0x0,0x29(%rsp)
 3e1:	80 7c 24 20 03       	cmpb   $0x3,0x20(%rsp)
 3e6:	74 33                	je     41b <_Z5test1v+0x41b>
 3e8:	48 83 c4 70          	add    $0x70,%rsp
 3ec:	5b                   	pop    %rbx
 3ed:	c3                   	retq   
 3ee:	48 8d 7c 24 40       	lea    0x40(%rsp),%rdi
 3f3:	e8 00 00 00 00       	callq  3f8 <_Z5test1v+0x3f8>
 3f8:	48 83 7c 24 30 00    	cmpq   $0x0,0x30(%rsp)
 3fe:	0f 85 cc fe ff ff    	jne    2d0 <_Z5test1v+0x2d0>
 404:	80 7c 24 20 00       	cmpb   $0x0,0x20(%rsp)
 409:	0f 85 c1 fe ff ff    	jne    2d0 <_Z5test1v+0x2d0>
 40f:	80 7c 24 28 00       	cmpb   $0x0,0x28(%rsp)
 414:	74 d2                	je     3e8 <_Z5test1v+0x3e8>
 416:	e9 b5 fe ff ff       	jmpq   2d0 <_Z5test1v+0x2d0>
 41b:	48 8d 7c 24 10       	lea    0x10(%rsp),%rdi
 420:	e8 00 00 00 00       	callq  425 <_Z5test1v+0x425>
 425:	48 83 c4 70          	add    $0x70,%rsp
 429:	5b                   	pop    %rbx
 42a:	c3                   	retq   
 42b:	80 7c 24 50 00       	cmpb   $0x0,0x50(%rsp)
 430:	0f 85 f2 fc ff ff    	jne    128 <_Z5test1v+0x128>
 436:	80 7c 24 58 00       	cmpb   $0x0,0x58(%rsp)
 43b:	0f 84 7d fe ff ff    	je     2be <_Z5test1v+0x2be>
 441:	e9 e2 fc ff ff       	jmpq   128 <_Z5test1v+0x128>
 446:	3c 01                	cmp    $0x1,%al
 448:	0f 84 52 fe ff ff    	je     2a0 <_Z5test1v+0x2a0>
 44e:	e9 5b fe ff ff       	jmpq   2ae <_Z5test1v+0x2ae>
 453:	3c 01                	cmp    $0x1,%al
 455:	0f 84 73 ff ff ff    	je     3ce <_Z5test1v+0x3ce>
 45b:	e9 7c ff ff ff       	jmpq   3dc <_Z5test1v+0x3dc>
 460:	3c 01                	cmp    $0x1,%al
 462:	0f 84 19 ff ff ff    	je     381 <_Z5test1v+0x381>
 468:	e9 18 ff ff ff       	jmpq   385 <_Z5test1v+0x385>
 46d:	3c 01                	cmp    $0x1,%al
 46f:	0f 84 70 fd ff ff    	je     1e5 <_Z5test1v+0x1e5>
 475:	e9 6f fd ff ff       	jmpq   1e9 <_Z5test1v+0x1e9>
 47a:	48 8b 44 24 10       	mov    0x10(%rsp),%rax
 47f:	48 c7 44 24 10 00 00 	movq   $0x0,0x10(%rsp)
 486:	00 00 
 488:	48 89 44 24 40       	mov    %rax,0x40(%rsp)
 48d:	b8 03 00 00 00       	mov    $0x3,%eax
 492:	e9 57 fc ff ff       	jmpq   ee <_Z5test1v+0xee>
 497:	48 8b 4c 24 10       	mov    0x10(%rsp),%rcx
 49c:	48 8b 5c 24 18       	mov    0x18(%rsp),%rbx
 4a1:	b8 02 00 00 00       	mov    $0x2,%eax
 4a6:	48 89 4c 24 40       	mov    %rcx,0x40(%rsp)
 4ab:	48 89 5c 24 48       	mov    %rbx,0x48(%rsp)
 4b0:	e9 39 fc ff ff       	jmpq   ee <_Z5test1v+0xee>
 4b5:	88 44 24 50          	mov    %al,0x50(%rsp)
 4b9:	e9 53 fc ff ff       	jmpq   111 <_Z5test1v+0x111>
 4be:	48 8d 7c 24 40       	lea    0x40(%rsp),%rdi
 4c3:	e8 00 00 00 00       	callq  4c8 <_Z5test1v+0x4c8>
 4c8:	c6 44 24 50 00       	movb   $0x0,0x50(%rsp)
 4cd:	e9 d3 fd ff ff       	jmpq   2a5 <_Z5test1v+0x2a5>
 4d2:	48 8d 7c 24 10       	lea    0x10(%rsp),%rdi
 4d7:	e8 00 00 00 00       	callq  4dc <_Z5test1v+0x4dc>
 4dc:	c6 44 24 20 00       	movb   $0x0,0x20(%rsp)
 4e1:	e9 ed fe ff ff       	jmpq   3d3 <_Z5test1v+0x3d3>
 4e6:	3c 01                	cmp    $0x1,%al
 4e8:	0f 84 b2 fd ff ff    	je     2a0 <_Z5test1v+0x2a0>
 4ee:	e9 b7 fd ff ff       	jmpq   2aa <_Z5test1v+0x2aa>
 4f3:	3c 01                	cmp    $0x1,%al
 4f5:	0f 84 d3 fe ff ff    	je     3ce <_Z5test1v+0x3ce>
 4fb:	e9 d8 fe ff ff       	jmpq   3d8 <_Z5test1v+0x3d8>
 500:	48 89 df             	mov    %rbx,%rdi
 503:	e8 00 00 00 00       	callq  508 <_Z5test1v+0x508>
 508:	c6 43 10 00          	movb   $0x0,0x10(%rbx)
 50c:	e9 74 fe ff ff       	jmpq   385 <_Z5test1v+0x385>
 511:	48 89 df             	mov    %rbx,%rdi
 514:	e8 00 00 00 00       	callq  519 <_Z5test1v+0x519>
 519:	c6 43 10 00          	movb   $0x0,0x10(%rbx)
 51d:	e9 c7 fc ff ff       	jmpq   1e9 <_Z5test1v+0x1e9>
 522:	66 66 66 66 66 2e 0f 	data32 data32 data32 data32 nopw %cs:0x0(%rax,%rax,1)
 529:	1f 84 00 00 00 00 00 
