$VAR1 = {
          'ABI_COMPLIANCE_CHECKER_VERSION' => '2.2',
          'ABI_DUMP_VERSION' => '3.5',
          'Arch' => 'x86_64',
          'CompilerConstants' => {
                                   '_GNU_SOURCE' => '1',
                                   '_LP64' => '1',
                                   '__ATOMIC_ACQUIRE' => '2',
                                   '__ATOMIC_ACQ_REL' => '4',
                                   '__ATOMIC_CONSUME' => '1',
                                   '__ATOMIC_HLE_ACQUIRE' => '65536',
                                   '__ATOMIC_HLE_RELEASE' => '131072',
                                   '__ATOMIC_RELAXED' => '0',
                                   '__ATOMIC_RELEASE' => '3',
                                   '__ATOMIC_SEQ_CST' => '5',
                                   '__BIGGEST_ALIGNMENT__' => '16',
                                   '__BYTE_ORDER__' => '__ORDER_LITTLE_ENDIAN__',
                                   '__CHAR16_TYPE__' => 'short unsigned int',
                                   '__CHAR32_TYPE__' => 'unsigned int',
                                   '__CHAR_BIT__' => '8',
                                   '__DBL_DECIMAL_DIG__' => '17',
                                   '__DBL_DENORM_MIN__' => 'double(4.94065645841246544176568792868221372e-324L)',
                                   '__DBL_DIG__' => '15',
                                   '__DBL_EPSILON__' => 'double(2.22044604925031308084726333618164062e-16L)',
                                   '__DBL_HAS_DENORM__' => '1',
                                   '__DBL_HAS_INFINITY__' => '1',
                                   '__DBL_HAS_QUIET_NAN__' => '1',
                                   '__DBL_MANT_DIG__' => '53',
                                   '__DBL_MAX_10_EXP__' => '308',
                                   '__DBL_MAX_EXP__' => '1024',
                                   '__DBL_MAX__' => 'double(1.79769313486231570814527423731704357e+308L)',
                                   '__DBL_MIN_10_EXP__' => '(-307)',
                                   '__DBL_MIN_EXP__' => '(-1021)',
                                   '__DBL_MIN__' => 'double(2.22507385850720138309023271733240406e-308L)',
                                   '__DEC128_EPSILON__' => '1E-33DL',
                                   '__DEC128_MANT_DIG__' => '34',
                                   '__DEC128_MAX_EXP__' => '6145',
                                   '__DEC128_MAX__' => '9.999999999999999999999999999999999E6144DL',
                                   '__DEC128_MIN_EXP__' => '(-6142)',
                                   '__DEC128_MIN__' => '1E-6143DL',
                                   '__DEC128_SUBNORMAL_MIN__' => '0.000000000000000000000000000000001E-6143DL',
                                   '__DEC32_EPSILON__' => '1E-6DF',
                                   '__DEC32_MANT_DIG__' => '7',
                                   '__DEC32_MAX_EXP__' => '97',
                                   '__DEC32_MAX__' => '9.999999E96DF',
                                   '__DEC32_MIN_EXP__' => '(-94)',
                                   '__DEC32_MIN__' => '1E-95DF',
                                   '__DEC32_SUBNORMAL_MIN__' => '0.000001E-95DF',
                                   '__DEC64_EPSILON__' => '1E-15DD',
                                   '__DEC64_MANT_DIG__' => '16',
                                   '__DEC64_MAX_EXP__' => '385',
                                   '__DEC64_MAX__' => '9.999999999999999E384DD',
                                   '__DEC64_MIN_EXP__' => '(-382)',
                                   '__DEC64_MIN__' => '1E-383DD',
                                   '__DEC64_SUBNORMAL_MIN__' => '0.000000000000001E-383DD',
                                   '__DECIMAL_BID_FORMAT__' => '1',
                                   '__DECIMAL_DIG__' => '21',
                                   '__DEC_EVAL_METHOD__' => '2',
                                   '__DEPRECATED' => '1',
                                   '__ELF__' => '1',
                                   '__EXCEPTIONS' => '1',
                                   '__FINITE_MATH_ONLY__' => '0',
                                   '__FLOAT_WORD_ORDER__' => '__ORDER_LITTLE_ENDIAN__',
                                   '__FLT128_DECIMAL_DIG__' => '36',
                                   '__FLT128_DENORM_MIN__' => '6.47517511943802511092443895822764655e-4966F128',
                                   '__FLT128_DIG__' => '33',
                                   '__FLT128_EPSILON__' => '1.92592994438723585305597794258492732e-34F128',
                                   '__FLT128_HAS_DENORM__' => '1',
                                   '__FLT128_HAS_INFINITY__' => '1',
                                   '__FLT128_HAS_QUIET_NAN__' => '1',
                                   '__FLT128_MANT_DIG__' => '113',
                                   '__FLT128_MAX_10_EXP__' => '4932',
                                   '__FLT128_MAX_EXP__' => '16384',
                                   '__FLT128_MAX__' => '1.18973149535723176508575932662800702e+4932F128',
                                   '__FLT128_MIN_10_EXP__' => '(-4931)',
                                   '__FLT128_MIN_EXP__' => '(-16381)',
                                   '__FLT128_MIN__' => '3.36210314311209350626267781732175260e-4932F128',
                                   '__FLT32X_DECIMAL_DIG__' => '17',
                                   '__FLT32X_DENORM_MIN__' => '4.94065645841246544176568792868221372e-324F32x',
                                   '__FLT32X_DIG__' => '15',
                                   '__FLT32X_EPSILON__' => '2.22044604925031308084726333618164062e-16F32x',
                                   '__FLT32X_HAS_DENORM__' => '1',
                                   '__FLT32X_HAS_INFINITY__' => '1',
                                   '__FLT32X_HAS_QUIET_NAN__' => '1',
                                   '__FLT32X_MANT_DIG__' => '53',
                                   '__FLT32X_MAX_10_EXP__' => '308',
                                   '__FLT32X_MAX_EXP__' => '1024',
                                   '__FLT32X_MAX__' => '1.79769313486231570814527423731704357e+308F32x',
                                   '__FLT32X_MIN_10_EXP__' => '(-307)',
                                   '__FLT32X_MIN_EXP__' => '(-1021)',
                                   '__FLT32X_MIN__' => '2.22507385850720138309023271733240406e-308F32x',
                                   '__FLT32_DECIMAL_DIG__' => '9',
                                   '__FLT32_DENORM_MIN__' => '1.40129846432481707092372958328991613e-45F32',
                                   '__FLT32_DIG__' => '6',
                                   '__FLT32_EPSILON__' => '1.19209289550781250000000000000000000e-7F32',
                                   '__FLT32_HAS_DENORM__' => '1',
                                   '__FLT32_HAS_INFINITY__' => '1',
                                   '__FLT32_HAS_QUIET_NAN__' => '1',
                                   '__FLT32_MANT_DIG__' => '24',
                                   '__FLT32_MAX_10_EXP__' => '38',
                                   '__FLT32_MAX_EXP__' => '128',
                                   '__FLT32_MAX__' => '3.40282346638528859811704183484516925e+38F32',
                                   '__FLT32_MIN_10_EXP__' => '(-37)',
                                   '__FLT32_MIN_EXP__' => '(-125)',
                                   '__FLT32_MIN__' => '1.17549435082228750796873653722224568e-38F32',
                                   '__FLT64X_DECIMAL_DIG__' => '21',
                                   '__FLT64X_DENORM_MIN__' => '3.64519953188247460252840593361941982e-4951F64x',
                                   '__FLT64X_DIG__' => '18',
                                   '__FLT64X_EPSILON__' => '1.08420217248550443400745280086994171e-19F64x',
                                   '__FLT64X_HAS_DENORM__' => '1',
                                   '__FLT64X_HAS_INFINITY__' => '1',
                                   '__FLT64X_HAS_QUIET_NAN__' => '1',
                                   '__FLT64X_MANT_DIG__' => '64',
                                   '__FLT64X_MAX_10_EXP__' => '4932',
                                   '__FLT64X_MAX_EXP__' => '16384',
                                   '__FLT64X_MAX__' => '1.18973149535723176502126385303097021e+4932F64x',
                                   '__FLT64X_MIN_10_EXP__' => '(-4931)',
                                   '__FLT64X_MIN_EXP__' => '(-16381)',
                                   '__FLT64X_MIN__' => '3.36210314311209350626267781732175260e-4932F64x',
                                   '__FLT64_DECIMAL_DIG__' => '17',
                                   '__FLT64_DENORM_MIN__' => '4.94065645841246544176568792868221372e-324F64',
                                   '__FLT64_DIG__' => '15',
                                   '__FLT64_EPSILON__' => '2.22044604925031308084726333618164062e-16F64',
                                   '__FLT64_HAS_DENORM__' => '1',
                                   '__FLT64_HAS_INFINITY__' => '1',
                                   '__FLT64_HAS_QUIET_NAN__' => '1',
                                   '__FLT64_MANT_DIG__' => '53',
                                   '__FLT64_MAX_10_EXP__' => '308',
                                   '__FLT64_MAX_EXP__' => '1024',
                                   '__FLT64_MAX__' => '1.79769313486231570814527423731704357e+308F64',
                                   '__FLT64_MIN_10_EXP__' => '(-307)',
                                   '__FLT64_MIN_EXP__' => '(-1021)',
                                   '__FLT64_MIN__' => '2.22507385850720138309023271733240406e-308F64',
                                   '__FLT_DECIMAL_DIG__' => '9',
                                   '__FLT_DENORM_MIN__' => '1.40129846432481707092372958328991613e-45F',
                                   '__FLT_DIG__' => '6',
                                   '__FLT_EPSILON__' => '1.19209289550781250000000000000000000e-7F',
                                   '__FLT_EVAL_METHOD_TS_18661_3__' => '0',
                                   '__FLT_EVAL_METHOD__' => '0',
                                   '__FLT_HAS_DENORM__' => '1',
                                   '__FLT_HAS_INFINITY__' => '1',
                                   '__FLT_HAS_QUIET_NAN__' => '1',
                                   '__FLT_MANT_DIG__' => '24',
                                   '__FLT_MAX_10_EXP__' => '38',
                                   '__FLT_MAX_EXP__' => '128',
                                   '__FLT_MAX__' => '3.40282346638528859811704183484516925e+38F',
                                   '__FLT_MIN_10_EXP__' => '(-37)',
                                   '__FLT_MIN_EXP__' => '(-125)',
                                   '__FLT_MIN__' => '1.17549435082228750796873653722224568e-38F',
                                   '__FLT_RADIX__' => '2',
                                   '__FXSR__' => '1',
                                   '__GCC_ASM_FLAG_OUTPUTS__' => '1',
                                   '__GCC_ATOMIC_BOOL_LOCK_FREE' => '2',
                                   '__GCC_ATOMIC_CHAR16_T_LOCK_FREE' => '2',
                                   '__GCC_ATOMIC_CHAR32_T_LOCK_FREE' => '2',
                                   '__GCC_ATOMIC_CHAR_LOCK_FREE' => '2',
                                   '__GCC_ATOMIC_INT_LOCK_FREE' => '2',
                                   '__GCC_ATOMIC_LLONG_LOCK_FREE' => '2',
                                   '__GCC_ATOMIC_LONG_LOCK_FREE' => '2',
                                   '__GCC_ATOMIC_POINTER_LOCK_FREE' => '2',
                                   '__GCC_ATOMIC_SHORT_LOCK_FREE' => '2',
                                   '__GCC_ATOMIC_TEST_AND_SET_TRUEVAL' => '1',
                                   '__GCC_ATOMIC_WCHAR_T_LOCK_FREE' => '2',
                                   '__GCC_HAVE_DWARF2_CFI_ASM' => '1',
                                   '__GCC_HAVE_SYNC_COMPARE_AND_SWAP_1' => '1',
                                   '__GCC_HAVE_SYNC_COMPARE_AND_SWAP_2' => '1',
                                   '__GCC_HAVE_SYNC_COMPARE_AND_SWAP_4' => '1',
                                   '__GCC_HAVE_SYNC_COMPARE_AND_SWAP_8' => '1',
                                   '__GCC_IEC_559' => '2',
                                   '__GCC_IEC_559_COMPLEX' => '2',
                                   '__GLIBCXX_BITSIZE_INT_N_0' => '128',
                                   '__GLIBCXX_TYPE_INT_N_0' => '__int128',
                                   '__GNUC_MINOR__' => '5',
                                   '__GNUC_PATCHLEVEL__' => '0',
                                   '__GNUC_STDC_INLINE__' => '1',
                                   '__GNUC__' => '7',
                                   '__GNUG__' => '7',
                                   '__GXX_ABI_VERSION' => '1011',
                                   '__GXX_EXPERIMENTAL_CXX0X__' => '1',
                                   '__GXX_RTTI' => '1',
                                   '__GXX_WEAK__' => '1',
                                   '__INT16_MAX__' => '0x7fff',
                                   '__INT16_TYPE__' => 'short int',
                                   '__INT32_MAX__' => '0x7fffffff',
                                   '__INT32_TYPE__' => 'int',
                                   '__INT64_MAX__' => '0x7fffffffffffffffL',
                                   '__INT64_TYPE__' => 'long int',
                                   '__INT8_MAX__' => '0x7f',
                                   '__INT8_TYPE__' => 'signed char',
                                   '__INTMAX_MAX__' => '0x7fffffffffffffffL',
                                   '__INTMAX_TYPE__' => 'long int',
                                   '__INTMAX_WIDTH__' => '64',
                                   '__INTPTR_MAX__' => '0x7fffffffffffffffL',
                                   '__INTPTR_TYPE__' => 'long int',
                                   '__INTPTR_WIDTH__' => '64',
                                   '__INT_FAST16_MAX__' => '0x7fffffffffffffffL',
                                   '__INT_FAST16_TYPE__' => 'long int',
                                   '__INT_FAST16_WIDTH__' => '64',
                                   '__INT_FAST32_MAX__' => '0x7fffffffffffffffL',
                                   '__INT_FAST32_TYPE__' => 'long int',
                                   '__INT_FAST32_WIDTH__' => '64',
                                   '__INT_FAST64_MAX__' => '0x7fffffffffffffffL',
                                   '__INT_FAST64_TYPE__' => 'long int',
                                   '__INT_FAST64_WIDTH__' => '64',
                                   '__INT_FAST8_MAX__' => '0x7f',
                                   '__INT_FAST8_TYPE__' => 'signed char',
                                   '__INT_FAST8_WIDTH__' => '8',
                                   '__INT_LEAST16_MAX__' => '0x7fff',
                                   '__INT_LEAST16_TYPE__' => 'short int',
                                   '__INT_LEAST16_WIDTH__' => '16',
                                   '__INT_LEAST32_MAX__' => '0x7fffffff',
                                   '__INT_LEAST32_TYPE__' => 'int',
                                   '__INT_LEAST32_WIDTH__' => '32',
                                   '__INT_LEAST64_MAX__' => '0x7fffffffffffffffL',
                                   '__INT_LEAST64_TYPE__' => 'long int',
                                   '__INT_LEAST64_WIDTH__' => '64',
                                   '__INT_LEAST8_MAX__' => '0x7f',
                                   '__INT_LEAST8_TYPE__' => 'signed char',
                                   '__INT_LEAST8_WIDTH__' => '8',
                                   '__INT_MAX__' => '0x7fffffff',
                                   '__INT_WIDTH__' => '32',
                                   '__LDBL_DECIMAL_DIG__' => '21',
                                   '__LDBL_DENORM_MIN__' => '3.64519953188247460252840593361941982e-4951L',
                                   '__LDBL_DIG__' => '18',
                                   '__LDBL_EPSILON__' => '1.08420217248550443400745280086994171e-19L',
                                   '__LDBL_HAS_DENORM__' => '1',
                                   '__LDBL_HAS_INFINITY__' => '1',
                                   '__LDBL_HAS_QUIET_NAN__' => '1',
                                   '__LDBL_MANT_DIG__' => '64',
                                   '__LDBL_MAX_10_EXP__' => '4932',
                                   '__LDBL_MAX_EXP__' => '16384',
                                   '__LDBL_MAX__' => '1.18973149535723176502126385303097021e+4932L',
                                   '__LDBL_MIN_10_EXP__' => '(-4931)',
                                   '__LDBL_MIN_EXP__' => '(-16381)',
                                   '__LDBL_MIN__' => '3.36210314311209350626267781732175260e-4932L',
                                   '__LONG_LONG_MAX__' => '0x7fffffffffffffffLL',
                                   '__LONG_LONG_WIDTH__' => '64',
                                   '__LONG_MAX__' => '0x7fffffffffffffffL',
                                   '__LONG_WIDTH__' => '64',
                                   '__LP64__' => '1',
                                   '__MMX__' => '1',
                                   '__NO_INLINE__' => '1',
                                   '__ORDER_BIG_ENDIAN__' => '4321',
                                   '__ORDER_LITTLE_ENDIAN__' => '1234',
                                   '__ORDER_PDP_ENDIAN__' => '3412',
                                   '__PIC__' => '2',
                                   '__PIE__' => '2',
                                   '__PRAGMA_REDEFINE_EXTNAME' => '1',
                                   '__PTRDIFF_MAX__' => '0x7fffffffffffffffL',
                                   '__PTRDIFF_TYPE__' => 'long int',
                                   '__PTRDIFF_WIDTH__' => '64',
                                   '__SCHAR_MAX__' => '0x7f',
                                   '__SCHAR_WIDTH__' => '8',
                                   '__SEG_FS' => '1',
                                   '__SEG_GS' => '1',
                                   '__SHRT_MAX__' => '0x7fff',
                                   '__SHRT_WIDTH__' => '16',
                                   '__SIG_ATOMIC_MAX__' => '0x7fffffff',
                                   '__SIG_ATOMIC_MIN__' => '(-__SIG_ATOMIC_MAX__ - 1)',
                                   '__SIG_ATOMIC_TYPE__' => 'int',
                                   '__SIG_ATOMIC_WIDTH__' => '32',
                                   '__SIZEOF_DOUBLE__' => '8',
                                   '__SIZEOF_FLOAT128__' => '16',
                                   '__SIZEOF_FLOAT80__' => '16',
                                   '__SIZEOF_FLOAT__' => '4',
                                   '__SIZEOF_INT128__' => '16',
                                   '__SIZEOF_INT__' => '4',
                                   '__SIZEOF_LONG_DOUBLE__' => '16',
                                   '__SIZEOF_LONG_LONG__' => '8',
                                   '__SIZEOF_LONG__' => '8',
                                   '__SIZEOF_POINTER__' => '8',
                                   '__SIZEOF_PTRDIFF_T__' => '8',
                                   '__SIZEOF_SHORT__' => '2',
                                   '__SIZEOF_SIZE_T__' => '8',
                                   '__SIZEOF_WCHAR_T__' => '4',
                                   '__SIZEOF_WINT_T__' => '4',
                                   '__SIZE_MAX__' => '0xffffffffffffffffUL',
                                   '__SIZE_TYPE__' => 'long unsigned int',
                                   '__SIZE_WIDTH__' => '64',
                                   '__SSE2_MATH__' => '1',
                                   '__SSE2__' => '1',
                                   '__SSE_MATH__' => '1',
                                   '__SSE__' => '1',
                                   '__SSP_STRONG__' => '3',
                                   '__STDC_HOSTED__' => '1',
                                   '__STDC_UTF_16__' => '1',
                                   '__STDC_UTF_32__' => '1',
                                   '__STDC__' => '1',
                                   '__UINT16_MAX__' => '0xffff',
                                   '__UINT16_TYPE__' => 'short unsigned int',
                                   '__UINT32_MAX__' => '0xffffffffU',
                                   '__UINT32_TYPE__' => 'unsigned int',
                                   '__UINT64_MAX__' => '0xffffffffffffffffUL',
                                   '__UINT64_TYPE__' => 'long unsigned int',
                                   '__UINT8_MAX__' => '0xff',
                                   '__UINT8_TYPE__' => 'unsigned char',
                                   '__UINTMAX_MAX__' => '0xffffffffffffffffUL',
                                   '__UINTMAX_TYPE__' => 'long unsigned int',
                                   '__UINTPTR_MAX__' => '0xffffffffffffffffUL',
                                   '__UINTPTR_TYPE__' => 'long unsigned int',
                                   '__UINT_FAST16_MAX__' => '0xffffffffffffffffUL',
                                   '__UINT_FAST16_TYPE__' => 'long unsigned int',
                                   '__UINT_FAST32_MAX__' => '0xffffffffffffffffUL',
                                   '__UINT_FAST32_TYPE__' => 'long unsigned int',
                                   '__UINT_FAST64_MAX__' => '0xffffffffffffffffUL',
                                   '__UINT_FAST64_TYPE__' => 'long unsigned int',
                                   '__UINT_FAST8_MAX__' => '0xff',
                                   '__UINT_FAST8_TYPE__' => 'unsigned char',
                                   '__UINT_LEAST16_MAX__' => '0xffff',
                                   '__UINT_LEAST16_TYPE__' => 'short unsigned int',
                                   '__UINT_LEAST32_MAX__' => '0xffffffffU',
                                   '__UINT_LEAST32_TYPE__' => 'unsigned int',
                                   '__UINT_LEAST64_MAX__' => '0xffffffffffffffffUL',
                                   '__UINT_LEAST64_TYPE__' => 'long unsigned int',
                                   '__UINT_LEAST8_MAX__' => '0xff',
                                   '__UINT_LEAST8_TYPE__' => 'unsigned char',
                                   '__VERSION__' => '"7.5.0"',
                                   '__WCHAR_MAX__' => '0x7fffffff',
                                   '__WCHAR_MIN__' => '(-__WCHAR_MAX__ - 1)',
                                   '__WCHAR_TYPE__' => 'int',
                                   '__WCHAR_WIDTH__' => '32',
                                   '__WINT_MAX__' => '0xffffffffU',
                                   '__WINT_MIN__' => '0U',
                                   '__WINT_TYPE__' => 'unsigned int',
                                   '__WINT_WIDTH__' => '32',
                                   '__amd64' => '1',
                                   '__amd64__' => '1',
                                   '__code_model_small__' => '1',
                                   '__cplusplus' => '201402L',
                                   '__cpp_aggregate_nsdmi' => '201304',
                                   '__cpp_alias_templates' => '200704',
                                   '__cpp_attributes' => '200809',
                                   '__cpp_binary_literals' => '201304',
                                   '__cpp_constexpr' => '201304',
                                   '__cpp_decltype' => '200707',
                                   '__cpp_decltype_auto' => '201304',
                                   '__cpp_delegating_constructors' => '200604',
                                   '__cpp_digit_separators' => '201309',
                                   '__cpp_exceptions' => '199711',
                                   '__cpp_generic_lambdas' => '201304',
                                   '__cpp_hex_float' => '201603',
                                   '__cpp_inheriting_constructors' => '201511',
                                   '__cpp_init_captures' => '201304',
                                   '__cpp_initializer_lists' => '200806',
                                   '__cpp_lambdas' => '200907',
                                   '__cpp_nsdmi' => '200809',
                                   '__cpp_range_based_for' => '200907',
                                   '__cpp_raw_strings' => '200710',
                                   '__cpp_ref_qualifiers' => '200710',
                                   '__cpp_return_type_deduction' => '201304',
                                   '__cpp_rtti' => '199711',
                                   '__cpp_runtime_arrays' => '198712',
                                   '__cpp_rvalue_reference' => '200610',
                                   '__cpp_rvalue_references' => '200610',
                                   '__cpp_sized_deallocation' => '201309',
                                   '__cpp_static_assert' => '200410',
                                   '__cpp_threadsafe_static_init' => '200806',
                                   '__cpp_unicode_characters' => '200704',
                                   '__cpp_unicode_literals' => '200710',
                                   '__cpp_user_defined_literals' => '200809',
                                   '__cpp_variable_templates' => '201304',
                                   '__cpp_variadic_templates' => '200704',
                                   '__gnu_linux__' => '1',
                                   '__k8' => '1',
                                   '__k8__' => '1',
                                   '__linux' => '1',
                                   '__linux__' => '1',
                                   '__pic__' => '2',
                                   '__pie__' => '2',
                                   '__unix' => '1',
                                   '__unix__' => '1',
                                   '__x86_64' => '1',
                                   '__x86_64__' => '1',
                                   'linux' => '1',
                                   'unix' => '1'
                                 },
          'Constants' => {
                           'OUTCOME_ENABLE_LEGACY_SUPPORT_FOR' => {
                                                                    'Header' => 'abi.hpp',
                                                                    'Value' => '220'
                                                                  },
                           'OUTCOME_FORCEINLINE' => {
                                                      'Header' => 'abi.hpp',
                                                      'Value' => 'QUICKCPPLIB_FORCEINLINE'
                                                    },
                           'OUTCOME_NODISCARD' => {
                                                    'Header' => 'abi.hpp',
                                                    'Value' => 'QUICKCPPLIB_NODISCARD'
                                                  },
                           'OUTCOME_SYMBOL_VISIBLE' => {
                                                         'Header' => 'abi.hpp',
                                                         'Value' => 'QUICKCPPLIB_SYMBOL_VISIBLE'
                                                       },
                           'OUTCOME_THREAD_LOCAL' => {
                                                       'Header' => 'abi.hpp',
                                                       'Value' => 'QUICKCPPLIB_THREAD_LOCAL'
                                                     },
                           'OUTCOME_USE_CONSTEXPR_ENUM_STATUS' => {
                                                                    'Header' => 'abi.hpp',
                                                                    'Value' => '0'
                                                                  },
                           'OUTCOME_USE_STD_IN_PLACE_TYPE' => {
                                                                'Header' => 'abi.hpp',
                                                                'Value' => '0'
                                                              },
                           'OUTCOME_USE_STD_IS_NOTHROW_SWAPPABLE' => {
                                                                       'Header' => 'abi.hpp',
                                                                       'Value' => '0'
                                                                     },
                           'OUTCOME_V2' => {
                                             'Header' => 'abi.hpp',
                                             'Value' => '(QUICKCPPLIB_BIND_NAMESPACE_VERSION(outcome_v2))'
                                           },
                           'OUTCOME_V2_CXX_MODULE_NAME' => {
                                                             'Header' => 'abi.hpp',
                                                             'Value' => 'QUICKCPPLIB_BIND_NAMESPACE((QUICKCPPLIB_BIND_NAMESPACE_VERSION(outcome_v2)))'
                                                           },
                           'OUTCOME_V2_NAMESPACE' => {
                                                       'Header' => 'abi.hpp',
                                                       'Value' => 'QUICKCPPLIB_BIND_NAMESPACE(OUTCOME_V2)'
                                                     },
                           'OUTCOME_V2_NAMESPACE_BEGIN' => {
                                                             'Header' => 'abi.hpp',
                                                             'Value' => 'QUICKCPPLIB_BIND_NAMESPACE_BEGIN(OUTCOME_V2)'
                                                           },
                           'OUTCOME_V2_NAMESPACE_END' => {
                                                           'Header' => 'abi.hpp',
                                                           'Value' => 'QUICKCPPLIB_BIND_NAMESPACE_END(OUTCOME_V2)'
                                                         },
                           'OUTCOME_V2_NAMESPACE_EXPORT_BEGIN' => {
                                                                    'Header' => 'abi.hpp',
                                                                    'Value' => 'QUICKCPPLIB_BIND_NAMESPACE_BEGIN(OUTCOME_V2)'
                                                                  },
                           'OUTCOME_VERSION_MAJOR' => {
                                                        'Header' => 'abi.hpp',
                                                        'Value' => '2'
                                                      },
                           'OUTCOME_VERSION_MINOR' => {
                                                        'Header' => 'abi.hpp',
                                                        'Value' => '2'
                                                      },
                           'OUTCOME_VERSION_PATCH' => {
                                                        'Header' => 'abi.hpp',
                                                        'Value' => '0'
                                                      },
                           'OUTCOME_VERSION_REVISION' => {
                                                           'Header' => 'abi.hpp',
                                                           'Value' => '0'
                                                         },
                           'QUICKCPPLIB_FORCEINLINE' => {
                                                          'Header' => 'abi.hpp',
                                                          'Value' => '__attribute__((always_inline))'
                                                        },
                           'QUICKCPPLIB_GCC' => {
                                                  'Header' => 'abi.hpp',
                                                  'Value' => '(__GNUC__ * 10000 + __GNUC_MINOR__ * 100 + __GNUC_PATCHLEVEL__)'
                                                },
                           'QUICKCPPLIB_IN_THREAD_SANITIZER' => {
                                                                  'Header' => 'abi.hpp',
                                                                  'Value' => '0'
                                                                },
                           'QUICKCPPLIB_NAMESPACE' => {
                                                        'Header' => 'abi.hpp',
                                                        'Value' => 'quickcpplib'
                                                      },
                           'QUICKCPPLIB_NAMESPACE_BEGIN' => {
                                                              'Header' => 'abi.hpp',
                                                              'Value' => 'namespace quickcpplib {'
                                                            },
                           'QUICKCPPLIB_NAMESPACE_END' => {
                                                            'Header' => 'abi.hpp',
                                                            'Value' => '}'
                                                          },
                           'QUICKCPPLIB_NODISCARD' => {
                                                        'Header' => 'abi.hpp',
                                                        'Value' => '[[nodiscard]]'
                                                      },
                           'QUICKCPPLIB_NOINLINE' => {
                                                       'Header' => 'abi.hpp',
                                                       'Value' => '__attribute__((noinline))'
                                                     },
                           'QUICKCPPLIB_NORETURN' => {
                                                       'Header' => 'abi.hpp',
                                                       'Value' => '[[noreturn]]'
                                                     },
                           'QUICKCPPLIB_RUNNING_ON_VALGRIND' => {
                                                                  'Header' => 'abi.hpp',
                                                                  'Value' => '(0)'
                                                                },
                           'QUICKCPPLIB_SMT_PAUSE' => {
                                                        'Header' => 'abi.hpp',
                                                        'Value' => '__asm__ __volatile__("rep; nop" : : : "memory");'
                                                      },
                           'QUICKCPPLIB_SYMBOL_EXPORT' => {
                                                            'Header' => 'abi.hpp',
                                                            'Value' => '__attribute__((visibility("default")))'
                                                          },
                           'QUICKCPPLIB_SYMBOL_VISIBLE' => {
                                                             'Header' => 'abi.hpp',
                                                             'Value' => '__attribute__((visibility("default")))'
                                                           },
                           'QUICKCPPLIB_THREAD_LOCAL' => {
                                                           'Header' => 'abi.hpp',
                                                           'Value' => 'thread_local'
                                                         },
                           'QUICKCPPLIB_THREAD_LOCAL_IS_CXX11' => {
                                                                    'Header' => 'abi.hpp',
                                                                    'Value' => '1'
                                                                  },
                           '__cpp_explicit_conversion' => {
                                                            'Header' => 'abi.hpp',
                                                            'Value' => '190000'
                                                          }
                         },
          'GccVersion' => '7',
          'Headers' => {
                         'abi.hpp' => 1
                       },
          'Language' => 'C++',
          'LibraryName' => 'Outcome',
          'LibraryVersion' => '2.2-gcc7-cxx14',
          'NameSpaces' => {
                            '__cxxabiv1' => 1,
                            '__gnu_cxx' => 1,
                            'outcome_v2' => 1,
                            'outcome_v2::concepts' => 1,
                            'outcome_v2::concepts::detail' => 1,
                            'outcome_v2::convert' => 1,
                            'outcome_v2::detail' => 1,
                            'outcome_v2::detail::adl' => 1,
                            'outcome_v2::outcome_v2' => 1,
                            'outcome_v2::outcome_v2::concepts' => 1,
                            'outcome_v2::outcome_v2::concepts::detail' => 1,
                            'outcome_v2::outcome_v2::convert' => 1,
                            'outcome_v2::outcome_v2::convert::detail' => 1,
                            'outcome_v2::outcome_v2::detail' => 1,
                            'outcome_v2::outcome_v2::hooks' => 1,
                            'outcome_v2::outcome_v2::outcome_v2' => 1,
                            'outcome_v2::outcome_v2::outcome_v2::concepts' => 1,
                            'outcome_v2::outcome_v2::outcome_v2::concepts::detail' => 1,
                            'outcome_v2::outcome_v2::outcome_v2::detail' => 1,
                            'outcome_v2::outcome_v2::outcome_v2::detail::adl' => 1,
                            'outcome_v2::outcome_v2::outcome_v2::hooks' => 1,
                            'outcome_v2::outcome_v2::outcome_v2::policy' => 1,
                            'outcome_v2::outcome_v2::outcome_v2::policy::detail' => 1,
                            'outcome_v2::outcome_v2::policy' => 1,
                            'outcome_v2::policy' => 1,
                            'outcome_v2::trait' => 1,
                            'outcome_v2::trait::detail' => 1,
                            'outcome_v2::trait::detail::detector_impl' => 1,
                            'std' => 1,
                            'std::__cxx11' => 1,
                            'std::__exception_ptr' => 1,
                            'std::__swappable_details' => 1,
                            'std::__swappable_with_details' => 1
                          },
          'SymbolInfo' => {
                            '10073' => {
                                         'Class' => '9470',
                                         'Data' => 1,
                                         'Header' => 'abi.hpp',
                                         'Line' => '1043',
                                         'MnglName' => '_ZN10outcome_v26detail28_is_explicitly_constructibleIllE5valueE',
                                         'Return' => '107',
                                         'ShortName' => 'value',
                                         'Value' => '-1'
                                       },
                            '10085' => {
                                         'Class' => '9488',
                                         'Data' => 1,
                                         'Header' => 'abi.hpp',
                                         'Line' => '1056',
                                         'MnglName' => '_ZN10outcome_v26detail28_is_implicitly_constructibleIlRKN10outcome_v213basic_outcomeIildNS_6policy10all_narrowEEEE5valueE',
                                         'Return' => '107',
                                         'ShortName' => 'value',
                                         'Value' => 'false'
                                       },
                            '10091' => {
                                         'Data' => 1,
                                         'Header' => 'abi.hpp',
                                         'Line' => '1066',
                                         'MnglName' => '_ZN10outcome_v26detailL27is_implicitly_constructibleE',
                                         'NameSpace' => 'outcome_v2::detail',
                                         'Return' => '107',
                                         'ShortName' => 'is_implicitly_constructible',
                                         'Value' => '-1'
                                       },
                            '1011' => {
                                        'Data' => 1,
                                        'Header' => 'abi.hpp',
                                        'Line' => '4888',
                                        'MnglName' => '_ZN10outcome_v28conceptsL13basic_outcomeE',
                                        'NameSpace' => 'outcome_v2::concepts',
                                        'Return' => '107',
                                        'ShortName' => 'basic_outcome'
                                      },
                            '10115' => {
                                         'Data' => 1,
                                         'Header' => 'abi.hpp',
                                         'Line' => '3251',
                                         'MnglName' => '_ZN10outcome_v28concepts6detailL13value_or_noneE',
                                         'NameSpace' => 'outcome_v2::concepts::detail',
                                         'Return' => '107',
                                         'ShortName' => 'value_or_none'
                                       },
                            '10119' => {
                                         'Data' => 1,
                                         'Header' => 'abi.hpp',
                                         'Line' => '3254',
                                         'MnglName' => '_ZN10outcome_v28concepts6detailL14value_or_errorE',
                                         'NameSpace' => 'outcome_v2::concepts::detail',
                                         'Return' => '107',
                                         'ShortName' => 'value_or_error',
                                         'Value' => '-1'
                                       },
                            '10137' => {
                                         'Data' => 1,
                                         'Header' => 'abi.hpp',
                                         'Line' => '4071',
                                         'MnglName' => '_ZN10outcome_v28concepts6detailL12basic_resultE',
                                         'NameSpace' => 'outcome_v2::concepts::detail',
                                         'Return' => '107',
                                         'ShortName' => 'basic_result',
                                         'Value' => '-1'
                                       },
                            '10157' => {
                                         'Class' => '5236',
                                         'Destructor' => 'D1',
                                         'Header' => 'exception.h',
                                         'Line' => '64',
                                         'MnglName' => '_ZNSt9exceptionD1Ev',
                                         'ShortName' => 'exception',
                                         'Throw' => 1,
                                         'Virt' => 1
                                       },
                            '10162' => {
                                         'Class' => '4778',
                                         'Destructor' => 'D0',
                                         'Header' => 'new',
                                         'Line' => '61',
                                         'MnglName' => '_ZNSt9bad_allocD0Ev',
                                         'ShortName' => 'bad_alloc',
                                         'Throw' => 1,
                                         'Virt' => 1
                                       },
                            '10423' => {
                                         'Class' => '5981',
                                         'Data' => 1,
                                         'Header' => 'abi.hpp',
                                         'Line' => '3995',
                                         'MnglName' => '_ZN10outcome_v26detail17result_predicatesIE47enable_make_exception_ptr_compatible_conversionE',
                                         'Return' => '107',
                                         'ShortName' => 'enable_make_exception_ptr_compatible_conversion'
                                       },
                            '10428' => {
                                         'Class' => '6502',
                                         'Data' => 1,
                                         'Header' => 'abi.hpp',
                                         'Line' => '3986',
                                         'MnglName' => '_ZN10outcome_v26detail17result_predicatesIilE44enable_make_error_code_compatible_conversionE',
                                         'Return' => '107',
                                         'ShortName' => 'enable_make_error_code_compatible_conversion',
                                         'Value' => 'false'
                                       },
                            '10451' => {
                                         'Class' => '6502',
                                         'Data' => 1,
                                         'Header' => 'abi.hpp',
                                         'Line' => '3960',
                                         'MnglName' => '_ZN10outcome_v26detail17result_predicatesIilE35enable_error_converting_constructorE',
                                         'Return' => '107',
                                         'ShortName' => 'enable_error_converting_constructor',
                                         'Value' => 'false'
                                       },
                            '10501' => {
                                         'Class' => '6502',
                                         'Data' => 1,
                                         'Header' => 'abi.hpp',
                                         'Line' => '3986',
                                         'MnglName' => '_ZN10outcome_v26detail17result_predicatesIilE44enable_make_error_code_compatible_conversionE',
                                         'Return' => '107',
                                         'ShortName' => 'enable_make_error_code_compatible_conversion'
                                       },
                            '10524' => {
                                         'Class' => '2754',
                                         'Constructor' => 'C2',
                                         'Header' => 'abi.hpp',
                                         'Line' => '2259',
                                         'MnglName' => '_ZN10outcome_v26detail21value_storage_trivialIilEC2ENS0_20status_bitfield_typeE',
                                         'Param' => {
                                                      '0' => {
                                                               'algn' => '8',
                                                               'name' => 'this',
                                                               'type' => '3760'
                                                             },
                                                      '1' => {
                                                               'algn' => '2',
                                                               'name' => 'status',
                                                               'type' => '3407'
                                                             }
                                                    },
                                         'ShortName' => 'value_storage_trivial'
                                       },
                            '10527' => {
                                         'Artificial' => 1,
                                         'Class' => '3764',
                                         'Constructor' => 'C2',
                                         'Header' => 'abi.hpp',
                                         'Line' => '1006',
                                         'MnglName' => '_ZN10outcome_v26detail10empty_typeC2Ev',
                                         'Param' => {
                                                      '0' => {
                                                               'algn' => '8',
                                                               'name' => 'this',
                                                               'type' => '5032'
                                                             }
                                                    },
                                         'ShortName' => 'empty_type',
                                         'Throw' => 1
                                       },
                            '10535' => {
                                         'Class' => '3407',
                                         'Constructor' => 'C2',
                                         'Header' => 'abi.hpp',
                                         'Line' => '2142',
                                         'MnglName' => '_ZN10outcome_v26detail20status_bitfield_typeC2ERKS1_',
                                         'Param' => {
                                                      '0' => {
                                                               'algn' => '8',
                                                               'name' => 'this',
                                                               'type' => '4592'
                                                             },
                                                      '1' => {
                                                               'algn' => '8',
                                                               'name' => 'p1',
                                                               'type' => '11726'
                                                             }
                                                    },
                                         'ShortName' => 'status_bitfield_type',
                                         'Throw' => 1
                                       },
                            '10565' => {
                                         'Class' => '1399',
                                         'Header' => 'abi.hpp',
                                         'Line' => '3406',
                                         'MnglName' => '_ZN10outcome_v26detail28basic_result_error_observersIN10outcome_v26detail28basic_result_value_observersINS0_20basic_result_storageIilNS_6policy10all_narrowEEEiS5_EElS5_E5errorEv',
                                         'Param' => {
                                                      '0' => {
                                                               'algn' => '8',
                                                               'name' => 'this',
                                                               'type' => '2215'
                                                             }
                                                    },
                                         'Return' => '8163',
                                         'ShortName' => 'error',
                                         'Throw' => 1
                                       },
                            '10597' => {
                                         'Class' => '1188',
                                         'Constructor' => 'C2',
                                         'Header' => 'abi.hpp',
                                         'Line' => '4252',
                                         'MnglName' => '_ZN10outcome_v212basic_resultIilNS_6policy10all_narrowEEC2ERNS0_IilS2_E34implicit_constructors_disabled_tagE',
                                         'Param' => {
                                                      '0' => {
                                                               'algn' => '8',
                                                               'name' => 'this',
                                                               'type' => '2001'
                                                             },
                                                      '1' => {
                                                               'algn' => '8',
                                                               'name' => 'p1',
                                                               'type' => '2842'
                                                             },
                                                      '2' => {
                                                               'algn' => '1',
                                                               'name' => 'p2',
                                                               'type' => '2802'
                                                             }
                                                    },
                                         'ShortName' => 'basic_result'
                                       },
                            '10688' => {
                                         'Class' => '10076',
                                         'Data' => 1,
                                         'Header' => 'abi.hpp',
                                         'Line' => '1043',
                                         'MnglName' => '_ZN10outcome_v26detail28_is_explicitly_constructibleIiiE5valueE',
                                         'Return' => '107',
                                         'ShortName' => 'value',
                                         'Value' => '-1'
                                       },
                            '10697' => {
                                         'Class' => '10088',
                                         'Data' => 1,
                                         'Header' => 'abi.hpp',
                                         'Line' => '1056',
                                         'MnglName' => '_ZN10outcome_v26detail28_is_implicitly_constructibleIiRKN10outcome_v213basic_outcomeIildNS_6policy10all_narrowEEEE5valueE',
                                         'Return' => '107',
                                         'ShortName' => 'value',
                                         'Value' => 'false'
                                       },
                            '10703' => {
                                         'Data' => 1,
                                         'Header' => 'abi.hpp',
                                         'Line' => '1066',
                                         'MnglName' => '_ZN10outcome_v26detailL27is_implicitly_constructibleE',
                                         'NameSpace' => 'outcome_v2::detail',
                                         'Return' => '107',
                                         'ShortName' => 'is_implicitly_constructible',
                                         'Value' => '-1'
                                       },
                            '10734' => {
                                         'Data' => 1,
                                         'Header' => 'abi.hpp',
                                         'Line' => '3254',
                                         'MnglName' => '_ZN10outcome_v28concepts6detailL14value_or_errorE',
                                         'NameSpace' => 'outcome_v2::concepts::detail',
                                         'Return' => '107',
                                         'ShortName' => 'value_or_error',
                                         'Value' => '-1'
                                       },
                            '10762' => {
                                         'Class' => '5236',
                                         'Destructor' => 'D0',
                                         'Header' => 'exception.h',
                                         'Line' => '64',
                                         'MnglName' => '_ZNSt9exceptionD0Ev',
                                         'ShortName' => 'exception',
                                         'Throw' => 1,
                                         'Virt' => 1
                                       },
                            '10766' => {
                                         'Class' => '4778',
                                         'Const' => 1,
                                         'Header' => 'new',
                                         'Line' => '64',
                                         'MnglName' => '_ZNKSt9bad_alloc4whatEv',
                                         'Param' => {
                                                      '0' => {
                                                               'algn' => '8',
                                                               'name' => 'this',
                                                               'type' => '11934'
                                                             }
                                                    },
                                         'Return' => '2374',
                                         'ShortName' => 'what',
                                         'Throw' => 1,
                                         'Virt' => 1
                                       },
                            '10938' => {
                                         'Artificial' => 1,
                                         'Class' => '6371',
                                         'Constructor' => 'C2',
                                         'Header' => 'abi.hpp',
                                         'Line' => '1629',
                                         'MnglName' => '_ZN10outcome_v212success_typeIvEC2Ev',
                                         'Param' => {
                                                      '0' => {
                                                               'algn' => '8',
                                                               'name' => 'this',
                                                               'type' => '7968'
                                                             }
                                                    },
                                         'ShortName' => 'success_type',
                                         'Throw' => 1
                                       },
                            '10947' => {
                                         'Artificial' => 1,
                                         'Class' => '7983',
                                         'Constructor' => 'C2',
                                         'Header' => 'abi.hpp',
                                         'Line' => '975',
                                         'MnglName' => '_ZN10outcome_v215in_place_type_tIdEC2ERKS1_',
                                         'Param' => {
                                                      '0' => {
                                                               'algn' => '8',
                                                               'name' => 'this',
                                                               'type' => '9738'
                                                             },
                                                      '1' => {
                                                               'algn' => '8',
                                                               'name' => 'p1',
                                                               'type' => '12106'
                                                             }
                                                    },
                                         'ShortName' => 'in_place_type_t',
                                         'Throw' => 1
                                       },
                            '11031' => {
                                         'Class' => '6502',
                                         'Data' => 1,
                                         'Header' => 'abi.hpp',
                                         'Line' => '3995',
                                         'MnglName' => '_ZN10outcome_v26detail17result_predicatesIilE47enable_make_exception_ptr_compatible_conversionE',
                                         'Return' => '107',
                                         'ShortName' => 'enable_make_exception_ptr_compatible_conversion',
                                         'Value' => 'false'
                                       },
                            '11101' => {
                                         'Class' => '6502',
                                         'Data' => 1,
                                         'Header' => 'abi.hpp',
                                         'Line' => '3995',
                                         'MnglName' => '_ZN10outcome_v26detail17result_predicatesIilE47enable_make_exception_ptr_compatible_conversionE',
                                         'Return' => '107',
                                         'ShortName' => 'enable_make_exception_ptr_compatible_conversion'
                                       },
                            '11127' => {
                                         'Class' => '2754',
                                         'Constructor' => 'C1',
                                         'Header' => 'abi.hpp',
                                         'Line' => '2259',
                                         'MnglName' => '_ZN10outcome_v26detail21value_storage_trivialIilEC1ENS0_20status_bitfield_typeE',
                                         'Param' => {
                                                      '0' => {
                                                               'algn' => '8',
                                                               'name' => 'this',
                                                               'type' => '3760'
                                                             },
                                                      '1' => {
                                                               'algn' => '2',
                                                               'name' => 'status',
                                                               'type' => '3407'
                                                             }
                                                    },
                                         'ShortName' => 'value_storage_trivial'
                                       },
                            '11130' => {
                                         'Artificial' => 1,
                                         'Class' => '3764',
                                         'Constructor' => 'C1',
                                         'Header' => 'abi.hpp',
                                         'Line' => '1006',
                                         'MnglName' => '_ZN10outcome_v26detail10empty_typeC1Ev',
                                         'Param' => {
                                                      '0' => {
                                                               'algn' => '8',
                                                               'name' => 'this',
                                                               'type' => '5032'
                                                             }
                                                    },
                                         'ShortName' => 'empty_type',
                                         'Throw' => 1
                                       },
                            '11138' => {
                                         'Class' => '3407',
                                         'Constructor' => 'C1',
                                         'Header' => 'abi.hpp',
                                         'Line' => '2142',
                                         'MnglName' => '_ZN10outcome_v26detail20status_bitfield_typeC1ERKS1_',
                                         'Param' => {
                                                      '0' => {
                                                               'algn' => '8',
                                                               'name' => 'this',
                                                               'type' => '4592'
                                                             },
                                                      '1' => {
                                                               'algn' => '8',
                                                               'name' => 'p1',
                                                               'type' => '11726'
                                                             }
                                                    },
                                         'ShortName' => 'status_bitfield_type',
                                         'Throw' => 1
                                       },
                            '11160' => {
                                         'Class' => '1667',
                                         'Header' => 'abi.hpp',
                                         'Line' => '3490',
                                         'MnglName' => '_ZN10outcome_v26detail28basic_result_value_observersINS0_20basic_result_storageIilNS_6policy10all_narrowEEEiS4_E5valueEv',
                                         'Param' => {
                                                      '0' => {
                                                               'algn' => '8',
                                                               'name' => 'this',
                                                               'type' => '2486'
                                                             }
                                                    },
                                         'Return' => '8731',
                                         'ShortName' => 'value',
                                         'Throw' => 1
                                       },
                            '11163' => {
                                         'Class' => '1399',
                                         'Const' => 1,
                                         'Header' => 'abi.hpp',
                                         'Line' => '3411',
                                         'MnglName' => '_ZNK10outcome_v26detail28basic_result_error_observersIN10outcome_v26detail28basic_result_value_observersINS0_20basic_result_storageIilNS_6policy10all_narrowEEEiS5_EElS5_E5errorEv',
                                         'Param' => {
                                                      '0' => {
                                                               'algn' => '8',
                                                               'name' => 'this',
                                                               'type' => '8742'
                                                             }
                                                    },
                                         'Return' => '8737',
                                         'ShortName' => 'error',
                                         'Throw' => 1
                                       },
                            '11168' => {
                                         'Class' => '1131',
                                         'Const' => 1,
                                         'Header' => 'abi.hpp',
                                         'Line' => '3555',
                                         'MnglName' => '_ZNK10outcome_v26detail18basic_result_finalIilNS_6policy10all_narrowEEeqERKNS_12success_typeIvEE',
                                         'Param' => {
                                                      '0' => {
                                                               'algn' => '8',
                                                               'name' => 'this',
                                                               'type' => '7610'
                                                             },
                                                      '1' => {
                                                               'algn' => '8',
                                                               'name' => 'o',
                                                               'type' => '5466'
                                                             }
                                                    },
                                         'Return' => '165',
                                         'ShortName' => 'operator==',
                                         'Throw' => 1
                                       },
                            '11181' => {
                                         'Class' => '661',
                                         'Constructor' => 'C2',
                                         'Header' => 'abi.hpp',
                                         'Line' => '5095',
                                         'MnglName' => '_ZN10outcome_v213basic_outcomeIildNS_6policy10all_narrowEEC2ERNS0_IildS2_E32error_converting_constructor_tagE',
                                         'Param' => {
                                                      '0' => {
                                                               'algn' => '8',
                                                               'name' => 'this',
                                                               'type' => '1418'
                                                             },
                                                      '1' => {
                                                               'algn' => '8',
                                                               'name' => 't',
                                                               'type' => '2842'
                                                             },
                                                      '2' => {
                                                               'algn' => '1',
                                                               'name' => 'p2',
                                                               'type' => '3441'
                                                             }
                                                    },
                                         'ShortName' => 'basic_outcome',
                                         'Throw' => 1
                                       },
                            '11200' => {
                                         'Class' => '1188',
                                         'Constructor' => 'C1',
                                         'Header' => 'abi.hpp',
                                         'Line' => '4252',
                                         'MnglName' => '_ZN10outcome_v212basic_resultIilNS_6policy10all_narrowEEC1ERNS0_IilS2_E34implicit_constructors_disabled_tagE',
                                         'Param' => {
                                                      '0' => {
                                                               'algn' => '8',
                                                               'name' => 'this',
                                                               'type' => '2001'
                                                             },
                                                      '1' => {
                                                               'algn' => '8',
                                                               'name' => 'p1',
                                                               'type' => '2842'
                                                             },
                                                      '2' => {
                                                               'algn' => '1',
                                                               'name' => 'p2',
                                                               'type' => '2802'
                                                             }
                                                    },
                                         'ShortName' => 'basic_result'
                                       },
                            '11280' => {
                                         'Class' => '10691',
                                         'Data' => 1,
                                         'Header' => 'abi.hpp',
                                         'Line' => '1051',
                                         'MnglName' => '_ZN10outcome_v26detail28_is_explicitly_constructibleIvvE5valueE',
                                         'Return' => '107',
                                         'ShortName' => 'value',
                                         'Value' => 'false'
                                       },
                            '11285' => {
                                         'Class' => '10700',
                                         'Data' => 1,
                                         'Header' => 'abi.hpp',
                                         'Line' => '1056',
                                         'MnglName' => '_ZN10outcome_v26detail28_is_implicitly_constructibleIdlE5valueE',
                                         'Return' => '107',
                                         'ShortName' => 'value',
                                         'Value' => '-1'
                                       },
                            '11291' => {
                                         'Data' => 1,
                                         'Header' => 'abi.hpp',
                                         'Line' => '1066',
                                         'MnglName' => '_ZN10outcome_v26detailL27is_implicitly_constructibleE',
                                         'NameSpace' => 'outcome_v2::detail',
                                         'Return' => '107',
                                         'ShortName' => 'is_implicitly_constructible',
                                         'Value' => '-1'
                                       },
                            '11313' => {
                                         'Header' => 'abi.hpp',
                                         'Line' => '3243',
                                         'MnglName' => '_ZN10outcome_v28concepts6detail20match_value_or_errorEz',
                                         'NameSpace' => 'outcome_v2::concepts::detail',
                                         'Param' => {
                                                      '0' => {
                                                               'type' => '-1'
                                                             }
                                                    },
                                         'Return' => '7761',
                                         'ShortName' => 'match_value_or_error'
                                       },
                            '11319' => {
                                         'Header' => 'abi.hpp',
                                         'Line' => '3249',
                                         'MnglName' => '_ZN10outcome_v28concepts6detail20match_value_or_errorIN10outcome_v213basic_outcomeIildNS_6policy10all_narrowEEEbRiRlEENS2_IildS4_EERS9_',
                                         'NameSpace' => 'outcome_v2::concepts::detail',
                                         'Param' => {
                                                      '0' => {
                                                               'algn' => '8',
                                                               'name' => 'p1',
                                                               'type' => '1695'
                                                             }
                                                    },
                                         'Return' => '661',
                                         'ShortName' => 'match_value_or_error<outcome_v2::basic_outcome<int, long, double, outcome_v2::policy::all_narrow>, bool, int&, long&>',
                                         'TParam' => {
                                                       '0' => {
                                                                'name' => 'outcome_v2::basic_outcome<int, long, double, outcome_v2::policy::all_narrow>'
                                                              },
                                                       '1' => {
                                                                'name' => 'bool'
                                                              },
                                                       '2' => {
                                                                'name' => 'int&'
                                                              },
                                                       '3' => {
                                                                'name' => 'long&'
                                                              }
                                                     }
                                       },
                            '11342' => {
                                         'Class' => '5236',
                                         'Const' => 1,
                                         'Header' => 'exception.h',
                                         'Line' => '69',
                                         'MnglName' => '_ZNKSt9exception4whatEv',
                                         'Param' => {
                                                      '0' => {
                                                               'algn' => '8',
                                                               'name' => 'this',
                                                               'type' => '12524'
                                                             }
                                                    },
                                         'Return' => '2374',
                                         'ShortName' => 'what',
                                         'Throw' => 1,
                                         'Virt' => 1
                                       },
                            '1137' => {
                                        'Artificial' => 1,
                                        'Class' => '661',
                                        'Constructor' => 'C2',
                                        'Header' => 'abi.hpp',
                                        'Line' => '4903',
                                        'MnglName' => '_ZN10outcome_v213basic_outcomeIildNS_6policy10all_narrowEEC2ERNS0_IildS2_EE',
                                        'Param' => {
                                                     '0' => {
                                                              'algn' => '8',
                                                              'name' => 'this',
                                                              'type' => '1418'
                                                            },
                                                     '1' => {
                                                              'algn' => '8',
                                                              'name' => 'p1',
                                                              'type' => '1695'
                                                            }
                                                   },
                                        'ShortName' => 'basic_outcome',
                                        'Throw' => 1
                                      },
                            '11511' => {
                                         'Artificial' => 1,
                                         'Class' => '6371',
                                         'Constructor' => 'C1',
                                         'Header' => 'abi.hpp',
                                         'Line' => '1629',
                                         'MnglName' => '_ZN10outcome_v212success_typeIvEC1Ev',
                                         'Param' => {
                                                      '0' => {
                                                               'algn' => '8',
                                                               'name' => 'this',
                                                               'type' => '7968'
                                                             }
                                                    },
                                         'ShortName' => 'success_type',
                                         'Throw' => 1
                                       },
                            '11523' => {
                                         'Artificial' => 1,
                                         'Class' => '7983',
                                         'Constructor' => 'C1',
                                         'Header' => 'abi.hpp',
                                         'Line' => '975',
                                         'MnglName' => '_ZN10outcome_v215in_place_type_tIdEC1ERKS1_',
                                         'Param' => {
                                                      '0' => {
                                                               'algn' => '8',
                                                               'name' => 'this',
                                                               'type' => '9738'
                                                             },
                                                      '1' => {
                                                               'algn' => '8',
                                                               'name' => 'p1',
                                                               'type' => '12106'
                                                             }
                                                    },
                                         'ShortName' => 'in_place_type_t',
                                         'Throw' => 1
                                       },
                            '1157' => {
                                        'Header' => 'abi.hpp',
                                        'Line' => '1873',
                                        'MnglName' => '_ZN10outcome_v25trait6detail7declvalIlEERlv',
                                        'NameSpace' => 'outcome_v2::trait::detail',
                                        'Return' => '883',
                                        'ShortName' => 'declval<long>',
                                        'TParam' => {
                                                      '0' => {
                                                               'name' => 'long'
                                                             }
                                                    },
                                        'Throw' => 1
                                      },
                            '11608' => {
                                         'Class' => '5981',
                                         'Data' => 1,
                                         'Header' => 'abi.hpp',
                                         'Line' => '4016',
                                         'MnglName' => '_ZN10outcome_v26detail17result_predicatesIE38enable_inplace_value_error_constructorE',
                                         'Return' => '107',
                                         'ShortName' => 'enable_inplace_value_error_constructor'
                                       },
                            '117' => {
                                       'Class' => '54',
                                       'Data' => 1,
                                       'Header' => 'abi.hpp',
                                       'Line' => '1880',
                                       'MnglName' => '_ZN10outcome_v25trait6detail13detector_impl8detectorIzE5valueE',
                                       'Return' => '107',
                                       'ShortName' => 'value',
                                       'Value' => 'false'
                                     },
                            '1170' => {
                                        'Class' => '916',
                                        'Data' => 1,
                                        'Header' => 'abi.hpp',
                                        'Line' => '1854',
                                        'MnglName' => '_ZN10outcome_v25trait18is_move_bitcopyingIE5valueE',
                                        'Return' => '107',
                                        'ShortName' => 'value',
                                        'Value' => 'false'
                                      },
                            '1173' => {
                                        'Data' => 1,
                                        'Header' => 'abi.hpp',
                                        'Line' => '1840',
                                        'MnglName' => '_ZN10outcome_v25traitL32type_can_be_used_in_basic_resultE',
                                        'NameSpace' => 'outcome_v2::trait',
                                        'Return' => '107',
                                        'ShortName' => 'type_can_be_used_in_basic_result'
                                      },
                            '11750' => {
                                         'Class' => '1667',
                                         'Const' => 1,
                                         'Header' => 'abi.hpp',
                                         'Line' => '3495',
                                         'MnglName' => '_ZNK10outcome_v26detail28basic_result_value_observersINS0_20basic_result_storageIilNS_6policy10all_narrowEEEiS4_E5valueEv',
                                         'Param' => {
                                                      '0' => {
                                                               'algn' => '8',
                                                               'name' => 'this',
                                                               'type' => '9324'
                                                             }
                                                    },
                                         'Return' => '9319',
                                         'ShortName' => 'value',
                                         'Throw' => 1
                                       },
                            '11777' => {
                                         'Class' => '661',
                                         'Constructor' => 'C1',
                                         'Header' => 'abi.hpp',
                                         'Line' => '5095',
                                         'MnglName' => '_ZN10outcome_v213basic_outcomeIildNS_6policy10all_narrowEEC1ERNS0_IildS2_E32error_converting_constructor_tagE',
                                         'Param' => {
                                                      '0' => {
                                                               'algn' => '8',
                                                               'name' => 'this',
                                                               'type' => '1418'
                                                             },
                                                      '1' => {
                                                               'algn' => '8',
                                                               'name' => 't',
                                                               'type' => '2842'
                                                             },
                                                      '2' => {
                                                               'algn' => '1',
                                                               'name' => 'p2',
                                                               'type' => '3441'
                                                             }
                                                    },
                                         'ShortName' => 'basic_outcome',
                                         'Throw' => 1
                                       },
                            '11787' => {
                                         'Class' => '11192',
                                         'Data' => 1,
                                         'Header' => 'abi.hpp',
                                         'Line' => '4160',
                                         'MnglName' => '_ZN10outcome_v212basic_resultIilNS_6policy10all_narrowEE9predicate20constructors_enabledE',
                                         'Return' => '107',
                                         'ShortName' => 'constructors_enabled',
                                         'Value' => '-1'
                                       },
                            '1181' => {
                                        'Class' => '922',
                                        'Data' => 1,
                                        'Header' => 'abi.hpp',
                                        'Line' => '1861',
                                        'MnglName' => '_ZN10outcome_v25trait13is_error_typeIlE5valueE',
                                        'Return' => '107',
                                        'ShortName' => 'value',
                                        'Value' => 'false'
                                      },
                            '11866' => {
                                         'Class' => '11288',
                                         'Data' => 1,
                                         'Header' => 'abi.hpp',
                                         'Line' => '1056',
                                         'MnglName' => '_ZN10outcome_v26detail28_is_implicitly_constructibleIdiE5valueE',
                                         'Return' => '107',
                                         'ShortName' => 'value',
                                         'Value' => '-1'
                                       },
                            '11872' => {
                                         'Data' => 1,
                                         'Header' => 'abi.hpp',
                                         'Line' => '1066',
                                         'MnglName' => '_ZN10outcome_v26detailL27is_implicitly_constructibleE',
                                         'NameSpace' => 'outcome_v2::detail',
                                         'Return' => '107',
                                         'ShortName' => 'is_implicitly_constructible',
                                         'Value' => '-1'
                                       },
                            '11892' => {
                                         'Header' => 'abi.hpp',
                                         'Line' => '3242',
                                         'MnglName' => '_ZN10outcome_v28concepts6detail19match_value_or_noneEz',
                                         'NameSpace' => 'outcome_v2::concepts::detail',
                                         'Param' => {
                                                      '0' => {
                                                               'type' => '-1'
                                                             }
                                                    },
                                         'Return' => '7761',
                                         'ShortName' => 'match_value_or_none'
                                       },
                            '1190' => {
                                        'Class' => '929',
                                        'Data' => 1,
                                        'Header' => 'abi.hpp',
                                        'Line' => '1868',
                                        'MnglName' => '_ZN10outcome_v25trait18is_error_type_enumIlN10outcome_v212basic_resultIilNS_6policy10all_narrowEEEE5valueE',
                                        'Return' => '107',
                                        'ShortName' => 'value',
                                        'Value' => 'false'
                                      },
                            '11902' => {
                                         'Header' => 'abi.hpp',
                                         'Line' => '3249',
                                         'MnglName' => '_ZN10outcome_v28concepts6detail20match_value_or_errorIN10outcome_v212basic_resultIilNS_6policy10all_narrowEEEbRiRlEENS2_IilS4_EERS9_',
                                         'NameSpace' => 'outcome_v2::concepts::detail',
                                         'Param' => {
                                                      '0' => {
                                                               'algn' => '8',
                                                               'name' => 'p1',
                                                               'type' => '3125'
                                                             }
                                                    },
                                         'Return' => '1188',
                                         'ShortName' => 'match_value_or_error<outcome_v2::basic_result<int, long, outcome_v2::policy::all_narrow>, bool, int&, long&>',
                                         'TParam' => {
                                                       '0' => {
                                                                'name' => 'outcome_v2::basic_result<int, long, outcome_v2::policy::all_narrow>'
                                                              },
                                                       '1' => {
                                                                'name' => 'bool'
                                                              },
                                                       '2' => {
                                                                'name' => 'int&'
                                                              },
                                                       '3' => {
                                                                'name' => 'long&'
                                                              }
                                                     }
                                       },
                            '1199' => {
                                        'Class' => '937',
                                        'Data' => 1,
                                        'Header' => 'abi.hpp',
                                        'Line' => '1910',
                                        'MnglName' => '_ZN10outcome_v25trait23is_error_code_availableIlE5valueE',
                                        'Return' => '107',
                                        'ShortName' => 'value',
                                        'Value' => 'false'
                                      },
                            '12087' => {
                                         'Artificial' => 1,
                                         'Class' => '6371',
                                         'Destructor' => 1,
                                         'Header' => 'abi.hpp',
                                         'Line' => '1629',
                                         'MnglName' => '_ZN10outcome_v212success_typeIvED0Ev',
                                         'ShortName' => 'success_type',
                                         'Throw' => 1
                                       },
                            '12195' => {
                                         'Class' => '6502',
                                         'Data' => 1,
                                         'Header' => 'abi.hpp',
                                         'Line' => '4016',
                                         'MnglName' => '_ZN10outcome_v26detail17result_predicatesIilE38enable_inplace_value_error_constructorE',
                                         'Return' => '107',
                                         'ShortName' => 'enable_inplace_value_error_constructor'
                                       },
                            '12324' => {
                                         'Class' => '3407',
                                         'Constructor' => 'C2',
                                         'Header' => 'abi.hpp',
                                         'Line' => '2143',
                                         'MnglName' => '_ZN10outcome_v26detail20status_bitfield_typeC2ERS1_',
                                         'Param' => {
                                                      '0' => {
                                                               'algn' => '8',
                                                               'name' => 'this',
                                                               'type' => '4592'
                                                             },
                                                      '1' => {
                                                               'algn' => '8',
                                                               'name' => 'p1',
                                                               'type' => '13470'
                                                             }
                                                    },
                                         'ShortName' => 'status_bitfield_type',
                                         'Throw' => 1
                                       },
                            '12392' => {
                                         'Class' => '11192',
                                         'Data' => 1,
                                         'Header' => 'abi.hpp',
                                         'Line' => '4162',
                                         'MnglName' => '_ZN10outcome_v212basic_resultIilNS_6policy10all_narrowEE9predicate29implicit_constructors_enabledE',
                                         'Return' => '107',
                                         'ShortName' => 'implicit_constructors_enabled',
                                         'Value' => 'false'
                                       },
                            '12399' => {
                                         'Class' => '1188',
                                         'Constructor' => 'C2',
                                         'Header' => 'abi.hpp',
                                         'Line' => '4259',
                                         'MnglName' => '_ZN10outcome_v212basic_resultIilNS_6policy10all_narrowEEC2ERNS0_IilS2_E32value_converting_constructor_tagE',
                                         'Param' => {
                                                      '0' => {
                                                               'algn' => '8',
                                                               'name' => 'this',
                                                               'type' => '2001'
                                                             },
                                                      '1' => {
                                                               'algn' => '8',
                                                               'name' => 't',
                                                               'type' => '2842'
                                                             },
                                                      '2' => {
                                                               'algn' => '1',
                                                               'name' => 'p2',
                                                               'type' => '3116'
                                                             }
                                                    },
                                         'ShortName' => 'basic_result',
                                         'Throw' => 1
                                       },
                            '12450' => {
                                         'Class' => '11842',
                                         'Const' => 1,
                                         'Header' => 'abi.hpp',
                                         'InLine' => 1,
                                         'Line' => '1012',
                                         'MnglName' => '_ZNK10outcome_v26detail9void_typeeqES1_',
                                         'Param' => {
                                                      '0' => {
                                                               'algn' => '8',
                                                               'name' => 'this',
                                                               'type' => '13585'
                                                             },
                                                      '1' => {
                                                               'algn' => '1',
                                                               'name' => 'p1',
                                                               'type' => '11842'
                                                             }
                                                    },
                                         'Return' => '165',
                                         'ShortName' => 'operator==',
                                         'Throw' => 1
                                       },
                            '12470' => {
                                         'Class' => '11869',
                                         'Data' => 1,
                                         'Header' => 'abi.hpp',
                                         'Line' => '1056',
                                         'MnglName' => '_ZN10outcome_v26detail28_is_implicitly_constructibleIldE5valueE',
                                         'Return' => '107',
                                         'ShortName' => 'value',
                                         'Value' => '-1'
                                       },
                            '12476' => {
                                         'Data' => 1,
                                         'Header' => 'abi.hpp',
                                         'Line' => '1066',
                                         'MnglName' => '_ZN10outcome_v26detailL27is_implicitly_constructibleE',
                                         'NameSpace' => 'outcome_v2::detail',
                                         'Return' => '107',
                                         'ShortName' => 'is_implicitly_constructible',
                                         'Value' => 'false'
                                       },
                            '12679' => {
                                         'Artificial' => 1,
                                         'Class' => '6371',
                                         'Destructor' => 'D2',
                                         'Header' => 'abi.hpp',
                                         'Line' => '1629',
                                         'MnglName' => '_ZN10outcome_v212success_typeIvED2Ev',
                                         'ShortName' => 'success_type',
                                         'Throw' => 1
                                       },
                            '1268' => {
                                        'Data' => 1,
                                        'Header' => 'abi.hpp',
                                        'Line' => '4078',
                                        'MnglName' => '_ZN10outcome_v28conceptsL12basic_resultE',
                                        'NameSpace' => 'outcome_v2::concepts',
                                        'Return' => '107',
                                        'ShortName' => 'basic_result'
                                      },
                            '12697' => {
                                         'Class' => '7983',
                                         'Constructor' => 'C2',
                                         'Header' => 'abi.hpp',
                                         'Line' => '977',
                                         'MnglName' => '_ZN10outcome_v215in_place_type_tIdEC2Ev',
                                         'Param' => {
                                                      '0' => {
                                                               'algn' => '8',
                                                               'name' => 'this',
                                                               'type' => '9738'
                                                             }
                                                    },
                                         'ShortName' => 'in_place_type_t',
                                         'Throw' => 1
                                       },
                            '1273' => {
                                        'Data' => 1,
                                        'Header' => 'abi.hpp',
                                        'Line' => '4888',
                                        'MnglName' => '_ZN10outcome_v28conceptsL13basic_outcomeE',
                                        'NameSpace' => 'outcome_v2::concepts',
                                        'Return' => '107',
                                        'ShortName' => 'basic_outcome',
                                        'Value' => '-1'
                                      },
                            '1276' => {
                                        'Class' => '1015',
                                        'Data' => 1,
                                        'Header' => 'abi.hpp',
                                        'Line' => '3299',
                                        'MnglName' => '_ZN10outcome_v27convert14value_or_errorIE20enable_result_inputsE',
                                        'Return' => '107',
                                        'ShortName' => 'enable_result_inputs',
                                        'Value' => 'false'
                                      },
                            '12923' => {
                                         'Class' => '3407',
                                         'Constructor' => 'C1',
                                         'Header' => 'abi.hpp',
                                         'Line' => '2143',
                                         'MnglName' => '_ZN10outcome_v26detail20status_bitfield_typeC1ERS1_',
                                         'Param' => {
                                                      '0' => {
                                                               'algn' => '8',
                                                               'name' => 'this',
                                                               'type' => '4592'
                                                             },
                                                      '1' => {
                                                               'algn' => '8',
                                                               'name' => 'p1',
                                                               'type' => '13470'
                                                             }
                                                    },
                                         'ShortName' => 'status_bitfield_type',
                                         'Throw' => 1
                                       },
                            '12936' => {
                                         'Artificial' => 1,
                                         'Class' => '11738',
                                         'Constructor' => 'C2',
                                         'Header' => 'abi.hpp',
                                         'Line' => '975',
                                         'MnglName' => '_ZN10outcome_v215in_place_type_tIiEC2ERS1_',
                                         'Param' => {
                                                      '0' => {
                                                               'algn' => '8',
                                                               'name' => 'this',
                                                               'type' => '13481'
                                                             },
                                                      '1' => {
                                                               'algn' => '8',
                                                               'name' => 'p1',
                                                               'type' => '13979'
                                                             }
                                                    },
                                         'ShortName' => 'in_place_type_t',
                                         'Throw' => 1
                                       },
                            '12974' => {
                                         'Class' => '661',
                                         'Constructor' => 'C2',
                                         'Header' => 'abi.hpp',
                                         'Line' => '5108',
                                         'MnglName' => '_ZN10outcome_v213basic_outcomeIildNS_6policy10all_narrowEEC2ERNS0_IildS2_E42error_condition_converting_constructor_tagE',
                                         'Param' => {
                                                      '0' => {
                                                               'algn' => '8',
                                                               'name' => 'this',
                                                               'type' => '1418'
                                                             },
                                                      '1' => {
                                                               'algn' => '8',
                                                               'name' => 't',
                                                               'type' => '3962'
                                                             },
                                                      '2' => {
                                                               'algn' => '1',
                                                               'name' => 'p2',
                                                               'type' => '3797'
                                                             }
                                                    },
                                         'ShortName' => 'basic_outcome',
                                         'Throw' => 1
                                       },
                            '12994' => {
                                         'Class' => '1188',
                                         'Constructor' => 'C1',
                                         'Header' => 'abi.hpp',
                                         'Line' => '4259',
                                         'MnglName' => '_ZN10outcome_v212basic_resultIilNS_6policy10all_narrowEEC1ERNS0_IilS2_E32value_converting_constructor_tagE',
                                         'Param' => {
                                                      '0' => {
                                                               'algn' => '8',
                                                               'name' => 'this',
                                                               'type' => '2001'
                                                             },
                                                      '1' => {
                                                               'algn' => '8',
                                                               'name' => 't',
                                                               'type' => '2842'
                                                             },
                                                      '2' => {
                                                               'algn' => '1',
                                                               'name' => 'p2',
                                                               'type' => '3116'
                                                             }
                                                    },
                                         'ShortName' => 'basic_result',
                                         'Throw' => 1
                                       },
                            '13042' => {
                                         'Class' => '11842',
                                         'Const' => 1,
                                         'Header' => 'abi.hpp',
                                         'InLine' => 1,
                                         'Line' => '1013',
                                         'MnglName' => '_ZNK10outcome_v26detail9void_typeneES1_',
                                         'Param' => {
                                                      '0' => {
                                                               'algn' => '8',
                                                               'name' => 'this',
                                                               'type' => '13585'
                                                             },
                                                      '1' => {
                                                               'algn' => '1',
                                                               'name' => 'p1',
                                                               'type' => '11842'
                                                             }
                                                    },
                                         'Return' => '165',
                                         'ShortName' => 'operator!=',
                                         'Throw' => 1
                                       },
                            '13057' => {
                                         'Class' => '12473',
                                         'Data' => 1,
                                         'Header' => 'abi.hpp',
                                         'Line' => '1056',
                                         'MnglName' => '_ZN10outcome_v26detail28_is_implicitly_constructibleIidE5valueE',
                                         'Return' => '107',
                                         'ShortName' => 'value',
                                         'Value' => '-1'
                                       },
                            '13063' => {
                                         'Data' => 1,
                                         'Header' => 'abi.hpp',
                                         'Line' => '1066',
                                         'MnglName' => '_ZN10outcome_v26detailL27is_implicitly_constructibleE',
                                         'NameSpace' => 'outcome_v2::detail',
                                         'Return' => '107',
                                         'ShortName' => 'is_implicitly_constructible',
                                         'Value' => 'false'
                                       },
                            '13246' => {
                                         'Artificial' => 1,
                                         'Class' => '6371',
                                         'Destructor' => 'D1',
                                         'Header' => 'abi.hpp',
                                         'Line' => '1629',
                                         'MnglName' => '_ZN10outcome_v212success_typeIvED1Ev',
                                         'ShortName' => 'success_type',
                                         'Throw' => 1
                                       },
                            '13266' => {
                                         'Class' => '7983',
                                         'Constructor' => 'C1',
                                         'Header' => 'abi.hpp',
                                         'Line' => '977',
                                         'MnglName' => '_ZN10outcome_v215in_place_type_tIdEC1Ev',
                                         'Param' => {
                                                      '0' => {
                                                               'algn' => '8',
                                                               'name' => 'this',
                                                               'type' => '9738'
                                                             }
                                                    },
                                         'ShortName' => 'in_place_type_t',
                                         'Throw' => 1
                                       },
                            '133' => {
                                       'Class' => '88',
                                       'Data' => 1,
                                       'Header' => 'abi.hpp',
                                       'Line' => '1901',
                                       'MnglName' => '_ZN10outcome_v25trait6detail27_is_exception_ptr_availableIE5valueE',
                                       'Return' => '107',
                                       'ShortName' => 'value'
                                     },
                            '13467' => {
                                         'Class' => '3407',
                                         'Header' => 'abi.hpp',
                                         'Line' => '2144',
                                         'MnglName' => '_ZN10outcome_v26detail20status_bitfield_typeaSERKS1_',
                                         'Param' => {
                                                      '0' => {
                                                               'algn' => '8',
                                                               'name' => 'this',
                                                               'type' => '4592'
                                                             },
                                                      '1' => {
                                                               'algn' => '8',
                                                               'name' => 'p1',
                                                               'type' => '11726'
                                                             }
                                                    },
                                         'Return' => '13470',
                                         'ShortName' => 'operator=',
                                         'Throw' => 1
                                       },
                            '13479' => {
                                         'Artificial' => 1,
                                         'Class' => '11738',
                                         'Constructor' => 'C1',
                                         'Header' => 'abi.hpp',
                                         'Line' => '975',
                                         'MnglName' => '_ZN10outcome_v215in_place_type_tIiEC1ERS1_',
                                         'Param' => {
                                                      '0' => {
                                                               'algn' => '8',
                                                               'name' => 'this',
                                                               'type' => '13481'
                                                             },
                                                      '1' => {
                                                               'algn' => '8',
                                                               'name' => 'p1',
                                                               'type' => '13979'
                                                             }
                                                    },
                                         'ShortName' => 'in_place_type_t',
                                         'Throw' => 1
                                       },
                            '13499' => {
                                         'Class' => '1131',
                                         'Const' => 1,
                                         'Header' => 'abi.hpp',
                                         'Line' => '3598',
                                         'MnglName' => '_ZNK10outcome_v26detail18basic_result_finalIilNS_6policy10all_narrowEEneERKNS_12success_typeIvEE',
                                         'Param' => {
                                                      '0' => {
                                                               'algn' => '8',
                                                               'name' => 'this',
                                                               'type' => '7610'
                                                             },
                                                      '1' => {
                                                               'algn' => '8',
                                                               'name' => 'o',
                                                               'type' => '5466'
                                                             }
                                                    },
                                         'Return' => '165',
                                         'ShortName' => 'operator!=',
                                         'Throw' => 1
                                       },
                            '13509' => {
                                         'Class' => '12966',
                                         'Data' => 1,
                                         'Header' => 'abi.hpp',
                                         'Line' => '4976',
                                         'MnglName' => '_ZN10outcome_v213basic_outcomeIildNS_6policy10all_narrowEE9predicate20constructors_enabledE',
                                         'Return' => '107',
                                         'ShortName' => 'constructors_enabled',
                                         'Value' => '-1'
                                       },
                            '13520' => {
                                         'Class' => '661',
                                         'Constructor' => 'C1',
                                         'Header' => 'abi.hpp',
                                         'Line' => '5108',
                                         'MnglName' => '_ZN10outcome_v213basic_outcomeIildNS_6policy10all_narrowEEC1ERNS0_IildS2_E42error_condition_converting_constructor_tagE',
                                         'Param' => {
                                                      '0' => {
                                                               'algn' => '8',
                                                               'name' => 'this',
                                                               'type' => '1418'
                                                             },
                                                      '1' => {
                                                               'algn' => '8',
                                                               'name' => 't',
                                                               'type' => '3962'
                                                             },
                                                      '2' => {
                                                               'algn' => '1',
                                                               'name' => 'p2',
                                                               'type' => '3797'
                                                             }
                                                    },
                                         'ShortName' => 'basic_outcome',
                                         'Throw' => 1
                                       },
                            '13532' => {
                                         'Class' => '11192',
                                         'Data' => 1,
                                         'Header' => 'abi.hpp',
                                         'Line' => '4165',
                                         'MnglName' => '_ZN10outcome_v212basic_resultIilNS_6policy10all_narrowEE9predicate35enable_value_converting_constructorE',
                                         'Return' => '107',
                                         'ShortName' => 'enable_value_converting_constructor'
                                       },
                            '13601' => {
                                         'Class' => '13060',
                                         'Data' => 1,
                                         'Header' => 'abi.hpp',
                                         'Line' => '1056',
                                         'MnglName' => '_ZN10outcome_v26detail28_is_implicitly_constructibleIlN10outcome_v212basic_resultIilNS_6policy10all_narrowEEEE5valueE',
                                         'Return' => '107',
                                         'ShortName' => 'value',
                                         'Value' => 'false'
                                       },
                            '13607' => {
                                         'Data' => 1,
                                         'Header' => 'abi.hpp',
                                         'Line' => '1066',
                                         'MnglName' => '_ZN10outcome_v26detailL27is_implicitly_constructibleE',
                                         'NameSpace' => 'outcome_v2::detail',
                                         'Return' => '107',
                                         'ShortName' => 'is_implicitly_constructible',
                                         'Value' => 'false'
                                       },
                            '13730' => {
                                         'Class' => '13194',
                                         'Data' => 1,
                                         'Header' => 'abi.hpp',
                                         'Line' => '4160',
                                         'MnglName' => '_ZN10outcome_v212basic_resultIE9predicate20constructors_enabledE',
                                         'Return' => '107',
                                         'ShortName' => 'constructors_enabled'
                                       },
                            '13779' => {
                                         'Class' => '6371',
                                         'Const' => 1,
                                         'Header' => 'abi.hpp',
                                         'InLine' => 1,
                                         'Line' => '1632',
                                         'MnglName' => '_ZNK10outcome_v212success_typeIvE13spare_storageEv',
                                         'Param' => {
                                                      '0' => {
                                                               'algn' => '8',
                                                               'name' => 'this',
                                                               'type' => '14769'
                                                             }
                                                    },
                                         'Return' => '954',
                                         'ShortName' => 'spare_storage'
                                       },
                            '13797' => {
                                         'Artificial' => 1,
                                         'Class' => '12705',
                                         'Constructor' => 'C2',
                                         'Header' => 'abi.hpp',
                                         'Line' => '975',
                                         'MnglName' => '_ZN10outcome_v215in_place_type_tIlEC2ERS1_',
                                         'Param' => {
                                                      '0' => {
                                                               'algn' => '8',
                                                               'name' => 'this',
                                                               'type' => '14283'
                                                             },
                                                      '1' => {
                                                               'algn' => '8',
                                                               'name' => 'p1',
                                                               'type' => '14780'
                                                             }
                                                    },
                                         'ShortName' => 'in_place_type_t',
                                         'Throw' => 1
                                       },
                            '13953' => {
                                         'Class' => '11710',
                                         'Destructor' => 1,
                                         'Header' => 'exception',
                                         'Line' => '53',
                                         'MnglName' => '_ZNSt13bad_exceptionD2Ev',
                                         'ShortName' => 'bad_exception',
                                         'Throw' => 1,
                                         'Virt' => 1
                                       },
                            '13968' => {
                                         'Class' => '3407',
                                         'Header' => 'abi.hpp',
                                         'Line' => '2145',
                                         'MnglName' => '_ZN10outcome_v26detail20status_bitfield_typeaSERS1_',
                                         'Param' => {
                                                      '0' => {
                                                               'algn' => '8',
                                                               'name' => 'this',
                                                               'type' => '4592'
                                                             },
                                                      '1' => {
                                                               'algn' => '8',
                                                               'name' => 'p1',
                                                               'type' => '13470'
                                                             }
                                                    },
                                         'Return' => '13470',
                                         'ShortName' => 'operator=',
                                         'Throw' => 1
                                       },
                            '14009' => {
                                         'Class' => '12966',
                                         'Data' => 1,
                                         'Header' => 'abi.hpp',
                                         'Line' => '4984',
                                         'MnglName' => '_ZN10outcome_v213basic_outcomeIildNS_6policy10all_narrowEE9predicate29implicit_constructors_enabledE',
                                         'Return' => '107',
                                         'ShortName' => 'implicit_constructors_enabled',
                                         'Value' => 'false'
                                       },
                            '1401' => {
                                        'Artificial' => 1,
                                        'Class' => '1131',
                                        'Destructor' => 1,
                                        'Header' => 'abi.hpp',
                                        'Line' => '3516',
                                        'MnglName' => '_ZN10outcome_v26detail18basic_result_finalIilNS_6policy10all_narrowEED0Ev',
                                        'ShortName' => 'basic_result_final',
                                        'Throw' => 1
                                      },
                            '14026' => {
                                         'Class' => '11192',
                                         'Data' => 1,
                                         'Header' => 'abi.hpp',
                                         'Line' => '4171',
                                         'MnglName' => '_ZN10outcome_v212basic_resultIilNS_6policy10all_narrowEE9predicate35enable_error_converting_constructorE',
                                         'Return' => '107',
                                         'ShortName' => 'enable_error_converting_constructor'
                                       },
                            '14035' => {
                                         'Class' => '1188',
                                         'Constructor' => 'C2',
                                         'Header' => 'abi.hpp',
                                         'Line' => '4270',
                                         'MnglName' => '_ZN10outcome_v212basic_resultIilNS_6policy10all_narrowEEC2ERNS0_IilS2_E32error_converting_constructor_tagE',
                                         'Param' => {
                                                      '0' => {
                                                               'algn' => '8',
                                                               'name' => 'this',
                                                               'type' => '2001'
                                                             },
                                                      '1' => {
                                                               'algn' => '8',
                                                               'name' => 't',
                                                               'type' => '2842'
                                                             },
                                                      '2' => {
                                                               'algn' => '1',
                                                               'name' => 'p2',
                                                               'type' => '3447'
                                                             }
                                                    },
                                         'ShortName' => 'basic_result',
                                         'Throw' => 1
                                       },
                            '1405' => {
                                        'Artificial' => 1,
                                        'Class' => '871',
                                        'Constructor' => 'C2',
                                        'Header' => 'abi.hpp',
                                        'Line' => '4617',
                                        'MnglName' => '_ZN10outcome_v26detail33basic_outcome_exception_observersINS0_18basic_result_finalIilNS_6policy10all_narrowEEEildS4_EC2ERNS1_INS2_IilS4_EEildS4_EE',
                                        'Param' => {
                                                     '0' => {
                                                              'algn' => '8',
                                                              'name' => 'this',
                                                              'type' => '1682'
                                                            },
                                                     '1' => {
                                                              'algn' => '8',
                                                              'name' => 'p1',
                                                              'type' => '1956'
                                                            }
                                                   },
                                        'ShortName' => 'basic_outcome_exception_observers',
                                        'Throw' => 1
                                      },
                            '14097' => {
                                         'Class' => '13604',
                                         'Data' => 1,
                                         'Header' => 'abi.hpp',
                                         'Line' => '1056',
                                         'MnglName' => '_ZN10outcome_v26detail28_is_implicitly_constructibleIiN10outcome_v212basic_resultIilNS_6policy10all_narrowEEEE5valueE',
                                         'Return' => '107',
                                         'ShortName' => 'value',
                                         'Value' => 'false'
                                       },
                            '14103' => {
                                         'Data' => 1,
                                         'Header' => 'abi.hpp',
                                         'Line' => '1066',
                                         'MnglName' => '_ZN10outcome_v26detailL27is_implicitly_constructibleE',
                                         'NameSpace' => 'outcome_v2::detail',
                                         'Return' => '107',
                                         'ShortName' => 'is_implicitly_constructible',
                                         'Value' => 'false'
                                       },
                            '14150' => {
                                         'Class' => '9574',
                                         'Destructor' => 1,
                                         'Header' => 'nested_exception.h',
                                         'Line' => '63',
                                         'MnglName' => '_ZNSt16nested_exceptionD2Ev',
                                         'ShortName' => 'nested_exception',
                                         'Throw' => 1,
                                         'Virt' => 1
                                       },
                            '1416' => {
                                        'Artificial' => 1,
                                        'Class' => '661',
                                        'Constructor' => 'C1',
                                        'Header' => 'abi.hpp',
                                        'Line' => '4903',
                                        'MnglName' => '_ZN10outcome_v213basic_outcomeIildNS_6policy10all_narrowEEC1ERNS0_IildS2_EE',
                                        'Param' => {
                                                     '0' => {
                                                              'algn' => '8',
                                                              'name' => 'this',
                                                              'type' => '1418'
                                                            },
                                                     '1' => {
                                                              'algn' => '8',
                                                              'name' => 'p1',
                                                              'type' => '1695'
                                                            }
                                                   },
                                        'ShortName' => 'basic_outcome',
                                        'Throw' => 1
                                      },
                            '14186' => {
                                         'Class' => '13695',
                                         'Data' => 1,
                                         'Header' => 'abi.hpp',
                                         'Line' => '4976',
                                         'MnglName' => '_ZN10outcome_v213basic_outcomeIE9predicate20constructors_enabledE',
                                         'Return' => '107',
                                         'ShortName' => 'constructors_enabled'
                                       },
                            '14224' => {
                                         'Class' => '13194',
                                         'Data' => 1,
                                         'Header' => 'abi.hpp',
                                         'Line' => '4162',
                                         'MnglName' => '_ZN10outcome_v212basic_resultIE9predicate29implicit_constructors_enabledE',
                                         'Return' => '107',
                                         'ShortName' => 'implicit_constructors_enabled'
                                       },
                            '14281' => {
                                         'Artificial' => 1,
                                         'Class' => '12705',
                                         'Constructor' => 'C1',
                                         'Header' => 'abi.hpp',
                                         'Line' => '975',
                                         'MnglName' => '_ZN10outcome_v215in_place_type_tIlEC1ERS1_',
                                         'Param' => {
                                                      '0' => {
                                                               'algn' => '8',
                                                               'name' => 'this',
                                                               'type' => '14283'
                                                             },
                                                      '1' => {
                                                               'algn' => '8',
                                                               'name' => 'p1',
                                                               'type' => '14780'
                                                             }
                                                    },
                                         'ShortName' => 'in_place_type_t',
                                         'Throw' => 1
                                       },
                            '1445' => {
                                        'Data' => 1,
                                        'Header' => 'abi.hpp',
                                        'Line' => '1840',
                                        'MnglName' => '_ZN10outcome_v25traitL32type_can_be_used_in_basic_resultE',
                                        'NameSpace' => 'outcome_v2::trait',
                                        'Return' => '107',
                                        'ShortName' => 'type_can_be_used_in_basic_result',
                                        'Value' => '-1'
                                      },
                            '14469' => {
                                         'Class' => '3407',
                                         'Const' => 1,
                                         'Header' => 'abi.hpp',
                                         'InLine' => 1,
                                         'Line' => '2147',
                                         'MnglName' => '_ZNK10outcome_v26detail20status_bitfield_type10have_valueEv',
                                         'Param' => {
                                                      '0' => {
                                                               'algn' => '8',
                                                               'name' => 'this',
                                                               'type' => '15412'
                                                             }
                                                    },
                                         'Return' => '165',
                                         'ShortName' => 'have_value',
                                         'Throw' => 1
                                       },
                            '14476' => {
                                         'Artificial' => 1,
                                         'Class' => '11738',
                                         'Constructor' => 'C2',
                                         'Header' => 'abi.hpp',
                                         'Line' => '975',
                                         'MnglName' => '_ZN10outcome_v215in_place_type_tIiEC2ERKS1_',
                                         'Param' => {
                                                      '0' => {
                                                               'algn' => '8',
                                                               'name' => 'this',
                                                               'type' => '13481'
                                                             },
                                                      '1' => {
                                                               'algn' => '8',
                                                               'name' => 'p1',
                                                               'type' => '15418'
                                                             }
                                                    },
                                         'ShortName' => 'in_place_type_t',
                                         'Throw' => 1
                                       },
                            '14517' => {
                                         'Class' => '661',
                                         'Constructor' => 'C2',
                                         'Header' => 'abi.hpp',
                                         'Line' => '5119',
                                         'MnglName' => '_ZN10outcome_v213basic_outcomeIildNS_6policy10all_narrowEEC2ERNS0_IildS2_E36exception_converting_constructor_tagE',
                                         'Param' => {
                                                      '0' => {
                                                               'algn' => '8',
                                                               'name' => 'this',
                                                               'type' => '1418'
                                                             },
                                                      '1' => {
                                                               'algn' => '8',
                                                               'name' => 't',
                                                               'type' => '2842'
                                                             },
                                                      '2' => {
                                                               'algn' => '1',
                                                               'name' => 'p2',
                                                               'type' => '4195'
                                                             }
                                                    },
                                         'ShortName' => 'basic_outcome',
                                         'Throw' => 1
                                       },
                            '14528' => {
                                         'Class' => '11192',
                                         'Data' => 1,
                                         'Header' => 'abi.hpp',
                                         'Line' => '4177',
                                         'MnglName' => '_ZN10outcome_v212basic_resultIilNS_6policy10all_narrowEE9predicate45enable_error_condition_converting_constructorE',
                                         'Return' => '107',
                                         'ShortName' => 'enable_error_condition_converting_constructor'
                                       },
                            '14539' => {
                                         'Class' => '1188',
                                         'Constructor' => 'C1',
                                         'Header' => 'abi.hpp',
                                         'Line' => '4270',
                                         'MnglName' => '_ZN10outcome_v212basic_resultIilNS_6policy10all_narrowEEC1ERNS0_IilS2_E32error_converting_constructor_tagE',
                                         'Param' => {
                                                      '0' => {
                                                               'algn' => '8',
                                                               'name' => 'this',
                                                               'type' => '2001'
                                                             },
                                                      '1' => {
                                                               'algn' => '8',
                                                               'name' => 't',
                                                               'type' => '2842'
                                                             },
                                                      '2' => {
                                                               'algn' => '1',
                                                               'name' => 'p2',
                                                               'type' => '3447'
                                                             }
                                                    },
                                         'ShortName' => 'basic_result',
                                         'Throw' => 1
                                       },
                            '1456' => {
                                        'Class' => '1184',
                                        'Data' => 1,
                                        'Header' => 'abi.hpp',
                                        'Line' => '1861',
                                        'MnglName' => '_ZN10outcome_v25trait13is_error_typeIiE5valueE',
                                        'Return' => '107',
                                        'ShortName' => 'value',
                                        'Value' => 'false'
                                      },
                            '14596' => {
                                         'Class' => '14100',
                                         'Data' => 1,
                                         'Header' => 'abi.hpp',
                                         'Line' => '1056',
                                         'MnglName' => '_ZN10outcome_v26detail28_is_implicitly_constructibleIlRKN10outcome_v212basic_resultIilNS_6policy10all_narrowEEEE5valueE',
                                         'Return' => '107',
                                         'ShortName' => 'value',
                                         'Value' => 'false'
                                       },
                            '14602' => {
                                         'Data' => 1,
                                         'Header' => 'abi.hpp',
                                         'Line' => '1066',
                                         'MnglName' => '_ZN10outcome_v26detailL27is_implicitly_constructibleE',
                                         'NameSpace' => 'outcome_v2::detail',
                                         'Return' => '107',
                                         'ShortName' => 'is_implicitly_constructible',
                                         'Value' => '-1'
                                       },
                            '14679' => {
                                         'Class' => '13695',
                                         'Data' => 1,
                                         'Header' => 'abi.hpp',
                                         'Line' => '4984',
                                         'MnglName' => '_ZN10outcome_v213basic_outcomeIE9predicate29implicit_constructors_enabledE',
                                         'Return' => '107',
                                         'ShortName' => 'implicit_constructors_enabled'
                                       },
                            '147' => {
                                       'Data' => 1,
                                       'Header' => 'abi.hpp',
                                       'Line' => '1922',
                                       'MnglName' => '_ZN10outcome_v25traitL28is_exception_ptr_available_vE',
                                       'NameSpace' => 'outcome_v2::trait',
                                       'Return' => '107',
                                       'ShortName' => 'is_exception_ptr_available_v'
                                     },
                            '14939' => {
                                         'Class' => '11710',
                                         'Destructor' => 'D1',
                                         'Header' => 'exception',
                                         'Line' => '53',
                                         'MnglName' => '_ZNSt13bad_exceptionD1Ev',
                                         'ShortName' => 'bad_exception',
                                         'Throw' => 1,
                                         'Virt' => 1
                                       },
                            '14958' => {
                                         'Class' => '3407',
                                         'Const' => 1,
                                         'Header' => 'abi.hpp',
                                         'InLine' => 1,
                                         'Line' => '2151',
                                         'MnglName' => '_ZNK10outcome_v26detail20status_bitfield_type10have_errorEv',
                                         'Param' => {
                                                      '0' => {
                                                               'algn' => '8',
                                                               'name' => 'this',
                                                               'type' => '15412'
                                                             }
                                                    },
                                         'Return' => '165',
                                         'ShortName' => 'have_error',
                                         'Throw' => 1
                                       },
                            '14966' => {
                                         'Artificial' => 1,
                                         'Class' => '11738',
                                         'Constructor' => 'C1',
                                         'Header' => 'abi.hpp',
                                         'Line' => '975',
                                         'MnglName' => '_ZN10outcome_v215in_place_type_tIiEC1ERKS1_',
                                         'Param' => {
                                                      '0' => {
                                                               'algn' => '8',
                                                               'name' => 'this',
                                                               'type' => '13481'
                                                             },
                                                      '1' => {
                                                               'algn' => '8',
                                                               'name' => 'p1',
                                                               'type' => '15418'
                                                             }
                                                    },
                                         'ShortName' => 'in_place_type_t',
                                         'Throw' => 1
                                       },
                            '14993' => {
                                         'Class' => '12966',
                                         'Data' => 1,
                                         'Header' => 'abi.hpp',
                                         'Line' => '4987',
                                         'MnglName' => '_ZN10outcome_v213basic_outcomeIildNS_6policy10all_narrowEE9predicate35enable_value_converting_constructorE',
                                         'Return' => '107',
                                         'ShortName' => 'enable_value_converting_constructor'
                                       },
                            '15002' => {
                                         'Class' => '661',
                                         'Constructor' => 'C1',
                                         'Header' => 'abi.hpp',
                                         'Line' => '5119',
                                         'MnglName' => '_ZN10outcome_v213basic_outcomeIildNS_6policy10all_narrowEEC1ERNS0_IildS2_E36exception_converting_constructor_tagE',
                                         'Param' => {
                                                      '0' => {
                                                               'algn' => '8',
                                                               'name' => 'this',
                                                               'type' => '1418'
                                                             },
                                                      '1' => {
                                                               'algn' => '8',
                                                               'name' => 't',
                                                               'type' => '2842'
                                                             },
                                                      '2' => {
                                                               'algn' => '1',
                                                               'name' => 'p2',
                                                               'type' => '4195'
                                                             }
                                                    },
                                         'ShortName' => 'basic_outcome',
                                         'Throw' => 1
                                       },
                            '15013' => {
                                         'Class' => '11192',
                                         'Data' => 1,
                                         'Header' => 'abi.hpp',
                                         'Line' => '4183',
                                         'MnglName' => '_ZN10outcome_v212basic_resultIilNS_6policy10all_narrowEE9predicate28enable_compatible_conversionE',
                                         'Return' => '107',
                                         'ShortName' => 'enable_compatible_conversion'
                                       },
                            '15066' => {
                                         'Class' => '14599',
                                         'Data' => 1,
                                         'Header' => 'abi.hpp',
                                         'Line' => '1056',
                                         'MnglName' => '_ZN10outcome_v26detail28_is_implicitly_constructibleIiRKN10outcome_v212basic_resultIilNS_6policy10all_narrowEEEE5valueE',
                                         'Return' => '107',
                                         'ShortName' => 'value',
                                         'Value' => 'false'
                                       },
                            '15072' => {
                                         'Data' => 1,
                                         'Header' => 'abi.hpp',
                                         'Line' => '1066',
                                         'MnglName' => '_ZN10outcome_v26detailL27is_implicitly_constructibleE',
                                         'NameSpace' => 'outcome_v2::detail',
                                         'Return' => '107',
                                         'ShortName' => 'is_implicitly_constructible',
                                         'Value' => '-1'
                                       },
                            '15117' => {
                                         'Class' => '9574',
                                         'Destructor' => 'D1',
                                         'Header' => 'nested_exception.h',
                                         'Line' => '63',
                                         'MnglName' => '_ZNSt16nested_exceptionD1Ev',
                                         'ShortName' => 'nested_exception',
                                         'Throw' => 1,
                                         'Virt' => 1
                                       },
                            '15181' => {
                                         'Class' => '13194',
                                         'Data' => 1,
                                         'Header' => 'abi.hpp',
                                         'Line' => '4165',
                                         'MnglName' => '_ZN10outcome_v212basic_resultIE9predicate35enable_value_converting_constructorE',
                                         'Return' => '107',
                                         'ShortName' => 'enable_value_converting_constructor'
                                       },
                            '15238' => {
                                         'Artificial' => 1,
                                         'Class' => '12705',
                                         'Constructor' => 'C2',
                                         'Header' => 'abi.hpp',
                                         'Line' => '975',
                                         'MnglName' => '_ZN10outcome_v215in_place_type_tIlEC2ERKS1_',
                                         'Param' => {
                                                      '0' => {
                                                               'algn' => '8',
                                                               'name' => 'this',
                                                               'type' => '14283'
                                                             },
                                                      '1' => {
                                                               'algn' => '8',
                                                               'name' => 'p1',
                                                               'type' => '16129'
                                                             }
                                                    },
                                         'ShortName' => 'in_place_type_t',
                                         'Throw' => 1
                                       },
                            '1533' => {
                                        'Data' => 1,
                                        'Header' => 'abi.hpp',
                                        'Line' => '3265',
                                        'MnglName' => '_ZN10outcome_v28conceptsL14value_or_errorE',
                                        'NameSpace' => 'outcome_v2::concepts',
                                        'Return' => '107',
                                        'ShortName' => 'value_or_error'
                                      },
                            '15369' => {
                                         'Class' => '14918',
                                         'Data' => 1,
                                         'Header' => 'abi.hpp',
                                         'Line' => '3006',
                                         'MnglName' => '_ZN10outcome_v26detail18is_storage_trivialIE5valueE',
                                         'Return' => '107',
                                         'ShortName' => 'value'
                                       },
                            '1538' => {
                                        'Data' => 1,
                                        'Header' => 'abi.hpp',
                                        'Line' => '4078',
                                        'MnglName' => '_ZN10outcome_v28conceptsL12basic_resultE',
                                        'NameSpace' => 'outcome_v2::concepts',
                                        'Return' => '107',
                                        'ShortName' => 'basic_result',
                                        'Value' => 'false'
                                      },
                            '15388' => {
                                         'Class' => '11710',
                                         'Destructor' => 'D0',
                                         'Header' => 'exception',
                                         'Line' => '53',
                                         'MnglName' => '_ZNSt13bad_exceptionD0Ev',
                                         'ShortName' => 'bad_exception',
                                         'Throw' => 1,
                                         'Virt' => 1
                                       },
                            '15409' => {
                                         'Class' => '3407',
                                         'Const' => 1,
                                         'Header' => 'abi.hpp',
                                         'InLine' => 1,
                                         'Line' => '2155',
                                         'MnglName' => '_ZNK10outcome_v26detail20status_bitfield_type14have_exceptionEv',
                                         'Param' => {
                                                      '0' => {
                                                               'algn' => '8',
                                                               'name' => 'this',
                                                               'type' => '15412'
                                                             }
                                                    },
                                         'Return' => '165',
                                         'ShortName' => 'have_exception',
                                         'Throw' => 1
                                       },
                            '1542' => {
                                        'Data' => 1,
                                        'Header' => 'abi.hpp',
                                        'Line' => '4888',
                                        'MnglName' => '_ZN10outcome_v28conceptsL13basic_outcomeE',
                                        'NameSpace' => 'outcome_v2::concepts',
                                        'Return' => '107',
                                        'ShortName' => 'basic_outcome',
                                        'Value' => '-1'
                                      },
                            '15440' => {
                                         'Class' => '12966',
                                         'Data' => 1,
                                         'Header' => 'abi.hpp',
                                         'Line' => '4993',
                                         'MnglName' => '_ZN10outcome_v213basic_outcomeIildNS_6policy10all_narrowEE9predicate35enable_error_converting_constructorE',
                                         'Return' => '107',
                                         'ShortName' => 'enable_error_converting_constructor'
                                       },
                            '1545' => {
                                        'Class' => '1015',
                                        'Data' => 1,
                                        'Header' => 'abi.hpp',
                                        'Line' => '3300',
                                        'MnglName' => '_ZN10outcome_v27convert14value_or_errorIE21enable_outcome_inputsE',
                                        'Return' => '107',
                                        'ShortName' => 'enable_outcome_inputs',
                                        'Value' => 'false'
                                      },
                            '15458' => {
                                         'Class' => '11192',
                                         'Data' => 1,
                                         'Header' => 'abi.hpp',
                                         'Line' => '4189',
                                         'MnglName' => '_ZN10outcome_v212basic_resultIilNS_6policy10all_narrowEE9predicate44enable_make_error_code_compatible_conversionE',
                                         'Return' => '107',
                                         'ShortName' => 'enable_make_error_code_compatible_conversion'
                                       },
                            '15470' => {
                                         'Class' => '1188',
                                         'Constructor' => 'C2',
                                         'Header' => 'abi.hpp',
                                         'Line' => '4282',
                                         'MnglName' => '_ZN10outcome_v212basic_resultIilNS_6policy10all_narrowEEC2ERNS0_IilS2_E42error_condition_converting_constructor_tagE',
                                         'Param' => {
                                                      '0' => {
                                                               'algn' => '8',
                                                               'name' => 'this',
                                                               'type' => '2001'
                                                             },
                                                      '1' => {
                                                               'algn' => '8',
                                                               'name' => 't',
                                                               'type' => '3962'
                                                             },
                                                      '2' => {
                                                               'algn' => '1',
                                                               'name' => 'p2',
                                                               'type' => '3802'
                                                             }
                                                    },
                                         'ShortName' => 'basic_result',
                                         'Throw' => 1
                                       },
                            '1551' => {
                                        'Class' => '1280',
                                        'Data' => 1,
                                        'Header' => 'abi.hpp',
                                        'Line' => '3299',
                                        'MnglName' => '_ZN10outcome_v27convert14value_or_errorIN10outcome_v213basic_outcomeIildNS_6policy10all_narrowEEENS2_IildS4_EEE20enable_result_inputsE',
                                        'Return' => '107',
                                        'ShortName' => 'enable_result_inputs',
                                        'Value' => 'false'
                                      },
                            '15512' => {
                                         'Class' => '15069',
                                         'Data' => 1,
                                         'Header' => 'abi.hpp',
                                         'Line' => '1056',
                                         'MnglName' => '_ZN10outcome_v26detail28_is_implicitly_constructibleIliE5valueE',
                                         'Return' => '107',
                                         'ShortName' => 'value',
                                         'Value' => '-1'
                                       },
                            '1552' => {
                                        'Artificial' => 1,
                                        'Class' => '1280',
                                        'Destructor' => 1,
                                        'Header' => 'abi.hpp',
                                        'Line' => '3297',
                                        'MnglName' => '_ZN10outcome_v27convert14value_or_errorIN10outcome_v213basic_outcomeIildNS_6policy10all_narrowEEENS2_IildS4_EEED0Ev',
                                        'ShortName' => 'value_or_error',
                                        'Throw' => 1
                                      },
                            '15557' => {
                                         'Class' => '9574',
                                         'Destructor' => 'D0',
                                         'Header' => 'nested_exception.h',
                                         'Line' => '63',
                                         'MnglName' => '_ZNSt16nested_exceptionD0Ev',
                                         'ShortName' => 'nested_exception',
                                         'Throw' => 1,
                                         'Virt' => 1
                                       },
                            '15578' => {
                                         'Class' => '13695',
                                         'Data' => 1,
                                         'Header' => 'abi.hpp',
                                         'Line' => '4987',
                                         'MnglName' => '_ZN10outcome_v213basic_outcomeIE9predicate35enable_value_converting_constructorE',
                                         'Return' => '107',
                                         'ShortName' => 'enable_value_converting_constructor'
                                       },
                            '15628' => {
                                         'Class' => '13194',
                                         'Data' => 1,
                                         'Header' => 'abi.hpp',
                                         'Line' => '4171',
                                         'MnglName' => '_ZN10outcome_v212basic_resultIE9predicate35enable_error_converting_constructorE',
                                         'Return' => '107',
                                         'ShortName' => 'enable_error_converting_constructor'
                                       },
                            '15633' => {
                                         'Class' => '11192',
                                         'Data' => 1,
                                         'Header' => 'abi.hpp',
                                         'Line' => '4165',
                                         'MnglName' => '_ZN10outcome_v212basic_resultIilNS_6policy10all_narrowEE9predicate35enable_value_converting_constructorE',
                                         'Return' => '107',
                                         'ShortName' => 'enable_value_converting_constructor',
                                         'Value' => 'false'
                                       },
                            '15688' => {
                                         'Artificial' => 1,
                                         'Class' => '12705',
                                         'Constructor' => 'C1',
                                         'Header' => 'abi.hpp',
                                         'Line' => '975',
                                         'MnglName' => '_ZN10outcome_v215in_place_type_tIlEC1ERKS1_',
                                         'Param' => {
                                                      '0' => {
                                                               'algn' => '8',
                                                               'name' => 'this',
                                                               'type' => '14283'
                                                             },
                                                      '1' => {
                                                               'algn' => '8',
                                                               'name' => 'p1',
                                                               'type' => '16129'
                                                             }
                                                    },
                                         'ShortName' => 'in_place_type_t',
                                         'Throw' => 1
                                       },
                            '15823' => {
                                         'Class' => '11710',
                                         'Const' => 1,
                                         'Header' => 'exception',
                                         'Line' => '57',
                                         'MnglName' => '_ZNKSt13bad_exception4whatEv',
                                         'Param' => {
                                                      '0' => {
                                                               'algn' => '8',
                                                               'name' => 'this',
                                                               'type' => '16725'
                                                             }
                                                    },
                                         'Return' => '2374',
                                         'ShortName' => 'what',
                                         'Throw' => 1,
                                         'Virt' => 1
                                       },
                            '15844' => {
                                         'Class' => '3407',
                                         'Const' => 1,
                                         'Header' => 'abi.hpp',
                                         'InLine' => 1,
                                         'Line' => '2159',
                                         'MnglName' => '_ZNK10outcome_v26detail20status_bitfield_type21have_lost_consistencyEv',
                                         'Param' => {
                                                      '0' => {
                                                               'algn' => '8',
                                                               'name' => 'this',
                                                               'type' => '15412'
                                                             }
                                                    },
                                         'Return' => '165',
                                         'ShortName' => 'have_lost_consistency',
                                         'Throw' => 1
                                       },
                            '15850' => {
                                         'Class' => '11738',
                                         'Constructor' => 'C2',
                                         'Header' => 'abi.hpp',
                                         'Line' => '977',
                                         'MnglName' => '_ZN10outcome_v215in_place_type_tIiEC2Ev',
                                         'Param' => {
                                                      '0' => {
                                                               'algn' => '8',
                                                               'name' => 'this',
                                                               'type' => '13481'
                                                             }
                                                    },
                                         'ShortName' => 'in_place_type_t',
                                         'Throw' => 1
                                       },
                            '15869' => {
                                         'Class' => '12966',
                                         'Data' => 1,
                                         'Header' => 'abi.hpp',
                                         'Line' => '4999',
                                         'MnglName' => '_ZN10outcome_v213basic_outcomeIildNS_6policy10all_narrowEE9predicate45enable_error_condition_converting_constructorE',
                                         'Return' => '107',
                                         'ShortName' => 'enable_error_condition_converting_constructor'
                                       },
                            '15879' => {
                                         'Class' => '661',
                                         'Constructor' => 'C2',
                                         'Header' => 'abi.hpp',
                                         'Line' => '5132',
                                         'MnglName' => '_ZN10outcome_v213basic_outcomeIildNS_6policy10all_narrowEEC2ERRNS0_IildS2_E42error_exception_converting_constructor_tagE',
                                         'Param' => {
                                                      '0' => {
                                                               'algn' => '8',
                                                               'name' => 'this',
                                                               'type' => '1418'
                                                             },
                                                      '1' => {
                                                               'algn' => '8',
                                                               'name' => 'a',
                                                               'type' => '2842'
                                                             },
                                                      '2' => {
                                                               'algn' => '8',
                                                               'name' => 'b',
                                                               'type' => '652'
                                                             },
                                                      '3' => {
                                                               'algn' => '1',
                                                               'name' => 'p3',
                                                               'type' => '4625'
                                                             }
                                                    },
                                         'ShortName' => 'basic_outcome',
                                         'Throw' => 1
                                       },
                            '15891' => {
                                         'Class' => '11192',
                                         'Data' => 1,
                                         'Header' => 'abi.hpp',
                                         'Line' => '4195',
                                         'MnglName' => '_ZN10outcome_v212basic_resultIilNS_6policy10all_narrowEE9predicate47enable_make_exception_ptr_compatible_conversionE',
                                         'Return' => '107',
                                         'ShortName' => 'enable_make_exception_ptr_compatible_conversion'
                                       },
                            '15905' => {
                                         'Class' => '1188',
                                         'Constructor' => 'C1',
                                         'Header' => 'abi.hpp',
                                         'Line' => '4282',
                                         'MnglName' => '_ZN10outcome_v212basic_resultIilNS_6policy10all_narrowEEC1ERNS0_IilS2_E42error_condition_converting_constructor_tagE',
                                         'Param' => {
                                                      '0' => {
                                                               'algn' => '8',
                                                               'name' => 'this',
                                                               'type' => '2001'
                                                             },
                                                      '1' => {
                                                               'algn' => '8',
                                                               'name' => 't',
                                                               'type' => '3962'
                                                             },
                                                      '2' => {
                                                               'algn' => '1',
                                                               'name' => 'p2',
                                                               'type' => '3802'
                                                             }
                                                    },
                                         'ShortName' => 'basic_result',
                                         'Throw' => 1
                                       },
                            '15942' => {
                                         'Class' => '15515',
                                         'Data' => 1,
                                         'Header' => 'abi.hpp',
                                         'Line' => '1056',
                                         'MnglName' => '_ZN10outcome_v26detail28_is_implicitly_constructibleIilE5valueE',
                                         'Return' => '107',
                                         'ShortName' => 'value',
                                         'Value' => '-1'
                                       },
                            '16011' => {
                                         'Class' => '13695',
                                         'Data' => 1,
                                         'Header' => 'abi.hpp',
                                         'Line' => '4993',
                                         'MnglName' => '_ZN10outcome_v213basic_outcomeIE9predicate35enable_error_converting_constructorE',
                                         'Return' => '107',
                                         'ShortName' => 'enable_error_converting_constructor'
                                       },
                            '16016' => {
                                         'Class' => '12966',
                                         'Data' => 1,
                                         'Header' => 'abi.hpp',
                                         'Line' => '4987',
                                         'MnglName' => '_ZN10outcome_v213basic_outcomeIildNS_6policy10all_narrowEE9predicate35enable_value_converting_constructorE',
                                         'Return' => '107',
                                         'ShortName' => 'enable_value_converting_constructor',
                                         'Value' => 'false'
                                       },
                            '16065' => {
                                         'Class' => '13194',
                                         'Data' => 1,
                                         'Header' => 'abi.hpp',
                                         'Line' => '4177',
                                         'MnglName' => '_ZN10outcome_v212basic_resultIE9predicate45enable_error_condition_converting_constructorE',
                                         'Return' => '107',
                                         'ShortName' => 'enable_error_condition_converting_constructor'
                                       },
                            '16070' => {
                                         'Class' => '11192',
                                         'Data' => 1,
                                         'Header' => 'abi.hpp',
                                         'Line' => '4171',
                                         'MnglName' => '_ZN10outcome_v212basic_resultIilNS_6policy10all_narrowEE9predicate35enable_error_converting_constructorE',
                                         'Return' => '107',
                                         'ShortName' => 'enable_error_converting_constructor',
                                         'Value' => 'false'
                                       },
                            '16078' => {
                                         'Class' => '11192',
                                         'Data' => 1,
                                         'Header' => 'abi.hpp',
                                         'Line' => '4165',
                                         'MnglName' => '_ZN10outcome_v212basic_resultIilNS_6policy10all_narrowEE9predicate35enable_value_converting_constructorE',
                                         'Return' => '107',
                                         'ShortName' => 'enable_value_converting_constructor',
                                         'Value' => 'false'
                                       },
                            '16280' => {
                                         'Class' => '3407',
                                         'Const' => 1,
                                         'Header' => 'abi.hpp',
                                         'InLine' => 1,
                                         'Line' => '2163',
                                         'MnglName' => '_ZNK10outcome_v26detail20status_bitfield_type19have_error_is_errnoEv',
                                         'Param' => {
                                                      '0' => {
                                                               'algn' => '8',
                                                               'name' => 'this',
                                                               'type' => '15412'
                                                             }
                                                    },
                                         'Return' => '165',
                                         'ShortName' => 'have_error_is_errno',
                                         'Throw' => 1
                                       },
                            '16289' => {
                                         'Class' => '11738',
                                         'Constructor' => 'C1',
                                         'Header' => 'abi.hpp',
                                         'Line' => '977',
                                         'MnglName' => '_ZN10outcome_v215in_place_type_tIiEC1Ev',
                                         'Param' => {
                                                      '0' => {
                                                               'algn' => '8',
                                                               'name' => 'this',
                                                               'type' => '13481'
                                                             }
                                                    },
                                         'ShortName' => 'in_place_type_t',
                                         'Throw' => 1
                                       },
                            '16307' => {
                                         'Class' => '12966',
                                         'Data' => 1,
                                         'Header' => 'abi.hpp',
                                         'Line' => '5005',
                                         'MnglName' => '_ZN10outcome_v213basic_outcomeIildNS_6policy10all_narrowEE9predicate39enable_exception_converting_constructorE',
                                         'Return' => '107',
                                         'ShortName' => 'enable_exception_converting_constructor'
                                       },
                            '16320' => {
                                         'Class' => '661',
                                         'Constructor' => 'C1',
                                         'Header' => 'abi.hpp',
                                         'Line' => '5132',
                                         'MnglName' => '_ZN10outcome_v213basic_outcomeIildNS_6policy10all_narrowEEC1ERRNS0_IildS2_E42error_exception_converting_constructor_tagE',
                                         'Param' => {
                                                      '0' => {
                                                               'algn' => '8',
                                                               'name' => 'this',
                                                               'type' => '1418'
                                                             },
                                                      '1' => {
                                                               'algn' => '8',
                                                               'name' => 'a',
                                                               'type' => '2842'
                                                             },
                                                      '2' => {
                                                               'algn' => '8',
                                                               'name' => 'b',
                                                               'type' => '652'
                                                             },
                                                      '3' => {
                                                               'algn' => '1',
                                                               'name' => 'p3',
                                                               'type' => '4625'
                                                             }
                                                    },
                                         'ShortName' => 'basic_outcome',
                                         'Throw' => 1
                                       },
                            '16335' => {
                                         'Class' => '11192',
                                         'Data' => 1,
                                         'Header' => 'abi.hpp',
                                         'Line' => '4201',
                                         'MnglName' => '_ZN10outcome_v212basic_resultIilNS_6policy10all_narrowEE9predicate32enable_inplace_value_constructorE',
                                         'Return' => '107',
                                         'ShortName' => 'enable_inplace_value_constructor'
                                       },
                            '16385' => {
                                         'Class' => '15945',
                                         'Data' => 1,
                                         'Header' => 'abi.hpp',
                                         'Line' => '1064',
                                         'MnglName' => '_ZN10outcome_v26detail28_is_implicitly_constructibleIvvE5valueE',
                                         'Return' => '107',
                                         'ShortName' => 'value',
                                         'Value' => 'false'
                                       },
                            '16453' => {
                                         'Class' => '13695',
                                         'Data' => 1,
                                         'Header' => 'abi.hpp',
                                         'Line' => '4999',
                                         'MnglName' => '_ZN10outcome_v213basic_outcomeIE9predicate45enable_error_condition_converting_constructorE',
                                         'Return' => '107',
                                         'ShortName' => 'enable_error_condition_converting_constructor'
                                       },
                            '16458' => {
                                         'Class' => '12966',
                                         'Data' => 1,
                                         'Header' => 'abi.hpp',
                                         'Line' => '4993',
                                         'MnglName' => '_ZN10outcome_v213basic_outcomeIildNS_6policy10all_narrowEE9predicate35enable_error_converting_constructorE',
                                         'Return' => '107',
                                         'ShortName' => 'enable_error_converting_constructor',
                                         'Value' => 'false'
                                       },
                            '16466' => {
                                         'Class' => '12966',
                                         'Data' => 1,
                                         'Header' => 'abi.hpp',
                                         'Line' => '4987',
                                         'MnglName' => '_ZN10outcome_v213basic_outcomeIildNS_6policy10all_narrowEE9predicate35enable_value_converting_constructorE',
                                         'Return' => '107',
                                         'ShortName' => 'enable_value_converting_constructor',
                                         'Value' => 'false'
                                       },
                            '16518' => {
                                         'Class' => '13194',
                                         'Data' => 1,
                                         'Header' => 'abi.hpp',
                                         'Line' => '4183',
                                         'MnglName' => '_ZN10outcome_v212basic_resultIE9predicate28enable_compatible_conversionE',
                                         'Return' => '107',
                                         'ShortName' => 'enable_compatible_conversion'
                                       },
                            '16529' => {
                                         'Class' => '11192',
                                         'Data' => 1,
                                         'Header' => 'abi.hpp',
                                         'Line' => '4171',
                                         'MnglName' => '_ZN10outcome_v212basic_resultIilNS_6policy10all_narrowEE9predicate35enable_error_converting_constructorE',
                                         'Return' => '107',
                                         'ShortName' => 'enable_error_converting_constructor',
                                         'Value' => 'false'
                                       },
                            '16571' => {
                                         'Class' => '12705',
                                         'Constructor' => 'C2',
                                         'Header' => 'abi.hpp',
                                         'Line' => '977',
                                         'MnglName' => '_ZN10outcome_v215in_place_type_tIlEC2Ev',
                                         'Param' => {
                                                      '0' => {
                                                               'algn' => '8',
                                                               'name' => 'this',
                                                               'type' => '14283'
                                                             }
                                                    },
                                         'ShortName' => 'in_place_type_t',
                                         'Throw' => 1
                                       },
                            '1669' => {
                                        'Artificial' => 1,
                                        'Class' => '1399',
                                        'Destructor' => 1,
                                        'Header' => 'abi.hpp',
                                        'Line' => '3371',
                                        'MnglName' => '_ZN10outcome_v26detail28basic_result_error_observersIN10outcome_v26detail28basic_result_value_observersINS0_20basic_result_storageIilNS_6policy10all_narrowEEEiS5_EElS5_ED0Ev',
                                        'ShortName' => 'basic_result_error_observers',
                                        'Throw' => 1
                                      },
                            '16717' => {
                                         'Class' => '16260',
                                         'Data' => 1,
                                         'Header' => 'abi.hpp',
                                         'Line' => '3006',
                                         'MnglName' => '_ZN10outcome_v26detail18is_storage_trivialIlE5valueE',
                                         'Return' => '107',
                                         'ShortName' => 'value',
                                         'Value' => '-1'
                                       },
                            '1673' => {
                                        'Artificial' => 1,
                                        'Class' => '1131',
                                        'Destructor' => 'D2',
                                        'Header' => 'abi.hpp',
                                        'Line' => '3516',
                                        'MnglName' => '_ZN10outcome_v26detail18basic_result_finalIilNS_6policy10all_narrowEED2Ev',
                                        'ShortName' => 'basic_result_final',
                                        'Throw' => 1
                                      },
                            '16742' => {
                                         'Class' => '3407',
                                         'Const' => 1,
                                         'Header' => 'abi.hpp',
                                         'InLine' => 1,
                                         'Line' => '2167',
                                         'MnglName' => '_ZNK10outcome_v26detail20status_bitfield_type15have_moved_fromEv',
                                         'Param' => {
                                                      '0' => {
                                                               'algn' => '8',
                                                               'name' => 'this',
                                                               'type' => '15412'
                                                             }
                                                    },
                                         'Return' => '165',
                                         'ShortName' => 'have_moved_from',
                                         'Throw' => 1
                                       },
                            '16767' => {
                                         'Class' => '12966',
                                         'Data' => 1,
                                         'Header' => 'abi.hpp',
                                         'Line' => '5011',
                                         'MnglName' => '_ZN10outcome_v213basic_outcomeIildNS_6policy10all_narrowEE9predicate45enable_error_exception_converting_constructorE',
                                         'Return' => '107',
                                         'ShortName' => 'enable_error_exception_converting_constructor'
                                       },
                            '16793' => {
                                         'Class' => '11192',
                                         'Data' => 1,
                                         'Header' => 'abi.hpp',
                                         'Line' => '4207',
                                         'MnglName' => '_ZN10outcome_v212basic_resultIilNS_6policy10all_narrowEE9predicate32enable_inplace_error_constructorE',
                                         'Return' => '107',
                                         'ShortName' => 'enable_inplace_error_constructor'
                                       },
                            '1680' => {
                                        'Artificial' => 1,
                                        'Class' => '871',
                                        'Constructor' => 'C1',
                                        'Header' => 'abi.hpp',
                                        'Line' => '4617',
                                        'MnglName' => '_ZN10outcome_v26detail33basic_outcome_exception_observersINS0_18basic_result_finalIilNS_6policy10all_narrowEEEildS4_EC1ERNS1_INS2_IilS4_EEildS4_EE',
                                        'Param' => {
                                                     '0' => {
                                                              'algn' => '8',
                                                              'name' => 'this',
                                                              'type' => '1682'
                                                            },
                                                     '1' => {
                                                              'algn' => '8',
                                                              'name' => 'p1',
                                                              'type' => '1956'
                                                            }
                                                   },
                                        'ShortName' => 'basic_outcome_exception_observers',
                                        'Throw' => 1
                                      },
                            '16811' => {
                                         'Class' => '1188',
                                         'Constructor' => 'C2',
                                         'Header' => 'abi.hpp',
                                         'Line' => '4294',
                                         'MnglName' => '_ZN10outcome_v212basic_resultIilNS_6policy10all_narrowEEC2ERNS0_IilS2_E48explicit_valueorerror_converting_constructor_tagE',
                                         'Param' => {
                                                      '0' => {
                                                               'algn' => '8',
                                                               'name' => 'this',
                                                               'type' => '2001'
                                                             },
                                                      '1' => {
                                                               'algn' => '8',
                                                               'name' => 'o',
                                                               'type' => '2842'
                                                             },
                                                      '2' => {
                                                               'algn' => '1',
                                                               'name' => 'p2',
                                                               'type' => '4636'
                                                             }
                                                    },
                                         'ShortName' => 'basic_result'
                                       },
                            '16920' => {
                                         'Class' => '13695',
                                         'Data' => 1,
                                         'Header' => 'abi.hpp',
                                         'Line' => '5005',
                                         'MnglName' => '_ZN10outcome_v213basic_outcomeIE9predicate39enable_exception_converting_constructorE',
                                         'Return' => '107',
                                         'ShortName' => 'enable_exception_converting_constructor'
                                       },
                            '16931' => {
                                         'Class' => '12966',
                                         'Data' => 1,
                                         'Header' => 'abi.hpp',
                                         'Line' => '4993',
                                         'MnglName' => '_ZN10outcome_v213basic_outcomeIildNS_6policy10all_narrowEE9predicate35enable_error_converting_constructorE',
                                         'Return' => '107',
                                         'ShortName' => 'enable_error_converting_constructor',
                                         'Value' => 'false'
                                       },
                            '16982' => {
                                         'Class' => '13194',
                                         'Data' => 1,
                                         'Header' => 'abi.hpp',
                                         'Line' => '4189',
                                         'MnglName' => '_ZN10outcome_v212basic_resultIE9predicate44enable_make_error_code_compatible_conversionE',
                                         'Return' => '107',
                                         'ShortName' => 'enable_make_error_code_compatible_conversion'
                                       },
                            '16987' => {
                                         'Class' => '11192',
                                         'Data' => 1,
                                         'Header' => 'abi.hpp',
                                         'Line' => '4183',
                                         'MnglName' => '_ZN10outcome_v212basic_resultIilNS_6policy10all_narrowEE9predicate28enable_compatible_conversionE',
                                         'Return' => '107',
                                         'ShortName' => 'enable_compatible_conversion',
                                         'Value' => 'false'
                                       },
                            '17035' => {
                                         'Class' => '12705',
                                         'Constructor' => 'C1',
                                         'Header' => 'abi.hpp',
                                         'Line' => '977',
                                         'MnglName' => '_ZN10outcome_v215in_place_type_tIlEC1Ev',
                                         'Param' => {
                                                      '0' => {
                                                               'algn' => '8',
                                                               'name' => 'this',
                                                               'type' => '14283'
                                                             }
                                                    },
                                         'ShortName' => 'in_place_type_t',
                                         'Throw' => 1
                                       },
                            '1716' => {
                                        'Data' => 1,
                                        'Header' => 'abi.hpp',
                                        'Line' => '1840',
                                        'MnglName' => '_ZN10outcome_v25traitL32type_can_be_used_in_basic_resultE',
                                        'NameSpace' => 'outcome_v2::trait',
                                        'Return' => '107',
                                        'ShortName' => 'type_can_be_used_in_basic_result',
                                        'Value' => '-1'
                                      },
                            '17187' => {
                                         'Class' => '16720',
                                         'Data' => 1,
                                         'Header' => 'abi.hpp',
                                         'Line' => '3006',
                                         'MnglName' => '_ZN10outcome_v26detail18is_storage_trivialIiE5valueE',
                                         'Return' => '107',
                                         'ShortName' => 'value',
                                         'Value' => '-1'
                                       },
                            '17210' => {
                                         'Class' => '3407',
                                         'Header' => 'abi.hpp',
                                         'InLine' => 1,
                                         'Line' => '2171',
                                         'MnglName' => '_ZN10outcome_v26detail20status_bitfield_type14set_have_valueEb',
                                         'Param' => {
                                                      '0' => {
                                                               'algn' => '8',
                                                               'name' => 'this',
                                                               'type' => '4592'
                                                             },
                                                      '1' => {
                                                               'algn' => '1',
                                                               'name' => 'v',
                                                               'type' => '165'
                                                             }
                                                    },
                                         'Return' => '13470',
                                         'ShortName' => 'set_have_value',
                                         'Throw' => 1
                                       },
                            '17234' => {
                                         'Class' => '12966',
                                         'Data' => 1,
                                         'Header' => 'abi.hpp',
                                         'Line' => '5017',
                                         'MnglName' => '_ZN10outcome_v213basic_outcomeIildNS_6policy10all_narrowEE9predicate28enable_compatible_conversionE',
                                         'Return' => '107',
                                         'ShortName' => 'enable_compatible_conversion'
                                       },
                            '17247' => {
                                         'Class' => '661',
                                         'Constructor' => 'C2',
                                         'Header' => 'abi.hpp',
                                         'Line' => '5147',
                                         'MnglName' => '_ZN10outcome_v213basic_outcomeIildNS_6policy10all_narrowEEC2ERNS0_IildS2_E48explicit_valueorerror_converting_constructor_tagE',
                                         'Param' => {
                                                      '0' => {
                                                               'algn' => '8',
                                                               'name' => 'this',
                                                               'type' => '1418'
                                                             },
                                                      '1' => {
                                                               'algn' => '8',
                                                               'name' => 'o',
                                                               'type' => '2842'
                                                             },
                                                      '2' => {
                                                               'algn' => '1',
                                                               'name' => 'p2',
                                                               'type' => '5070'
                                                             }
                                                    },
                                         'ShortName' => 'basic_outcome'
                                       },
                            '17263' => {
                                         'Class' => '11192',
                                         'Data' => 1,
                                         'Header' => 'abi.hpp',
                                         'Line' => '4213',
                                         'MnglName' => '_ZN10outcome_v212basic_resultIilNS_6policy10all_narrowEE9predicate38enable_inplace_value_error_constructorE',
                                         'Return' => '107',
                                         'ShortName' => 'enable_inplace_value_error_constructor'
                                       },
                            '17280' => {
                                         'Class' => '1188',
                                         'Constructor' => 'C1',
                                         'Header' => 'abi.hpp',
                                         'Line' => '4294',
                                         'MnglName' => '_ZN10outcome_v212basic_resultIilNS_6policy10all_narrowEEC1ERNS0_IilS2_E48explicit_valueorerror_converting_constructor_tagE',
                                         'Param' => {
                                                      '0' => {
                                                               'algn' => '8',
                                                               'name' => 'this',
                                                               'type' => '2001'
                                                             },
                                                      '1' => {
                                                               'algn' => '8',
                                                               'name' => 'o',
                                                               'type' => '2842'
                                                             },
                                                      '2' => {
                                                               'algn' => '1',
                                                               'name' => 'p2',
                                                               'type' => '4636'
                                                             }
                                                    },
                                         'ShortName' => 'basic_result'
                                       },
                            '1734' => {
                                        'Class' => '1188',
                                        'Constructor' => 'C2',
                                        'Header' => 'abi.hpp',
                                        'Line' => '4222',
                                        'MnglName' => '_ZN10outcome_v212basic_resultIilNS_6policy10all_narrowEEC2Ev',
                                        'Param' => {
                                                     '0' => {
                                                              'algn' => '8',
                                                              'name' => 'this',
                                                              'type' => '2001'
                                                            }
                                                   },
                                        'ShortName' => 'basic_result'
                                      },
                            '17396' => {
                                         'Class' => '13695',
                                         'Data' => 1,
                                         'Header' => 'abi.hpp',
                                         'Line' => '5011',
                                         'MnglName' => '_ZN10outcome_v213basic_outcomeIE9predicate45enable_error_exception_converting_constructorE',
                                         'Return' => '107',
                                         'ShortName' => 'enable_error_exception_converting_constructor'
                                       },
                            '17401' => {
                                         'Class' => '12966',
                                         'Data' => 1,
                                         'Header' => 'abi.hpp',
                                         'Line' => '5005',
                                         'MnglName' => '_ZN10outcome_v213basic_outcomeIildNS_6policy10all_narrowEE9predicate39enable_exception_converting_constructorE',
                                         'Return' => '107',
                                         'ShortName' => 'enable_exception_converting_constructor',
                                         'Value' => 'false'
                                       },
                            '17462' => {
                                         'Class' => '13194',
                                         'Data' => 1,
                                         'Header' => 'abi.hpp',
                                         'Line' => '4195',
                                         'MnglName' => '_ZN10outcome_v212basic_resultIE9predicate47enable_make_exception_ptr_compatible_conversionE',
                                         'Return' => '107',
                                         'ShortName' => 'enable_make_exception_ptr_compatible_conversion'
                                       },
                            '17467' => {
                                         'Class' => '11192',
                                         'Data' => 1,
                                         'Header' => 'abi.hpp',
                                         'Line' => '4189',
                                         'MnglName' => '_ZN10outcome_v212basic_resultIilNS_6policy10all_narrowEE9predicate44enable_make_error_code_compatible_conversionE',
                                         'Return' => '107',
                                         'ShortName' => 'enable_make_error_code_compatible_conversion',
                                         'Value' => 'false'
                                       },
                            '17705' => {
                                         'Class' => '3407',
                                         'Header' => 'abi.hpp',
                                         'InLine' => 1,
                                         'Line' => '2177',
                                         'MnglName' => '_ZN10outcome_v26detail20status_bitfield_type14set_have_errorEb',
                                         'Param' => {
                                                      '0' => {
                                                               'algn' => '8',
                                                               'name' => 'this',
                                                               'type' => '4592'
                                                             },
                                                      '1' => {
                                                               'algn' => '1',
                                                               'name' => 'v',
                                                               'type' => '165'
                                                             }
                                                    },
                                         'Return' => '13470',
                                         'ShortName' => 'set_have_error',
                                         'Throw' => 1
                                       },
                            '17732' => {
                                         'Class' => '12966',
                                         'Data' => 1,
                                         'Header' => 'abi.hpp',
                                         'Line' => '5023',
                                         'MnglName' => '_ZN10outcome_v213basic_outcomeIildNS_6policy10all_narrowEE9predicate44enable_make_error_code_compatible_conversionE',
                                         'Return' => '107',
                                         'ShortName' => 'enable_make_error_code_compatible_conversion'
                                       },
                            '17746' => {
                                         'Class' => '661',
                                         'Constructor' => 'C1',
                                         'Header' => 'abi.hpp',
                                         'Line' => '5147',
                                         'MnglName' => '_ZN10outcome_v213basic_outcomeIildNS_6policy10all_narrowEEC1ERNS0_IildS2_E48explicit_valueorerror_converting_constructor_tagE',
                                         'Param' => {
                                                      '0' => {
                                                               'algn' => '8',
                                                               'name' => 'this',
                                                               'type' => '1418'
                                                             },
                                                      '1' => {
                                                               'algn' => '8',
                                                               'name' => 'o',
                                                               'type' => '2842'
                                                             },
                                                      '2' => {
                                                               'algn' => '1',
                                                               'name' => 'p2',
                                                               'type' => '5070'
                                                             }
                                                    },
                                         'ShortName' => 'basic_outcome'
                                       },
                            '17890' => {
                                         'Class' => '13695',
                                         'Data' => 1,
                                         'Header' => 'abi.hpp',
                                         'Line' => '5017',
                                         'MnglName' => '_ZN10outcome_v213basic_outcomeIE9predicate28enable_compatible_conversionE',
                                         'Return' => '107',
                                         'ShortName' => 'enable_compatible_conversion'
                                       },
                            '17901' => {
                                         'Class' => '12966',
                                         'Data' => 1,
                                         'Header' => 'abi.hpp',
                                         'Line' => '5005',
                                         'MnglName' => '_ZN10outcome_v213basic_outcomeIildNS_6policy10all_narrowEE9predicate39enable_exception_converting_constructorE',
                                         'Return' => '107',
                                         'ShortName' => 'enable_exception_converting_constructor',
                                         'Value' => 'false'
                                       },
                            '1792' => {
                                        'Data' => 1,
                                        'Header' => 'abi.hpp',
                                        'Line' => '3260',
                                        'MnglName' => '_ZN10outcome_v28conceptsL13value_or_noneE',
                                        'NameSpace' => 'outcome_v2::concepts',
                                        'Return' => '107',
                                        'ShortName' => 'value_or_none'
                                      },
                            '1796' => {
                                        'Data' => 1,
                                        'Header' => 'abi.hpp',
                                        'Line' => '3265',
                                        'MnglName' => '_ZN10outcome_v28conceptsL14value_or_errorE',
                                        'NameSpace' => 'outcome_v2::concepts',
                                        'Return' => '107',
                                        'ShortName' => 'value_or_error',
                                        'Value' => '-1'
                                      },
                            '17964' => {
                                         'Class' => '13194',
                                         'Data' => 1,
                                         'Header' => 'abi.hpp',
                                         'Line' => '4201',
                                         'MnglName' => '_ZN10outcome_v212basic_resultIE9predicate32enable_inplace_value_constructorE',
                                         'Return' => '107',
                                         'ShortName' => 'enable_inplace_value_constructor'
                                       },
                            '17969' => {
                                         'Class' => '11192',
                                         'Data' => 1,
                                         'Header' => 'abi.hpp',
                                         'Line' => '4195',
                                         'MnglName' => '_ZN10outcome_v212basic_resultIilNS_6policy10all_narrowEE9predicate47enable_make_exception_ptr_compatible_conversionE',
                                         'Return' => '107',
                                         'ShortName' => 'enable_make_exception_ptr_compatible_conversion',
                                         'Value' => 'false'
                                       },
                            '180' => {
                                       'Class' => '54',
                                       'Data' => 1,
                                       'Header' => 'abi.hpp',
                                       'Line' => '1880',
                                       'MnglName' => '_ZN10outcome_v25trait6detail13detector_impl8detectorIzE5valueE',
                                       'Return' => '107',
                                       'ShortName' => 'value',
                                       'Value' => 'false'
                                     },
                            '1800' => {
                                        'Data' => 1,
                                        'Header' => 'abi.hpp',
                                        'Line' => '4078',
                                        'MnglName' => '_ZN10outcome_v28conceptsL12basic_resultE',
                                        'NameSpace' => 'outcome_v2::concepts',
                                        'Return' => '107',
                                        'ShortName' => 'basic_result',
                                        'Value' => 'false'
                                      },
                            '1812' => {
                                        'Class' => '1280',
                                        'Data' => 1,
                                        'Header' => 'abi.hpp',
                                        'Line' => '3300',
                                        'MnglName' => '_ZN10outcome_v27convert14value_or_errorIN10outcome_v213basic_outcomeIildNS_6policy10all_narrowEEENS2_IildS4_EEE21enable_outcome_inputsE',
                                        'Return' => '107',
                                        'ShortName' => 'enable_outcome_inputs',
                                        'Value' => 'false'
                                      },
                            '1814' => {
                                        'Artificial' => 1,
                                        'Class' => '1280',
                                        'Destructor' => 'D2',
                                        'Header' => 'abi.hpp',
                                        'Line' => '3297',
                                        'MnglName' => '_ZN10outcome_v27convert14value_or_errorIN10outcome_v213basic_outcomeIildNS_6policy10all_narrowEEENS2_IildS4_EEED2Ev',
                                        'ShortName' => 'value_or_error',
                                        'Throw' => 1
                                      },
                            '18216' => {
                                         'Class' => '3407',
                                         'Header' => 'abi.hpp',
                                         'InLine' => 1,
                                         'Line' => '2183',
                                         'MnglName' => '_ZN10outcome_v26detail20status_bitfield_type18set_have_exceptionEb',
                                         'Param' => {
                                                      '0' => {
                                                               'algn' => '8',
                                                               'name' => 'this',
                                                               'type' => '4592'
                                                             },
                                                      '1' => {
                                                               'algn' => '1',
                                                               'name' => 'v',
                                                               'type' => '165'
                                                             }
                                                    },
                                         'Return' => '13470',
                                         'ShortName' => 'set_have_exception',
                                         'Throw' => 1
                                       },
                            '18247' => {
                                         'Class' => '12966',
                                         'Data' => 1,
                                         'Header' => 'abi.hpp',
                                         'Line' => '5029',
                                         'MnglName' => '_ZN10outcome_v213basic_outcomeIildNS_6policy10all_narrowEE9predicate32enable_inplace_value_constructorE',
                                         'Return' => '107',
                                         'ShortName' => 'enable_inplace_value_constructor'
                                       },
                            '18399' => {
                                         'Class' => '13695',
                                         'Data' => 1,
                                         'Header' => 'abi.hpp',
                                         'Line' => '5023',
                                         'MnglName' => '_ZN10outcome_v213basic_outcomeIE9predicate44enable_make_error_code_compatible_conversionE',
                                         'Return' => '107',
                                         'ShortName' => 'enable_make_error_code_compatible_conversion'
                                       },
                            '18404' => {
                                         'Class' => '12966',
                                         'Data' => 1,
                                         'Header' => 'abi.hpp',
                                         'Line' => '5017',
                                         'MnglName' => '_ZN10outcome_v213basic_outcomeIildNS_6policy10all_narrowEE9predicate28enable_compatible_conversionE',
                                         'Return' => '107',
                                         'ShortName' => 'enable_compatible_conversion',
                                         'Value' => 'false'
                                       },
                            '18472' => {
                                         'Class' => '13194',
                                         'Data' => 1,
                                         'Header' => 'abi.hpp',
                                         'Line' => '4207',
                                         'MnglName' => '_ZN10outcome_v212basic_resultIE9predicate32enable_inplace_error_constructorE',
                                         'Return' => '107',
                                         'ShortName' => 'enable_inplace_error_constructor'
                                       },
                            '1860' => {
                                        'Class' => '1600',
                                        'Destructor' => 1,
                                        'Header' => 'typeinfo',
                                        'Line' => '95',
                                        'MnglName' => '_ZNSt9type_infoD2Ev',
                                        'ShortName' => 'type_info',
                                        'Throw' => 1,
                                        'Virt' => 1
                                      },
                            '187' => {
                                       'Class' => '54',
                                       'Data' => 1,
                                       'Header' => 'abi.hpp',
                                       'Line' => '1885',
                                       'MnglName' => '_ZN10outcome_v25trait6detail13detector_impl8detectorIzE5valueE',
                                       'Return' => '107',
                                       'ShortName' => 'value',
                                       'Value' => '-1'
                                     },
                            '18717' => {
                                         'Class' => '18198',
                                         'Data' => 1,
                                         'Header' => 'abi.hpp',
                                         'Line' => '3015',
                                         'MnglName' => '_ZN10outcome_v26detail18is_storage_trivialIvE5valueE',
                                         'Return' => '107',
                                         'ShortName' => 'value',
                                         'Value' => '-1'
                                       },
                            '18737' => {
                                         'Class' => '3407',
                                         'Header' => 'abi.hpp',
                                         'InLine' => 1,
                                         'Line' => '2189',
                                         'MnglName' => '_ZN10outcome_v26detail20status_bitfield_type23set_have_error_is_errnoEb',
                                         'Param' => {
                                                      '0' => {
                                                               'algn' => '8',
                                                               'name' => 'this',
                                                               'type' => '4592'
                                                             },
                                                      '1' => {
                                                               'algn' => '1',
                                                               'name' => 'v',
                                                               'type' => '165'
                                                             }
                                                    },
                                         'Return' => '13470',
                                         'ShortName' => 'set_have_error_is_errno',
                                         'Throw' => 1
                                       },
                            '18765' => {
                                         'Class' => '12966',
                                         'Data' => 1,
                                         'Header' => 'abi.hpp',
                                         'Line' => '5035',
                                         'MnglName' => '_ZN10outcome_v213basic_outcomeIildNS_6policy10all_narrowEE9predicate32enable_inplace_error_constructorE',
                                         'Return' => '107',
                                         'ShortName' => 'enable_inplace_error_constructor'
                                       },
                            '1882' => {
                                        'Data' => 1,
                                        'Header' => 'abi.hpp',
                                        'Line' => '4045',
                                        'MnglName' => '_ZN10outcome_v2L17is_basic_result_vE',
                                        'NameSpace' => 'outcome_v2',
                                        'Return' => '107',
                                        'ShortName' => 'is_basic_result_v'
                                      },
                            '18914' => {
                                         'Class' => '13695',
                                         'Data' => 1,
                                         'Header' => 'abi.hpp',
                                         'Line' => '5029',
                                         'MnglName' => '_ZN10outcome_v213basic_outcomeIE9predicate32enable_inplace_value_constructorE',
                                         'Return' => '107',
                                         'ShortName' => 'enable_inplace_value_constructor'
                                       },
                            '18995' => {
                                         'Class' => '13194',
                                         'Data' => 1,
                                         'Header' => 'abi.hpp',
                                         'Line' => '4213',
                                         'MnglName' => '_ZN10outcome_v212basic_resultIE9predicate38enable_inplace_value_error_constructorE',
                                         'Return' => '107',
                                         'ShortName' => 'enable_inplace_value_error_constructor'
                                       },
                            '1900' => {
                                        'Class' => '1646',
                                        'Data' => 1,
                                        'Header' => 'abi.hpp',
                                        'Line' => '4739',
                                        'MnglName' => '_ZN10outcome_v26detail18outcome_predicatesIE29implicit_constructors_enabledE',
                                        'Return' => '107',
                                        'ShortName' => 'implicit_constructors_enabled'
                                      },
                            '19250' => {
                                         'Class' => '18720',
                                         'Data' => 1,
                                         'Header' => 'abi.hpp',
                                         'Line' => '3011',
                                         'MnglName' => '_ZN10outcome_v26detail18is_storage_trivialIvE5valueE',
                                         'Return' => '107',
                                         'ShortName' => 'value',
                                         'Value' => '-1'
                                       },
                            '19266' => {
                                         'Class' => '3407',
                                         'Header' => 'abi.hpp',
                                         'InLine' => 1,
                                         'Line' => '2195',
                                         'MnglName' => '_ZN10outcome_v26detail20status_bitfield_type25set_have_lost_consistencyEb',
                                         'Param' => {
                                                      '0' => {
                                                               'algn' => '8',
                                                               'name' => 'this',
                                                               'type' => '4592'
                                                             },
                                                      '1' => {
                                                               'algn' => '1',
                                                               'name' => 'v',
                                                               'type' => '165'
                                                             }
                                                    },
                                         'Return' => '13470',
                                         'ShortName' => 'set_have_lost_consistency',
                                         'Throw' => 1
                                       },
                            '19297' => {
                                         'Class' => '12966',
                                         'Data' => 1,
                                         'Header' => 'abi.hpp',
                                         'Line' => '5041',
                                         'MnglName' => '_ZN10outcome_v213basic_outcomeIildNS_6policy10all_narrowEE9predicate36enable_inplace_exception_constructorE',
                                         'Return' => '107',
                                         'ShortName' => 'enable_inplace_exception_constructor'
                                       },
                            '1932' => {
                                        'Artificial' => 1,
                                        'Class' => '1667',
                                        'Header' => 'abi.hpp',
                                        'Line' => '3455',
                                        'MnglName' => '_ZN10outcome_v26detail28basic_result_value_observersINS0_20basic_result_storageIilNS_6policy10all_narrowEEEiS4_EaSERNS1_INS2_IilS4_EEiS4_EE',
                                        'Param' => {
                                                     '0' => {
                                                              'algn' => '8',
                                                              'name' => 'this',
                                                              'type' => '2486'
                                                            },
                                                     '1' => {
                                                              'algn' => '8',
                                                              'name' => 'p1',
                                                              'type' => '2481'
                                                            }
                                                   },
                                        'Return' => '2481',
                                        'ShortName' => 'operator=',
                                        'Throw' => 1
                                      },
                            '1936' => {
                                        'Artificial' => 1,
                                        'Class' => '1399',
                                        'Destructor' => 'D2',
                                        'Header' => 'abi.hpp',
                                        'Line' => '3371',
                                        'MnglName' => '_ZN10outcome_v26detail28basic_result_error_observersIN10outcome_v26detail28basic_result_value_observersINS0_20basic_result_storageIilNS_6policy10all_narrowEEEiS5_EElS5_ED2Ev',
                                        'ShortName' => 'basic_result_error_observers',
                                        'Throw' => 1
                                      },
                            '1944' => {
                                        'Artificial' => 1,
                                        'Class' => '1131',
                                        'Destructor' => 'D1',
                                        'Header' => 'abi.hpp',
                                        'Line' => '3516',
                                        'MnglName' => '_ZN10outcome_v26detail18basic_result_finalIilNS_6policy10all_narrowEED1Ev',
                                        'ShortName' => 'basic_result_final',
                                        'Throw' => 1
                                      },
                            '19448' => {
                                         'Class' => '13695',
                                         'Data' => 1,
                                         'Header' => 'abi.hpp',
                                         'Line' => '5035',
                                         'MnglName' => '_ZN10outcome_v213basic_outcomeIE9predicate32enable_inplace_error_constructorE',
                                         'Return' => '107',
                                         'ShortName' => 'enable_inplace_error_constructor'
                                       },
                            '1966' => {
                                        'Artificial' => 1,
                                        'Class' => '661',
                                        'Constructor' => 'C2',
                                        'Header' => 'abi.hpp',
                                        'Line' => '4903',
                                        'MnglName' => '_ZN10outcome_v213basic_outcomeIildNS_6policy10all_narrowEEC2ERKNS0_IildS2_EE',
                                        'Param' => {
                                                     '0' => {
                                                              'algn' => '8',
                                                              'name' => 'this',
                                                              'type' => '1418'
                                                            },
                                                     '1' => {
                                                              'algn' => '8',
                                                              'name' => 'p1',
                                                              'type' => '1803'
                                                            }
                                                   },
                                        'ShortName' => 'basic_outcome',
                                        'Throw' => 1
                                      },
                            '1982' => {
                                        'Data' => 1,
                                        'Header' => 'abi.hpp',
                                        'Line' => '1840',
                                        'MnglName' => '_ZN10outcome_v25traitL32type_can_be_used_in_basic_resultE',
                                        'NameSpace' => 'outcome_v2::trait',
                                        'Return' => '107',
                                        'ShortName' => 'type_can_be_used_in_basic_result',
                                        'Value' => '-1'
                                      },
                            '19832' => {
                                         'Class' => '3407',
                                         'Header' => 'abi.hpp',
                                         'InLine' => 1,
                                         'Line' => '2201',
                                         'MnglName' => '_ZN10outcome_v26detail20status_bitfield_type19set_have_moved_fromEb',
                                         'Param' => {
                                                      '0' => {
                                                               'algn' => '8',
                                                               'name' => 'this',
                                                               'type' => '4592'
                                                             },
                                                      '1' => {
                                                               'algn' => '1',
                                                               'name' => 'v',
                                                               'type' => '165'
                                                             }
                                                    },
                                         'Return' => '13470',
                                         'ShortName' => 'set_have_moved_from',
                                         'Throw' => 1
                                       },
                            '19865' => {
                                         'Class' => '12966',
                                         'Data' => 1,
                                         'Header' => 'abi.hpp',
                                         'Line' => '5047',
                                         'MnglName' => '_ZN10outcome_v213basic_outcomeIildNS_6policy10all_narrowEE9predicate48enable_inplace_value_error_exception_constructorE',
                                         'Return' => '107',
                                         'ShortName' => 'enable_inplace_value_error_exception_constructor'
                                       },
                            '1999' => {
                                        'Class' => '1188',
                                        'Constructor' => 'C1',
                                        'Header' => 'abi.hpp',
                                        'Line' => '4222',
                                        'MnglName' => '_ZN10outcome_v212basic_resultIilNS_6policy10all_narrowEEC1Ev',
                                        'Param' => {
                                                     '0' => {
                                                              'algn' => '8',
                                                              'name' => 'this',
                                                              'type' => '2001'
                                                            }
                                                   },
                                        'ShortName' => 'basic_result'
                                      },
                            '200' => {
                                       'Class' => '136',
                                       'Data' => 1,
                                       'Header' => 'abi.hpp',
                                       'Line' => '1896',
                                       'MnglName' => '_ZN10outcome_v25trait6detail24_is_error_code_availableIE5valueE',
                                       'Return' => '107',
                                       'ShortName' => 'value'
                                     },
                            '20012' => {
                                         'Class' => '13695',
                                         'Data' => 1,
                                         'Header' => 'abi.hpp',
                                         'Line' => '5041',
                                         'MnglName' => '_ZN10outcome_v213basic_outcomeIE9predicate36enable_inplace_exception_constructorE',
                                         'Return' => '107',
                                         'ShortName' => 'enable_inplace_exception_constructor'
                                       },
                            '2056' => {
                                        'Data' => 1,
                                        'Header' => 'abi.hpp',
                                        'Line' => '3265',
                                        'MnglName' => '_ZN10outcome_v28conceptsL14value_or_errorE',
                                        'NameSpace' => 'outcome_v2::concepts',
                                        'Return' => '107',
                                        'ShortName' => 'value_or_error',
                                        'Value' => '-1'
                                      },
                            '2059' => {
                                        'Data' => 1,
                                        'Header' => 'abi.hpp',
                                        'Line' => '4078',
                                        'MnglName' => '_ZN10outcome_v28conceptsL12basic_resultE',
                                        'NameSpace' => 'outcome_v2::concepts',
                                        'Return' => '107',
                                        'ShortName' => 'basic_result',
                                        'Value' => '-1'
                                      },
                            '20600' => {
                                         'Class' => '13695',
                                         'Data' => 1,
                                         'Header' => 'abi.hpp',
                                         'Line' => '5047',
                                         'MnglName' => '_ZN10outcome_v213basic_outcomeIE9predicate48enable_inplace_value_error_exception_constructorE',
                                         'Return' => '107',
                                         'ShortName' => 'enable_inplace_value_error_exception_constructor'
                                       },
                            '2076' => {
                                        'Artificial' => 1,
                                        'Class' => '1280',
                                        'Destructor' => 'D1',
                                        'Header' => 'abi.hpp',
                                        'Line' => '3297',
                                        'MnglName' => '_ZN10outcome_v27convert14value_or_errorIN10outcome_v213basic_outcomeIildNS_6policy10all_narrowEEENS2_IildS4_EEED1Ev',
                                        'ShortName' => 'value_or_error',
                                        'Throw' => 1
                                      },
                            '20931' => {
                                         'Class' => '18178',
                                         'Data' => 1,
                                         'Header' => 'abi.hpp',
                                         'Line' => '2495',
                                         'MnglName' => '_ZN10outcome_v26detail24value_storage_nontrivialIE37enable_nonvoid_converting_constructorE',
                                         'Return' => '107',
                                         'ShortName' => 'enable_nonvoid_converting_constructor'
                                       },
                            '20944' => {
                                         'Class' => '18696',
                                         'Data' => 1,
                                         'Header' => 'abi.hpp',
                                         'Line' => '2298',
                                         'MnglName' => '_ZN10outcome_v26detail21value_storage_trivialIE37enable_nonvoid_converting_constructorE',
                                         'Return' => '107',
                                         'ShortName' => 'enable_nonvoid_converting_constructor'
                                       },
                            '213' => {
                                       'Class' => '142',
                                       'Data' => 1,
                                       'Header' => 'abi.hpp',
                                       'Line' => '1901',
                                       'MnglName' => '_ZN10outcome_v25trait6detail27_is_exception_ptr_availableIdE5valueE',
                                       'Return' => '107',
                                       'ShortName' => 'value',
                                       'Value' => 'false'
                                     },
                            '21508' => {
                                         'Class' => '18178',
                                         'Data' => 1,
                                         'Header' => 'abi.hpp',
                                         'Line' => '2544',
                                         'MnglName' => '_ZN10outcome_v26detail24value_storage_nontrivialIE40enable_void_value_converting_constructorE',
                                         'Return' => '107',
                                         'ShortName' => 'enable_void_value_converting_constructor'
                                       },
                            '21528' => {
                                         'Class' => '18696',
                                         'Data' => 1,
                                         'Header' => 'abi.hpp',
                                         'Line' => '2326',
                                         'MnglName' => '_ZN10outcome_v26detail21value_storage_trivialIE40enable_void_value_converting_constructorE',
                                         'Return' => '107',
                                         'ShortName' => 'enable_void_value_converting_constructor'
                                       },
                            '21533' => {
                                         'Class' => '2754',
                                         'Data' => 1,
                                         'Header' => 'abi.hpp',
                                         'Line' => '2298',
                                         'MnglName' => '_ZN10outcome_v26detail21value_storage_trivialIilE37enable_nonvoid_converting_constructorE',
                                         'Return' => '107',
                                         'ShortName' => 'enable_nonvoid_converting_constructor',
                                         'Value' => 'false'
                                       },
                            '2183' => {
                                        'Class' => '1909',
                                        'Data' => 1,
                                        'Header' => 'abi.hpp',
                                        'Line' => '4739',
                                        'MnglName' => '_ZN10outcome_v26detail18outcome_predicatesIildE29implicit_constructors_enabledE',
                                        'Return' => '107',
                                        'ShortName' => 'implicit_constructors_enabled',
                                        'Value' => 'false'
                                      },
                            '2201' => {
                                        'Class' => '1930',
                                        'Header' => 'abi.hpp',
                                        'Line' => '3110',
                                        'MnglName' => '_ZN10outcome_v26detail20basic_result_storageIilNS_6policy10all_narrowEE16_iostreams_stateEv',
                                        'Param' => {
                                                     '0' => {
                                                              'algn' => '8',
                                                              'name' => 'this',
                                                              'type' => '2764'
                                                            }
                                                   },
                                        'Return' => '2759',
                                        'ShortName' => '_iostreams_state'
                                      },
                            '2206' => {
                                        'Artificial' => 1,
                                        'Class' => '1667',
                                        'Header' => 'abi.hpp',
                                        'Line' => '3455',
                                        'MnglName' => '_ZN10outcome_v26detail28basic_result_value_observersINS0_20basic_result_storageIilNS_6policy10all_narrowEEEiS4_EaSERKNS1_INS2_IilS4_EEiS4_EE',
                                        'Param' => {
                                                     '0' => {
                                                              'algn' => '8',
                                                              'name' => 'this',
                                                              'type' => '2486'
                                                            },
                                                     '1' => {
                                                              'algn' => '8',
                                                              'name' => 'p1',
                                                              'type' => '3086'
                                                            }
                                                   },
                                        'Return' => '2481',
                                        'ShortName' => 'operator=',
                                        'Throw' => 1
                                      },
                            '22099' => {
                                         'Class' => '18178',
                                         'Data' => 1,
                                         'Header' => 'abi.hpp',
                                         'Line' => '2580',
                                         'MnglName' => '_ZN10outcome_v26detail24value_storage_nontrivialIE40enable_void_error_converting_constructorE',
                                         'Return' => '107',
                                         'ShortName' => 'enable_void_error_converting_constructor'
                                       },
                            '22126' => {
                                         'Class' => '18696',
                                         'Data' => 1,
                                         'Header' => 'abi.hpp',
                                         'Line' => '2352',
                                         'MnglName' => '_ZN10outcome_v26detail21value_storage_trivialIE40enable_void_error_converting_constructorE',
                                         'Return' => '107',
                                         'ShortName' => 'enable_void_error_converting_constructor'
                                       },
                            '2213' => {
                                        'Artificial' => 1,
                                        'Class' => '1399',
                                        'Destructor' => 'D1',
                                        'Header' => 'abi.hpp',
                                        'Line' => '3371',
                                        'MnglName' => '_ZN10outcome_v26detail28basic_result_error_observersIN10outcome_v26detail28basic_result_value_observersINS0_20basic_result_storageIilNS_6policy10all_narrowEEEiS5_EElS5_ED1Ev',
                                        'ShortName' => 'basic_result_error_observers',
                                        'Throw' => 1
                                      },
                            '2229' => {
                                        'Artificial' => 1,
                                        'Class' => '871',
                                        'Constructor' => 'C2',
                                        'Header' => 'abi.hpp',
                                        'Line' => '4617',
                                        'MnglName' => '_ZN10outcome_v26detail33basic_outcome_exception_observersINS0_18basic_result_finalIilNS_6policy10all_narrowEEEildS4_EC2ERKNS1_INS2_IilS4_EEildS4_EE',
                                        'Param' => {
                                                     '0' => {
                                                              'algn' => '8',
                                                              'name' => 'this',
                                                              'type' => '1682'
                                                            },
                                                     '1' => {
                                                              'algn' => '8',
                                                              'name' => 'p1',
                                                              'type' => '2789'
                                                            }
                                                   },
                                        'ShortName' => 'basic_outcome_exception_observers',
                                        'Throw' => 1
                                      },
                            '2241' => {
                                        'Artificial' => 1,
                                        'Class' => '661',
                                        'Constructor' => 'C1',
                                        'Header' => 'abi.hpp',
                                        'Line' => '4903',
                                        'MnglName' => '_ZN10outcome_v213basic_outcomeIildNS_6policy10all_narrowEEC1ERKNS0_IildS2_EE',
                                        'Param' => {
                                                     '0' => {
                                                              'algn' => '8',
                                                              'name' => 'this',
                                                              'type' => '1418'
                                                            },
                                                     '1' => {
                                                              'algn' => '8',
                                                              'name' => 'p1',
                                                              'type' => '1803'
                                                            }
                                                   },
                                        'ShortName' => 'basic_outcome',
                                        'Throw' => 1
                                      },
                            '2316' => {
                                        'Data' => 1,
                                        'Header' => 'abi.hpp',
                                        'Line' => '4078',
                                        'MnglName' => '_ZN10outcome_v28conceptsL12basic_resultE',
                                        'NameSpace' => 'outcome_v2::concepts',
                                        'Return' => '107',
                                        'ShortName' => 'basic_result',
                                        'Value' => '-1'
                                      },
                            '2329' => {
                                        'Class' => '2082',
                                        'Data' => 1,
                                        'Header' => 'abi.hpp',
                                        'Line' => '3299',
                                        'MnglName' => '_ZN10outcome_v27convert14value_or_errorIN10outcome_v212basic_resultIilNS_6policy10all_narrowEEENS2_IilS4_EEE20enable_result_inputsE',
                                        'Return' => '107',
                                        'ShortName' => 'enable_result_inputs',
                                        'Value' => 'false'
                                      },
                            '2330' => {
                                        'Artificial' => 1,
                                        'Class' => '2082',
                                        'Destructor' => 1,
                                        'Header' => 'abi.hpp',
                                        'Line' => '3297',
                                        'MnglName' => '_ZN10outcome_v27convert14value_or_errorIN10outcome_v212basic_resultIilNS_6policy10all_narrowEEENS2_IilS4_EEED0Ev',
                                        'ShortName' => 'value_or_error',
                                        'Throw' => 1
                                      },
                            '2379' => {
                                        'Class' => '1600',
                                        'Destructor' => 'D1',
                                        'Header' => 'typeinfo',
                                        'Line' => '95',
                                        'MnglName' => '_ZNSt9type_infoD1Ev',
                                        'ShortName' => 'type_info',
                                        'Throw' => 1,
                                        'Virt' => 1
                                      },
                            '2435' => {
                                        'Class' => '1646',
                                        'Data' => 1,
                                        'Header' => 'abi.hpp',
                                        'Line' => '4747',
                                        'MnglName' => '_ZN10outcome_v26detail18outcome_predicatesIE35enable_value_converting_constructorE',
                                        'Return' => '107',
                                        'ShortName' => 'enable_value_converting_constructor'
                                      },
                            '2477' => {
                                        'Class' => '1930',
                                        'Const' => 1,
                                        'Header' => 'abi.hpp',
                                        'Line' => '3111',
                                        'MnglName' => '_ZNK10outcome_v26detail20basic_result_storageIilNS_6policy10all_narrowEE16_iostreams_stateEv',
                                        'Param' => {
                                                     '0' => {
                                                              'algn' => '8',
                                                              'name' => 'this',
                                                              'type' => '3077'
                                                            }
                                                   },
                                        'Return' => '3072',
                                        'ShortName' => '_iostreams_state'
                                      },
                            '2484' => {
                                        'Artificial' => 1,
                                        'Class' => '1667',
                                        'Destructor' => 1,
                                        'Header' => 'abi.hpp',
                                        'Line' => '3455',
                                        'MnglName' => '_ZN10outcome_v26detail28basic_result_value_observersINS0_20basic_result_storageIilNS_6policy10all_narrowEEEiS4_ED0Ev',
                                        'ShortName' => 'basic_result_value_observers',
                                        'Throw' => 1
                                      },
                            '2493' => {
                                        'Artificial' => 1,
                                        'Class' => '1399',
                                        'Header' => 'abi.hpp',
                                        'Line' => '3371',
                                        'MnglName' => '_ZN10outcome_v26detail28basic_result_error_observersIN10outcome_v26detail28basic_result_value_observersINS0_20basic_result_storageIilNS_6policy10all_narrowEEEiS5_EElS5_EaSERNS1_INS2_INS3_IilS5_EEiS5_EElS5_EE',
                                        'Param' => {
                                                     '0' => {
                                                              'algn' => '8',
                                                              'name' => 'this',
                                                              'type' => '2215'
                                                            },
                                                     '1' => {
                                                              'algn' => '8',
                                                              'name' => 'p1',
                                                              'type' => '3088'
                                                            }
                                                   },
                                        'Return' => '3088',
                                        'ShortName' => 'operator=',
                                        'Throw' => 1
                                      },
                            '2496' => {
                                        'Artificial' => 1,
                                        'Class' => '1131',
                                        'Constructor' => 'C2',
                                        'Header' => 'abi.hpp',
                                        'Line' => '3516',
                                        'MnglName' => '_ZN10outcome_v26detail18basic_result_finalIilNS_6policy10all_narrowEEC2ERNS1_IilS3_EE',
                                        'Param' => {
                                                     '0' => {
                                                              'algn' => '8',
                                                              'name' => 'this',
                                                              'type' => '1946'
                                                            },
                                                     '1' => {
                                                              'algn' => '8',
                                                              'name' => 'p1',
                                                              'type' => '3098'
                                                            }
                                                   },
                                        'ShortName' => 'basic_result_final',
                                        'Throw' => 1
                                      },
                            '2500' => {
                                        'Artificial' => 1,
                                        'Class' => '871',
                                        'Constructor' => 'C1',
                                        'Header' => 'abi.hpp',
                                        'Line' => '4617',
                                        'MnglName' => '_ZN10outcome_v26detail33basic_outcome_exception_observersINS0_18basic_result_finalIilNS_6policy10all_narrowEEEildS4_EC1ERKNS1_INS2_IilS4_EEildS4_EE',
                                        'Param' => {
                                                     '0' => {
                                                              'algn' => '8',
                                                              'name' => 'this',
                                                              'type' => '1682'
                                                            },
                                                     '1' => {
                                                              'algn' => '8',
                                                              'name' => 'p1',
                                                              'type' => '2789'
                                                            }
                                                   },
                                        'ShortName' => 'basic_outcome_exception_observers',
                                        'Throw' => 1
                                      },
                            '2511' => {
                                        'Artificial' => 1,
                                        'Class' => '661',
                                        'Destructor' => 1,
                                        'Header' => 'abi.hpp',
                                        'Line' => '4903',
                                        'MnglName' => '_ZN10outcome_v213basic_outcomeIildNS_6policy10all_narrowEED0Ev',
                                        'ShortName' => 'basic_outcome',
                                        'Throw' => 1
                                      },
                            '2527' => {
                                        'Class' => '1188',
                                        'Constructor' => 'C2',
                                        'Header' => 'abi.hpp',
                                        'Line' => '4226',
                                        'MnglName' => '_ZN10outcome_v212basic_resultIilNS_6policy10all_narrowEEC2ERNS0_IilS2_EE',
                                        'Param' => {
                                                     '0' => {
                                                              'algn' => '8',
                                                              'name' => 'this',
                                                              'type' => '2001'
                                                            },
                                                     '1' => {
                                                              'algn' => '8',
                                                              'name' => 'p1',
                                                              'type' => '3125'
                                                            }
                                                   },
                                        'ShortName' => 'basic_result',
                                        'Throw' => 1
                                      },
                            '2585' => {
                                        'Class' => '1280',
                                        'Header' => 'abi.hpp',
                                        'Line' => '3309',
                                        'MnglName' => '_ZN10outcome_v27convert14value_or_errorIN10outcome_v213basic_outcomeIildNS_6policy10all_narrowEEENS2_IildS4_EEEclER',
                                        'Param' => {
                                                     '0' => {
                                                              'algn' => '8',
                                                              'name' => 'this',
                                                              'type' => '2078'
                                                            },
                                                     '1' => {
                                                              'algn' => '8',
                                                              'name' => 'v',
                                                              'type' => '2318'
                                                            }
                                                   },
                                        'Return' => '661',
                                        'ShortName' => 'operator()'
                                      },
                            '2587' => {
                                        'Class' => '2082',
                                        'Data' => 1,
                                        'Header' => 'abi.hpp',
                                        'Line' => '3300',
                                        'MnglName' => '_ZN10outcome_v27convert14value_or_errorIN10outcome_v212basic_resultIilNS_6policy10all_narrowEEENS2_IilS4_EEE21enable_outcome_inputsE',
                                        'Return' => '107',
                                        'ShortName' => 'enable_outcome_inputs'
                                      },
                            '2589' => {
                                        'Artificial' => 1,
                                        'Class' => '2082',
                                        'Destructor' => 'D2',
                                        'Header' => 'abi.hpp',
                                        'Line' => '3297',
                                        'MnglName' => '_ZN10outcome_v27convert14value_or_errorIN10outcome_v212basic_resultIilNS_6policy10all_narrowEEENS2_IilS4_EEED2Ev',
                                        'ShortName' => 'value_or_error',
                                        'Throw' => 1
                                      },
                            '26251' => {
                                         'Class' => '2754',
                                         'Header' => 'abi.hpp',
                                         'Line' => '2373',
                                         'MnglName' => '_ZN10outcome_v26detail21value_storage_trivialIilE4swapERS2_',
                                         'Param' => {
                                                      '0' => {
                                                               'algn' => '8',
                                                               'name' => 'this',
                                                               'type' => '3760'
                                                             },
                                                      '1' => {
                                                               'algn' => '8',
                                                               'name' => 'o',
                                                               'type' => '7059'
                                                             }
                                                    },
                                         'Return' => '17',
                                         'ShortName' => 'swap',
                                         'Throw' => 1
                                       },
                            '2640' => {
                                        'Class' => '1600',
                                        'Destructor' => 'D0',
                                        'Header' => 'typeinfo',
                                        'Line' => '95',
                                        'MnglName' => '_ZNSt9type_infoD0Ev',
                                        'ShortName' => 'type_info',
                                        'Throw' => 1,
                                        'Virt' => 1
                                      },
                            '268' => {
                                       'Class' => '54',
                                       'Data' => 1,
                                       'Header' => 'abi.hpp',
                                       'Line' => '1880',
                                       'MnglName' => '_ZN10outcome_v25trait6detail13detector_impl8detectorIzE5valueE',
                                       'Return' => '107',
                                       'ShortName' => 'value',
                                       'Value' => 'false'
                                     },
                            '2707' => {
                                        'Class' => '1646',
                                        'Data' => 1,
                                        'Header' => 'abi.hpp',
                                        'Line' => '4753',
                                        'MnglName' => '_ZN10outcome_v26detail18outcome_predicatesIE35enable_error_converting_constructorE',
                                        'Return' => '107',
                                        'ShortName' => 'enable_error_converting_constructor'
                                      },
                            '2712' => {
                                        'Class' => '1909',
                                        'Data' => 1,
                                        'Header' => 'abi.hpp',
                                        'Line' => '4747',
                                        'MnglName' => '_ZN10outcome_v26detail18outcome_predicatesIildE35enable_value_converting_constructorE',
                                        'Return' => '107',
                                        'ShortName' => 'enable_value_converting_constructor',
                                        'Value' => 'false'
                                      },
                            '2747' => {
                                        'Class' => '1909',
                                        'Data' => 1,
                                        'Header' => 'abi.hpp',
                                        'Line' => '4747',
                                        'MnglName' => '_ZN10outcome_v26detail18outcome_predicatesIildE35enable_value_converting_constructorE',
                                        'Return' => '107',
                                        'ShortName' => 'enable_value_converting_constructor'
                                      },
                            '2772' => {
                                        'Artificial' => 1,
                                        'Class' => '1667',
                                        'Destructor' => 'D2',
                                        'Header' => 'abi.hpp',
                                        'Line' => '3455',
                                        'MnglName' => '_ZN10outcome_v26detail28basic_result_value_observersINS0_20basic_result_storageIilNS_6policy10all_narrowEEEiS4_ED2Ev',
                                        'ShortName' => 'basic_result_value_observers',
                                        'Throw' => 1
                                      },
                            '2778' => {
                                        'Artificial' => 1,
                                        'Class' => '1399',
                                        'Header' => 'abi.hpp',
                                        'Line' => '3371',
                                        'MnglName' => '_ZN10outcome_v26detail28basic_result_error_observersIN10outcome_v26detail28basic_result_value_observersINS0_20basic_result_storageIilNS_6policy10all_narrowEEEiS5_EElS5_EaSERKNS1_INS2_INS3_IilS5_EEiS5_EElS5_EE',
                                        'Param' => {
                                                     '0' => {
                                                              'algn' => '8',
                                                              'name' => 'this',
                                                              'type' => '2215'
                                                            },
                                                     '1' => {
                                                              'algn' => '8',
                                                              'name' => 'p1',
                                                              'type' => '3788'
                                                            }
                                                   },
                                        'Return' => '3088',
                                        'ShortName' => 'operator=',
                                        'Throw' => 1
                                      },
                            '2782' => {
                                        'Artificial' => 1,
                                        'Class' => '1131',
                                        'Constructor' => 'C1',
                                        'Header' => 'abi.hpp',
                                        'Line' => '3516',
                                        'MnglName' => '_ZN10outcome_v26detail18basic_result_finalIilNS_6policy10all_narrowEEC1ERNS1_IilS3_EE',
                                        'Param' => {
                                                     '0' => {
                                                              'algn' => '8',
                                                              'name' => 'this',
                                                              'type' => '1946'
                                                            },
                                                     '1' => {
                                                              'algn' => '8',
                                                              'name' => 'p1',
                                                              'type' => '3098'
                                                            }
                                                   },
                                        'ShortName' => 'basic_result_final',
                                        'Throw' => 1
                                      },
                            '2794' => {
                                        'Artificial' => 1,
                                        'Class' => '661',
                                        'Destructor' => 'D2',
                                        'Header' => 'abi.hpp',
                                        'Line' => '4903',
                                        'MnglName' => '_ZN10outcome_v213basic_outcomeIildNS_6policy10all_narrowEED2Ev',
                                        'ShortName' => 'basic_outcome',
                                        'Throw' => 1
                                      },
                            '2809' => {
                                        'Class' => '1188',
                                        'Constructor' => 'C1',
                                        'Header' => 'abi.hpp',
                                        'Line' => '4226',
                                        'MnglName' => '_ZN10outcome_v212basic_resultIilNS_6policy10all_narrowEEC1ERNS0_IilS2_EE',
                                        'Param' => {
                                                     '0' => {
                                                              'algn' => '8',
                                                              'name' => 'this',
                                                              'type' => '2001'
                                                            },
                                                     '1' => {
                                                              'algn' => '8',
                                                              'name' => 'p1',
                                                              'type' => '3125'
                                                            }
                                                   },
                                        'ShortName' => 'basic_result',
                                        'Throw' => 1
                                      },
                            '2880' => {
                                        'Artificial' => 1,
                                        'Class' => '2082',
                                        'Destructor' => 'D1',
                                        'Header' => 'abi.hpp',
                                        'Line' => '3297',
                                        'MnglName' => '_ZN10outcome_v27convert14value_or_errorIN10outcome_v212basic_resultIilNS_6policy10all_narrowEEENS2_IilS4_EEED1Ev',
                                        'ShortName' => 'value_or_error',
                                        'Throw' => 1
                                      },
                            '299' => {
                                       'Class' => '208',
                                       'Data' => 1,
                                       'Header' => 'abi.hpp',
                                       'Line' => '1896',
                                       'MnglName' => '_ZN10outcome_v25trait6detail24_is_error_code_availableIlE5valueE',
                                       'Return' => '107',
                                       'ShortName' => 'value',
                                       'Value' => 'false'
                                     },
                            '30029' => {
                                         'Class' => '1188',
                                         'Constructor' => 'C2',
                                         'Header' => 'abi.hpp',
                                         'Line' => '4433',
                                         'MnglName' => '_ZN10outcome_v212basic_resultIilNS_6policy10all_narrowEEC2ERKNS_12success_typeIvEE',
                                         'Param' => {
                                                      '0' => {
                                                               'algn' => '8',
                                                               'name' => 'this',
                                                               'type' => '2001'
                                                             },
                                                      '1' => {
                                                               'algn' => '8',
                                                               'name' => 'o',
                                                               'type' => '5466'
                                                             }
                                                    },
                                         'ShortName' => 'basic_result',
                                         'Throw' => 1
                                       },
                            '3005' => {
                                        'Class' => '1646',
                                        'Data' => 1,
                                        'Header' => 'abi.hpp',
                                        'Line' => '4759',
                                        'MnglName' => '_ZN10outcome_v26detail18outcome_predicatesIE45enable_error_condition_converting_constructorE',
                                        'Return' => '107',
                                        'ShortName' => 'enable_error_condition_converting_constructor'
                                      },
                            '3010' => {
                                        'Class' => '1909',
                                        'Data' => 1,
                                        'Header' => 'abi.hpp',
                                        'Line' => '4753',
                                        'MnglName' => '_ZN10outcome_v26detail18outcome_predicatesIildE35enable_error_converting_constructorE',
                                        'Return' => '107',
                                        'ShortName' => 'enable_error_converting_constructor',
                                        'Value' => 'false'
                                      },
                            '3018' => {
                                        'Class' => '1909',
                                        'Data' => 1,
                                        'Header' => 'abi.hpp',
                                        'Line' => '4747',
                                        'MnglName' => '_ZN10outcome_v26detail18outcome_predicatesIildE35enable_value_converting_constructorE',
                                        'Return' => '107',
                                        'ShortName' => 'enable_value_converting_constructor',
                                        'Value' => 'false'
                                      },
                            '30329' => {
                                         'Class' => '1188',
                                         'Constructor' => 'C1',
                                         'Header' => 'abi.hpp',
                                         'Line' => '4433',
                                         'MnglName' => '_ZN10outcome_v212basic_resultIilNS_6policy10all_narrowEEC1ERKNS_12success_typeIvEE',
                                         'Param' => {
                                                      '0' => {
                                                               'algn' => '8',
                                                               'name' => 'this',
                                                               'type' => '2001'
                                                             },
                                                      '1' => {
                                                               'algn' => '8',
                                                               'name' => 'o',
                                                               'type' => '5466'
                                                             }
                                                    },
                                         'ShortName' => 'basic_result',
                                         'Throw' => 1
                                       },
                            '3059' => {
                                        'Class' => '1909',
                                        'Data' => 1,
                                        'Header' => 'abi.hpp',
                                        'Line' => '4753',
                                        'MnglName' => '_ZN10outcome_v26detail18outcome_predicatesIildE35enable_error_converting_constructorE',
                                        'Return' => '107',
                                        'ShortName' => 'enable_error_converting_constructor'
                                      },
                            '307' => {
                                       'Class' => '216',
                                       'Data' => 1,
                                       'Header' => 'abi.hpp',
                                       'Line' => '1901',
                                       'MnglName' => '_ZN10outcome_v25trait6detail27_is_exception_ptr_availableIlE5valueE',
                                       'Return' => '107',
                                       'ShortName' => 'value',
                                       'Value' => 'false'
                                     },
                            '3075' => {
                                        'Class' => '1930',
                                        'Constructor' => 'C2',
                                        'Header' => 'abi.hpp',
                                        'Line' => '3113',
                                        'MnglName' => '_ZN10outcome_v26detail20basic_result_storageIilNS_6policy10all_narrowEEC2Ev',
                                        'Param' => {
                                                     '0' => {
                                                              'algn' => '8',
                                                              'name' => 'this',
                                                              'type' => '2764'
                                                            }
                                                   },
                                        'Protected' => 1,
                                        'ShortName' => 'basic_result_storage',
                                        'Throw' => 1
                                      },
                            '3083' => {
                                        'Artificial' => 1,
                                        'Class' => '1667',
                                        'Destructor' => 'D1',
                                        'Header' => 'abi.hpp',
                                        'Line' => '3455',
                                        'MnglName' => '_ZN10outcome_v26detail28basic_result_value_observersINS0_20basic_result_storageIilNS_6policy10all_narrowEEEiS4_ED1Ev',
                                        'ShortName' => 'basic_result_value_observers',
                                        'Throw' => 1
                                      },
                            '3100' => {
                                        'Artificial' => 1,
                                        'Class' => '871',
                                        'Constructor' => 'C2',
                                        'Header' => 'abi.hpp',
                                        'Line' => '4617',
                                        'MnglName' => '_ZN10outcome_v26detail33basic_outcome_exception_observersINS0_18basic_result_finalIilNS_6policy10all_narrowEEEildS4_EC2Ev',
                                        'Param' => {
                                                     '0' => {
                                                              'algn' => '8',
                                                              'name' => 'this',
                                                              'type' => '1682'
                                                            }
                                                   },
                                        'ShortName' => 'basic_outcome_exception_observers',
                                        'Throw' => 1
                                      },
                            '3110' => {
                                        'Artificial' => 1,
                                        'Class' => '661',
                                        'Destructor' => 'D1',
                                        'Header' => 'abi.hpp',
                                        'Line' => '4903',
                                        'MnglName' => '_ZN10outcome_v213basic_outcomeIildNS_6policy10all_narrowEED1Ev',
                                        'ShortName' => 'basic_outcome',
                                        'Throw' => 1
                                      },
                            '312' => {
                                       'Class' => '220',
                                       'Data' => 1,
                                       'Header' => 'abi.hpp',
                                       'Line' => '1919',
                                       'MnglName' => '_ZN10outcome_v25trait26is_exception_ptr_availableIE5valueE',
                                       'Return' => '107',
                                       'ShortName' => 'value'
                                     },
                            '316' => {
                                       'Data' => 1,
                                       'Header' => 'abi.hpp',
                                       'Line' => '1913',
                                       'MnglName' => '_ZN10outcome_v25traitL25is_error_code_available_vE',
                                       'NameSpace' => 'outcome_v2::trait',
                                       'Return' => '107',
                                       'ShortName' => 'is_error_code_available_v'
                                     },
                            '32043' => {
                                         'Class' => '661',
                                         'Constructor' => 'C2',
                                         'Header' => 'abi.hpp',
                                         'Line' => '5329',
                                         'MnglName' => '_ZN10outcome_v213basic_outcomeIildNS_6policy10all_narrowEEC2ERKNS_12success_typeIvEE',
                                         'Param' => {
                                                      '0' => {
                                                               'algn' => '8',
                                                               'name' => 'this',
                                                               'type' => '1418'
                                                             },
                                                      '1' => {
                                                               'algn' => '8',
                                                               'name' => 'o',
                                                               'type' => '5466'
                                                             }
                                                    },
                                         'ShortName' => 'basic_outcome',
                                         'Throw' => 1
                                       },
                            '32314' => {
                                         'Class' => '661',
                                         'Constructor' => 'C1',
                                         'Header' => 'abi.hpp',
                                         'Line' => '5329',
                                         'MnglName' => '_ZN10outcome_v213basic_outcomeIildNS_6policy10all_narrowEEC1ERKNS_12success_typeIvEE',
                                         'Param' => {
                                                      '0' => {
                                                               'algn' => '8',
                                                               'name' => 'this',
                                                               'type' => '1418'
                                                             },
                                                      '1' => {
                                                               'algn' => '8',
                                                               'name' => 'o',
                                                               'type' => '5466'
                                                             }
                                                    },
                                         'ShortName' => 'basic_outcome',
                                         'Throw' => 1
                                       },
                            '3302' => {
                                        'Data' => 1,
                                        'Header' => 'abi.hpp',
                                        'Line' => '1805',
                                        'MnglName' => '_ZN10outcome_v2L15is_failure_typeE',
                                        'NameSpace' => 'outcome_v2',
                                        'Return' => '107',
                                        'ShortName' => 'is_failure_type'
                                      },
                            '3323' => {
                                        'Class' => '1646',
                                        'Data' => 1,
                                        'Header' => 'abi.hpp',
                                        'Line' => '4763',
                                        'MnglName' => '_ZN10outcome_v26detail18outcome_predicatesIE39enable_exception_converting_constructorE',
                                        'Return' => '107',
                                        'ShortName' => 'enable_exception_converting_constructor'
                                      },
                            '3328' => {
                                        'Class' => '1909',
                                        'Data' => 1,
                                        'Header' => 'abi.hpp',
                                        'Line' => '4759',
                                        'MnglName' => '_ZN10outcome_v26detail18outcome_predicatesIildE45enable_error_condition_converting_constructorE',
                                        'Return' => '107',
                                        'ShortName' => 'enable_error_condition_converting_constructor'
                                      },
                            '3335' => {
                                        'Class' => '1909',
                                        'Data' => 1,
                                        'Header' => 'abi.hpp',
                                        'Line' => '4753',
                                        'MnglName' => '_ZN10outcome_v26detail18outcome_predicatesIildE35enable_error_converting_constructorE',
                                        'Return' => '107',
                                        'ShortName' => 'enable_error_converting_constructor',
                                        'Value' => 'false'
                                      },
                            '3364' => {
                                        'Class' => '3037',
                                        'Data' => 1,
                                        'Header' => 'abi.hpp',
                                        'Line' => '4031',
                                        'MnglName' => '_ZN10outcome_v26detail15is_basic_resultIE5valueE',
                                        'Return' => '107',
                                        'ShortName' => 'value',
                                        'Value' => 'false'
                                      },
                            '3402' => {
                                        'Class' => '2754',
                                        'Constructor' => 'C2',
                                        'Header' => 'abi.hpp',
                                        'Line' => '2250',
                                        'MnglName' => '_ZN10outcome_v26detail21value_storage_trivialIilEC2Ev',
                                        'Param' => {
                                                     '0' => {
                                                              'algn' => '8',
                                                              'name' => 'this',
                                                              'type' => '3760'
                                                            }
                                                   },
                                        'ShortName' => 'value_storage_trivial',
                                        'Throw' => 1
                                      },
                            '3416' => {
                                        'Class' => '1930',
                                        'Constructor' => 'C1',
                                        'Header' => 'abi.hpp',
                                        'Line' => '3113',
                                        'MnglName' => '_ZN10outcome_v26detail20basic_result_storageIilNS_6policy10all_narrowEEC1Ev',
                                        'Param' => {
                                                     '0' => {
                                                              'algn' => '8',
                                                              'name' => 'this',
                                                              'type' => '2764'
                                                            }
                                                   },
                                        'Protected' => 1,
                                        'ShortName' => 'basic_result_storage',
                                        'Throw' => 1
                                      },
                            '3428' => {
                                        'Artificial' => 1,
                                        'Class' => '1399',
                                        'Constructor' => 'C2',
                                        'Header' => 'abi.hpp',
                                        'Line' => '3371',
                                        'MnglName' => '_ZN10outcome_v26detail28basic_result_error_observersIN10outcome_v26detail28basic_result_value_observersINS0_20basic_result_storageIilNS_6policy10all_narrowEEEiS5_EElS5_EC2ERNS1_INS2_INS3_IilS5_EEiS5_EElS5_EE',
                                        'Param' => {
                                                     '0' => {
                                                              'algn' => '8',
                                                              'name' => 'this',
                                                              'type' => '2215'
                                                            },
                                                     '1' => {
                                                              'algn' => '8',
                                                              'name' => 'p1',
                                                              'type' => '3088'
                                                            }
                                                   },
                                        'ShortName' => 'basic_result_error_observers',
                                        'Throw' => 1
                                      },
                            '3433' => {
                                        'Artificial' => 1,
                                        'Class' => '1131',
                                        'Constructor' => 'C2',
                                        'Header' => 'abi.hpp',
                                        'Line' => '3516',
                                        'MnglName' => '_ZN10outcome_v26detail18basic_result_finalIilNS_6policy10all_narrowEEC2ERKNS1_IilS3_EE',
                                        'Param' => {
                                                     '0' => {
                                                              'algn' => '8',
                                                              'name' => 'this',
                                                              'type' => '1946'
                                                            },
                                                     '1' => {
                                                              'algn' => '8',
                                                              'name' => 'p1',
                                                              'type' => '4190'
                                                            }
                                                   },
                                        'ShortName' => 'basic_result_final',
                                        'Throw' => 1
                                      },
                            '3438' => {
                                        'Artificial' => 1,
                                        'Class' => '871',
                                        'Constructor' => 'C1',
                                        'Header' => 'abi.hpp',
                                        'Line' => '4617',
                                        'MnglName' => '_ZN10outcome_v26detail33basic_outcome_exception_observersINS0_18basic_result_finalIilNS_6policy10all_narrowEEEildS4_EC1Ev',
                                        'Param' => {
                                                     '0' => {
                                                              'algn' => '8',
                                                              'name' => 'this',
                                                              'type' => '1682'
                                                            }
                                                   },
                                        'ShortName' => 'basic_outcome_exception_observers',
                                        'Throw' => 1
                                      },
                            '3445' => {
                                        'Artificial' => 1,
                                        'Class' => '661',
                                        'Header' => 'abi.hpp',
                                        'Line' => '4903',
                                        'MnglName' => '_ZN10outcome_v213basic_outcomeIildNS_6policy10all_narrowEEaSERNS0_IildS2_EE',
                                        'Param' => {
                                                     '0' => {
                                                              'algn' => '8',
                                                              'name' => 'this',
                                                              'type' => '1418'
                                                            },
                                                     '1' => {
                                                              'algn' => '8',
                                                              'name' => 'p1',
                                                              'type' => '1695'
                                                            }
                                                   },
                                        'Return' => '1695',
                                        'ShortName' => 'operator=',
                                        'Throw' => 1
                                      },
                            '3450' => {
                                        'Class' => '1188',
                                        'Constructor' => 'C2',
                                        'Header' => 'abi.hpp',
                                        'Line' => '4230',
                                        'MnglName' => '_ZN10outcome_v212basic_resultIilNS_6policy10all_narrowEEC2ERKNS0_IilS2_EE',
                                        'Param' => {
                                                     '0' => {
                                                              'algn' => '8',
                                                              'name' => 'this',
                                                              'type' => '2001'
                                                            },
                                                     '1' => {
                                                              'algn' => '8',
                                                              'name' => 'p1',
                                                              'type' => '2576'
                                                            }
                                                   },
                                        'ShortName' => 'basic_result',
                                        'Throw' => 1
                                      },
                            '3490' => {
                                        'Class' => '3165',
                                        'Data' => 1,
                                        'Header' => 'abi.hpp',
                                        'Line' => '1791',
                                        'MnglName' => '_ZN10outcome_v26detail15is_failure_typeIE5valueE',
                                        'Return' => '107',
                                        'ShortName' => 'value',
                                        'Value' => 'false'
                                      },
                            '3540' => {
                                        'Class' => '2082',
                                        'Header' => 'abi.hpp',
                                        'Line' => '3309',
                                        'MnglName' => '_ZN10outcome_v27convert14value_or_errorIN10outcome_v212basic_resultIilNS_6policy10all_narrowEEENS2_IilS4_EEEclER',
                                        'Param' => {
                                                     '0' => {
                                                              'algn' => '8',
                                                              'name' => 'this',
                                                              'type' => '2882'
                                                            },
                                                     '1' => {
                                                              'algn' => '8',
                                                              'name' => 'v',
                                                              'type' => '2318'
                                                            }
                                                   },
                                        'Return' => '1188',
                                        'ShortName' => 'operator()'
                                      },
                            '35999' => {
                                         'Class' => '1188',
                                         'Header' => 'abi.hpp',
                                         'Line' => '4540',
                                         'MnglName' => '_ZN10outcome_v212basic_resultIilNS_6policy10all_narrowEE4swapERNS0_IilS2_EE',
                                         'Param' => {
                                                      '0' => {
                                                               'algn' => '8',
                                                               'name' => 'this',
                                                               'type' => '2001'
                                                             },
                                                      '1' => {
                                                               'algn' => '8',
                                                               'name' => 'o',
                                                               'type' => '3125'
                                                             }
                                                    },
                                         'Return' => '17',
                                         'ShortName' => 'swap',
                                         'Throw' => 1
                                       },
                            '3635' => {
                                        'Data' => 1,
                                        'Header' => 'abi.hpp',
                                        'Line' => '1801',
                                        'MnglName' => '_ZN10outcome_v2L15is_success_typeE',
                                        'NameSpace' => 'outcome_v2',
                                        'Return' => '107',
                                        'ShortName' => 'is_success_type'
                                      },
                            '3640' => {
                                        'Data' => 1,
                                        'Header' => 'abi.hpp',
                                        'Line' => '1805',
                                        'MnglName' => '_ZN10outcome_v2L15is_failure_typeE',
                                        'NameSpace' => 'outcome_v2',
                                        'Return' => '107',
                                        'ShortName' => 'is_failure_type',
                                        'Value' => 'false'
                                      },
                            '3662' => {
                                        'Class' => '1646',
                                        'Data' => 1,
                                        'Header' => 'abi.hpp',
                                        'Line' => '4770',
                                        'MnglName' => '_ZN10outcome_v26detail18outcome_predicatesIE45enable_error_exception_converting_constructorE',
                                        'Return' => '107',
                                        'ShortName' => 'enable_error_exception_converting_constructor'
                                      },
                            '3667' => {
                                        'Class' => '1909',
                                        'Data' => 1,
                                        'Header' => 'abi.hpp',
                                        'Line' => '4763',
                                        'MnglName' => '_ZN10outcome_v26detail18outcome_predicatesIildE39enable_exception_converting_constructorE',
                                        'Return' => '107',
                                        'ShortName' => 'enable_exception_converting_constructor',
                                        'Value' => 'false'
                                      },
                            '3721' => {
                                        'Class' => '3372',
                                        'Data' => 1,
                                        'Header' => 'abi.hpp',
                                        'Line' => '4031',
                                        'MnglName' => '_ZN10outcome_v26detail15is_basic_resultIN10outcome_v213basic_outcomeIildNS_6policy10all_narrowEEEE5valueE',
                                        'Return' => '107',
                                        'ShortName' => 'value',
                                        'Value' => 'false'
                                      },
                            '3748' => {
                                        'Class' => '1909',
                                        'Data' => 1,
                                        'Header' => 'abi.hpp',
                                        'Line' => '4763',
                                        'MnglName' => '_ZN10outcome_v26detail18outcome_predicatesIildE39enable_exception_converting_constructorE',
                                        'Return' => '107',
                                        'ShortName' => 'enable_exception_converting_constructor'
                                      },
                            '3758' => {
                                        'Class' => '2754',
                                        'Constructor' => 'C1',
                                        'Header' => 'abi.hpp',
                                        'Line' => '2250',
                                        'MnglName' => '_ZN10outcome_v26detail21value_storage_trivialIilEC1Ev',
                                        'Param' => {
                                                     '0' => {
                                                              'algn' => '8',
                                                              'name' => 'this',
                                                              'type' => '3760'
                                                            }
                                                   },
                                        'ShortName' => 'value_storage_trivial',
                                        'Throw' => 1
                                      },
                            '3768' => {
                                        'Artificial' => 1,
                                        'Class' => '3407',
                                        'Destructor' => 1,
                                        'Header' => 'abi.hpp',
                                        'Line' => '2128',
                                        'MnglName' => '_ZN10outcome_v26detail20status_bitfield_typeD0Ev',
                                        'ShortName' => 'status_bitfield_type',
                                        'Throw' => 1
                                      },
                            '3772' => {
                                        'Class' => '2754',
                                        'Data' => 1,
                                        'Header' => 'abi.hpp',
                                        'Line' => '2298',
                                        'MnglName' => '_ZN10outcome_v26detail21value_storage_trivialIilE37enable_nonvoid_converting_constructorE',
                                        'Return' => '107',
                                        'ShortName' => 'enable_nonvoid_converting_constructor'
                                      },
                            '3780' => {
                                        'Artificial' => 1,
                                        'Class' => '1667',
                                        'Constructor' => 'C2',
                                        'Header' => 'abi.hpp',
                                        'Line' => '3455',
                                        'MnglName' => '_ZN10outcome_v26detail28basic_result_value_observersINS0_20basic_result_storageIilNS_6policy10all_narrowEEEiS4_EC2ERNS1_INS2_IilS4_EEiS4_EE',
                                        'Param' => {
                                                     '0' => {
                                                              'algn' => '8',
                                                              'name' => 'this',
                                                              'type' => '2486'
                                                            },
                                                     '1' => {
                                                              'algn' => '8',
                                                              'name' => 'p1',
                                                              'type' => '2481'
                                                            }
                                                   },
                                        'ShortName' => 'basic_result_value_observers',
                                        'Throw' => 1
                                      },
                            '3785' => {
                                        'Artificial' => 1,
                                        'Class' => '1399',
                                        'Constructor' => 'C1',
                                        'Header' => 'abi.hpp',
                                        'Line' => '3371',
                                        'MnglName' => '_ZN10outcome_v26detail28basic_result_error_observersIN10outcome_v26detail28basic_result_value_observersINS0_20basic_result_storageIilNS_6policy10all_narrowEEEiS5_EElS5_EC1ERNS1_INS2_INS3_IilS5_EEiS5_EElS5_EE',
                                        'Param' => {
                                                     '0' => {
                                                              'algn' => '8',
                                                              'name' => 'this',
                                                              'type' => '2215'
                                                            },
                                                     '1' => {
                                                              'algn' => '8',
                                                              'name' => 'p1',
                                                              'type' => '3088'
                                                            }
                                                   },
                                        'ShortName' => 'basic_result_error_observers',
                                        'Throw' => 1
                                      },
                            '3791' => {
                                        'Artificial' => 1,
                                        'Class' => '1131',
                                        'Constructor' => 'C1',
                                        'Header' => 'abi.hpp',
                                        'Line' => '3516',
                                        'MnglName' => '_ZN10outcome_v26detail18basic_result_finalIilNS_6policy10all_narrowEEC1ERKNS1_IilS3_EE',
                                        'Param' => {
                                                     '0' => {
                                                              'algn' => '8',
                                                              'name' => 'this',
                                                              'type' => '1946'
                                                            },
                                                     '1' => {
                                                              'algn' => '8',
                                                              'name' => 'p1',
                                                              'type' => '4190'
                                                            }
                                                   },
                                        'ShortName' => 'basic_result_final',
                                        'Throw' => 1
                                      },
                            '3794' => {
                                        'Artificial' => 1,
                                        'Class' => '871',
                                        'Destructor' => 1,
                                        'Header' => 'abi.hpp',
                                        'Line' => '4617',
                                        'MnglName' => '_ZN10outcome_v26detail33basic_outcome_exception_observersINS0_18basic_result_finalIilNS_6policy10all_narrowEEEildS4_ED0Ev',
                                        'ShortName' => 'basic_outcome_exception_observers',
                                        'Throw' => 1
                                      },
                            '3800' => {
                                        'Artificial' => 1,
                                        'Class' => '661',
                                        'Header' => 'abi.hpp',
                                        'Line' => '4903',
                                        'MnglName' => '_ZN10outcome_v213basic_outcomeIildNS_6policy10all_narrowEEaSERKNS0_IildS2_EE',
                                        'Param' => {
                                                     '0' => {
                                                              'algn' => '8',
                                                              'name' => 'this',
                                                              'type' => '1418'
                                                            },
                                                     '1' => {
                                                              'algn' => '8',
                                                              'name' => 'p1',
                                                              'type' => '1803'
                                                            }
                                                   },
                                        'Return' => '1695',
                                        'ShortName' => 'operator=',
                                        'Throw' => 1
                                      },
                            '3806' => {
                                        'Class' => '1188',
                                        'Constructor' => 'C1',
                                        'Header' => 'abi.hpp',
                                        'Line' => '4230',
                                        'MnglName' => '_ZN10outcome_v212basic_resultIilNS_6policy10all_narrowEEC1ERKNS0_IilS2_EE',
                                        'Param' => {
                                                     '0' => {
                                                              'algn' => '8',
                                                              'name' => 'this',
                                                              'type' => '2001'
                                                            },
                                                     '1' => {
                                                              'algn' => '8',
                                                              'name' => 'p1',
                                                              'type' => '2576'
                                                            }
                                                   },
                                        'ShortName' => 'basic_result',
                                        'Throw' => 1
                                      },
                            '3847' => {
                                        'Class' => '3493',
                                        'Data' => 1,
                                        'Header' => 'abi.hpp',
                                        'Line' => '1783',
                                        'MnglName' => '_ZN10outcome_v26detail15is_success_typeIE5valueE',
                                        'Return' => '107',
                                        'ShortName' => 'value',
                                        'Value' => 'false'
                                      },
                            '3862' => {
                                        'Class' => '3500',
                                        'Data' => 1,
                                        'Header' => 'abi.hpp',
                                        'Line' => '1791',
                                        'MnglName' => '_ZN10outcome_v26detail15is_failure_typeIdE5valueE',
                                        'Return' => '107',
                                        'ShortName' => 'value',
                                        'Value' => 'false'
                                      },
                            '4018' => {
                                        'Data' => 1,
                                        'Header' => 'abi.hpp',
                                        'Line' => '1801',
                                        'MnglName' => '_ZN10outcome_v2L15is_success_typeE',
                                        'NameSpace' => 'outcome_v2',
                                        'Return' => '107',
                                        'ShortName' => 'is_success_type',
                                        'Value' => 'false'
                                      },
                            '40206' => {
                                         'Class' => '661',
                                         'Header' => 'abi.hpp',
                                         'Line' => '5599',
                                         'MnglName' => '_ZN10outcome_v213basic_outcomeIildNS_6policy10all_narrowEE4swapERNS0_IildS2_EE',
                                         'Param' => {
                                                      '0' => {
                                                               'algn' => '8',
                                                               'name' => 'this',
                                                               'type' => '1418'
                                                             },
                                                      '1' => {
                                                               'algn' => '8',
                                                               'name' => 'o',
                                                               'type' => '1695'
                                                             }
                                                    },
                                         'Return' => '17',
                                         'ShortName' => 'swap',
                                         'Throw' => 1
                                       },
                            '4022' => {
                                        'Data' => 1,
                                        'Header' => 'abi.hpp',
                                        'Line' => '1805',
                                        'MnglName' => '_ZN10outcome_v2L15is_failure_typeE',
                                        'NameSpace' => 'outcome_v2',
                                        'Return' => '107',
                                        'ShortName' => 'is_failure_type',
                                        'Value' => 'false'
                                      },
                            '4039' => {
                                        'Class' => '1646',
                                        'Data' => 1,
                                        'Header' => 'abi.hpp',
                                        'Line' => '4777',
                                        'MnglName' => '_ZN10outcome_v26detail18outcome_predicatesIE28enable_compatible_conversionE',
                                        'Return' => '107',
                                        'ShortName' => 'enable_compatible_conversion'
                                      },
                            '40437' => {
                                         'Class' => '661',
                                         'Const' => 1,
                                         'Header' => 'abi.hpp',
                                         'Line' => '5681',
                                         'MnglName' => '_ZNK10outcome_v213basic_outcomeIildNS_6policy10all_narrowEE10as_failureEv',
                                         'Param' => {
                                                      '0' => {
                                                               'algn' => '8',
                                                               'name' => 'this',
                                                               'type' => '39978'
                                                             }
                                                    },
                                         'Return' => '5355',
                                         'ShortName' => 'as_failure',
                                         'Throw' => 1
                                       },
                            '4044' => {
                                        'Class' => '1909',
                                        'Data' => 1,
                                        'Header' => 'abi.hpp',
                                        'Line' => '4770',
                                        'MnglName' => '_ZN10outcome_v26detail18outcome_predicatesIildE45enable_error_exception_converting_constructorE',
                                        'Return' => '107',
                                        'ShortName' => 'enable_error_exception_converting_constructor'
                                      },
                            '4051' => {
                                        'Class' => '1909',
                                        'Data' => 1,
                                        'Header' => 'abi.hpp',
                                        'Line' => '4763',
                                        'MnglName' => '_ZN10outcome_v26detail18outcome_predicatesIildE39enable_exception_converting_constructorE',
                                        'Return' => '107',
                                        'ShortName' => 'enable_exception_converting_constructor',
                                        'Value' => 'false'
                                      },
                            '40673' => {
                                         'Class' => '661',
                                         'Header' => 'abi.hpp',
                                         'Line' => '5696',
                                         'MnglName' => '_ZN10outcome_v213basic_outcomeIildNS_6policy10all_narrowEE10as_failureEv',
                                         'Param' => {
                                                      '0' => {
                                                               'algn' => '8',
                                                               'name' => 'this',
                                                               'type' => '1418'
                                                             }
                                                    },
                                         'Return' => '5355',
                                         'ShortName' => 'as_failure',
                                         'Throw' => 1
                                       },
                            '4108' => {
                                        'Class' => '3724',
                                        'Data' => 1,
                                        'Header' => 'abi.hpp',
                                        'Line' => '4035',
                                        'MnglName' => '_ZN10outcome_v26detail15is_basic_resultIN10outcome_v212basic_resultIilNS_6policy10all_narrowEEEE5valueE',
                                        'Return' => '107',
                                        'ShortName' => 'value',
                                        'Value' => '-1'
                                      },
                            '4112' => {
                                        'Class' => '3726',
                                        'Data' => 1,
                                        'Header' => 'abi.hpp',
                                        'Line' => '4035',
                                        'MnglName' => '_ZN10outcome_v26detail15is_basic_resultIE5valueE',
                                        'Return' => '107',
                                        'ShortName' => 'value',
                                        'Value' => '-1'
                                      },
                            '4153' => {
                                        'Artificial' => 1,
                                        'Class' => '3764',
                                        'Header' => 'abi.hpp',
                                        'Line' => '1006',
                                        'MnglName' => '_ZN10outcome_v26detail10empty_typeaSERS1_',
                                        'Param' => {
                                                     '0' => {
                                                              'algn' => '8',
                                                              'name' => 'this',
                                                              'type' => '5032'
                                                            },
                                                     '1' => {
                                                              'algn' => '8',
                                                              'name' => 'p1',
                                                              'type' => '5027'
                                                            }
                                                   },
                                        'Return' => '5027',
                                        'ShortName' => 'operator=',
                                        'Throw' => 1
                                      },
                            '4164' => {
                                        'Artificial' => 1,
                                        'Class' => '3407',
                                        'Destructor' => 'D2',
                                        'Header' => 'abi.hpp',
                                        'Line' => '2128',
                                        'MnglName' => '_ZN10outcome_v26detail20status_bitfield_typeD2Ev',
                                        'ShortName' => 'status_bitfield_type',
                                        'Throw' => 1
                                      },
                            '4168' => {
                                        'Class' => '2754',
                                        'Data' => 1,
                                        'Header' => 'abi.hpp',
                                        'Line' => '2326',
                                        'MnglName' => '_ZN10outcome_v26detail21value_storage_trivialIilE40enable_void_value_converting_constructorE',
                                        'Return' => '107',
                                        'ShortName' => 'enable_void_value_converting_constructor'
                                      },
                            '4174' => {
                                        'Class' => '1930',
                                        'Constructor' => 'C2',
                                        'Header' => 'abi.hpp',
                                        'Line' => '3114',
                                        'MnglName' => '_ZN10outcome_v26detail20basic_result_storageIilNS_6policy10all_narrowEEC2ERKNS1_IilS3_EE',
                                        'Param' => {
                                                     '0' => {
                                                              'algn' => '8',
                                                              'name' => 'this',
                                                              'type' => '2764'
                                                            },
                                                     '1' => {
                                                              'algn' => '8',
                                                              'name' => 'p1',
                                                              'type' => '5056'
                                                            }
                                                   },
                                        'Protected' => 1,
                                        'ShortName' => 'basic_result_storage',
                                        'Throw' => 1
                                      },
                            '4178' => {
                                        'Artificial' => 1,
                                        'Class' => '1667',
                                        'Constructor' => 'C1',
                                        'Header' => 'abi.hpp',
                                        'Line' => '3455',
                                        'MnglName' => '_ZN10outcome_v26detail28basic_result_value_observersINS0_20basic_result_storageIilNS_6policy10all_narrowEEEiS4_EC1ERNS1_INS2_IilS4_EEiS4_EE',
                                        'Param' => {
                                                     '0' => {
                                                              'algn' => '8',
                                                              'name' => 'this',
                                                              'type' => '2486'
                                                            },
                                                     '1' => {
                                                              'algn' => '8',
                                                              'name' => 'p1',
                                                              'type' => '2481'
                                                            }
                                                   },
                                        'ShortName' => 'basic_result_value_observers',
                                        'Throw' => 1
                                      },
                            '4192' => {
                                        'Artificial' => 1,
                                        'Class' => '871',
                                        'Destructor' => 'D2',
                                        'Header' => 'abi.hpp',
                                        'Line' => '4617',
                                        'MnglName' => '_ZN10outcome_v26detail33basic_outcome_exception_observersINS0_18basic_result_finalIilNS_6policy10all_narrowEEEildS4_ED2Ev',
                                        'ShortName' => 'basic_outcome_exception_observers',
                                        'Throw' => 1
                                      },
                            '4208' => {
                                        'Class' => '1188',
                                        'Header' => 'abi.hpp',
                                        'Line' => '4234',
                                        'MnglName' => '_ZN10outcome_v212basic_resultIilNS_6policy10all_narrowEEaSERNS0_IilS2_EE',
                                        'Param' => {
                                                     '0' => {
                                                              'algn' => '8',
                                                              'name' => 'this',
                                                              'type' => '2001'
                                                            },
                                                     '1' => {
                                                              'algn' => '8',
                                                              'name' => 'p1',
                                                              'type' => '3125'
                                                            }
                                                   },
                                        'Return' => '3125',
                                        'ShortName' => 'operator=',
                                        'Throw' => 1
                                      },
                            '424' => {
                                       'Class' => '319',
                                       'Data' => 1,
                                       'Header' => 'abi.hpp',
                                       'Line' => '1919',
                                       'MnglName' => '_ZN10outcome_v25trait26is_exception_ptr_availableIdE5valueE',
                                       'Return' => '107',
                                       'ShortName' => 'value',
                                       'Value' => 'false'
                                     },
                            '4249' => {
                                        'Class' => '3850',
                                        'Data' => 1,
                                        'Header' => 'abi.hpp',
                                        'Line' => '1116',
                                        'MnglName' => '_ZN10outcome_v26detail20is_nothrow_swappableIE5valueE',
                                        'Return' => '107',
                                        'ShortName' => 'value'
                                      },
                            '4253' => {
                                        'Data' => 1,
                                        'Header' => 'abi.hpp',
                                        'Line' => '1092',
                                        'MnglName' => '_ZN10outcome_v26detailL16is_constructibleE',
                                        'NameSpace' => 'outcome_v2::detail',
                                        'Return' => '107',
                                        'ShortName' => 'is_constructible'
                                      },
                            '4261' => {
                                        'Class' => '3856',
                                        'Data' => 1,
                                        'Header' => 'abi.hpp',
                                        'Line' => '1783',
                                        'MnglName' => '_ZN10outcome_v26detail15is_success_typeIdE5valueE',
                                        'Return' => '107',
                                        'ShortName' => 'value',
                                        'Value' => 'false'
                                      },
                            '4273' => {
                                        'Class' => '3865',
                                        'Data' => 1,
                                        'Header' => 'abi.hpp',
                                        'Line' => '1791',
                                        'MnglName' => '_ZN10outcome_v26detail15is_failure_typeIlE5valueE',
                                        'Return' => '107',
                                        'ShortName' => 'value',
                                        'Value' => 'false'
                                      },
                            '4279' => {
                                        'Class' => '3868',
                                        'Data' => 1,
                                        'Header' => 'abi.hpp',
                                        'Line' => '1795',
                                        'MnglName' => '_ZN10outcome_v26detail15is_failure_typeIE5valueE',
                                        'Return' => '107',
                                        'ShortName' => 'value',
                                        'Value' => '-1'
                                      },
                            '4443' => {
                                        'Data' => 1,
                                        'Header' => 'abi.hpp',
                                        'Line' => '1801',
                                        'MnglName' => '_ZN10outcome_v2L15is_success_typeE',
                                        'NameSpace' => 'outcome_v2',
                                        'Return' => '107',
                                        'ShortName' => 'is_success_type',
                                        'Value' => 'false'
                                      },
                            '4447' => {
                                        'Data' => 1,
                                        'Header' => 'abi.hpp',
                                        'Line' => '1805',
                                        'MnglName' => '_ZN10outcome_v2L15is_failure_typeE',
                                        'NameSpace' => 'outcome_v2',
                                        'Return' => '107',
                                        'ShortName' => 'is_failure_type',
                                        'Value' => 'false'
                                      },
                            '4457' => {
                                        'Class' => '1646',
                                        'Data' => 1,
                                        'Header' => 'abi.hpp',
                                        'Line' => '4787',
                                        'MnglName' => '_ZN10outcome_v26detail18outcome_predicatesIE44enable_make_error_code_compatible_conversionE',
                                        'Return' => '107',
                                        'ShortName' => 'enable_make_error_code_compatible_conversion'
                                      },
                            '4462' => {
                                        'Class' => '1909',
                                        'Data' => 1,
                                        'Header' => 'abi.hpp',
                                        'Line' => '4777',
                                        'MnglName' => '_ZN10outcome_v26detail18outcome_predicatesIildE28enable_compatible_conversionE',
                                        'Return' => '107',
                                        'ShortName' => 'enable_compatible_conversion',
                                        'Value' => '-1'
                                      },
                            '4562' => {
                                        'Class' => '1909',
                                        'Data' => 1,
                                        'Header' => 'abi.hpp',
                                        'Line' => '4777',
                                        'MnglName' => '_ZN10outcome_v26detail18outcome_predicatesIildE28enable_compatible_conversionE',
                                        'Return' => '107',
                                        'ShortName' => 'enable_compatible_conversion'
                                      },
                            '4569' => {
                                        'Class' => '2754',
                                        'Constructor' => 'C2',
                                        'Header' => 'abi.hpp',
                                        'Line' => '2254',
                                        'MnglName' => '_ZN10outcome_v26detail21value_storage_trivialIilEC2ERKS2_',
                                        'Param' => {
                                                     '0' => {
                                                              'algn' => '8',
                                                              'name' => 'this',
                                                              'type' => '3760'
                                                            },
                                                     '1' => {
                                                              'algn' => '8',
                                                              'name' => 'p1',
                                                              'type' => '5512'
                                                            }
                                                   },
                                        'ShortName' => 'value_storage_trivial',
                                        'Throw' => 1
                                      },
                            '4578' => {
                                        'Artificial' => 1,
                                        'Class' => '3764',
                                        'Header' => 'abi.hpp',
                                        'Line' => '1006',
                                        'MnglName' => '_ZN10outcome_v26detail10empty_typeaSERKS1_',
                                        'Param' => {
                                                     '0' => {
                                                              'algn' => '8',
                                                              'name' => 'this',
                                                              'type' => '5032'
                                                            },
                                                     '1' => {
                                                              'algn' => '8',
                                                              'name' => 'p1',
                                                              'type' => '6051'
                                                            }
                                                   },
                                        'Return' => '5027',
                                        'ShortName' => 'operator=',
                                        'Throw' => 1
                                      },
                            '4590' => {
                                        'Artificial' => 1,
                                        'Class' => '3407',
                                        'Destructor' => 'D1',
                                        'Header' => 'abi.hpp',
                                        'Line' => '2128',
                                        'MnglName' => '_ZN10outcome_v26detail20status_bitfield_typeD1Ev',
                                        'ShortName' => 'status_bitfield_type',
                                        'Throw' => 1
                                      },
                            '4596' => {
                                        'Class' => '2754',
                                        'Data' => 1,
                                        'Header' => 'abi.hpp',
                                        'Line' => '2352',
                                        'MnglName' => '_ZN10outcome_v26detail21value_storage_trivialIilE40enable_void_error_converting_constructorE',
                                        'Return' => '107',
                                        'ShortName' => 'enable_void_error_converting_constructor'
                                      },
                            '4603' => {
                                        'Class' => '1930',
                                        'Constructor' => 'C1',
                                        'Header' => 'abi.hpp',
                                        'Line' => '3114',
                                        'MnglName' => '_ZN10outcome_v26detail20basic_result_storageIilNS_6policy10all_narrowEEC1ERKNS1_IilS3_EE',
                                        'Param' => {
                                                     '0' => {
                                                              'algn' => '8',
                                                              'name' => 'this',
                                                              'type' => '2764'
                                                            },
                                                     '1' => {
                                                              'algn' => '8',
                                                              'name' => 'p1',
                                                              'type' => '5056'
                                                            }
                                                   },
                                        'Protected' => 1,
                                        'ShortName' => 'basic_result_storage',
                                        'Throw' => 1
                                      },
                            '4611' => {
                                        'Artificial' => 1,
                                        'Class' => '1399',
                                        'Constructor' => 'C2',
                                        'Header' => 'abi.hpp',
                                        'Line' => '3371',
                                        'MnglName' => '_ZN10outcome_v26detail28basic_result_error_observersIN10outcome_v26detail28basic_result_value_observersINS0_20basic_result_storageIilNS_6policy10all_narrowEEEiS5_EElS5_EC2ERKNS1_INS2_INS3_IilS5_EEiS5_EElS5_EE',
                                        'Param' => {
                                                     '0' => {
                                                              'algn' => '8',
                                                              'name' => 'this',
                                                              'type' => '2215'
                                                            },
                                                     '1' => {
                                                              'algn' => '8',
                                                              'name' => 'p1',
                                                              'type' => '3788'
                                                            }
                                                   },
                                        'ShortName' => 'basic_result_error_observers',
                                        'Throw' => 1
                                      },
                            '4615' => {
                                        'Artificial' => 1,
                                        'Class' => '1131',
                                        'Constructor' => 'C2',
                                        'Header' => 'abi.hpp',
                                        'Line' => '3516',
                                        'MnglName' => '_ZN10outcome_v26detail18basic_result_finalIilNS_6policy10all_narrowEEC2Ev',
                                        'Param' => {
                                                     '0' => {
                                                              'algn' => '8',
                                                              'name' => 'this',
                                                              'type' => '1946'
                                                            }
                                                   },
                                        'ShortName' => 'basic_result_final',
                                        'Throw' => 1
                                      },
                            '4621' => {
                                        'Artificial' => 1,
                                        'Class' => '871',
                                        'Destructor' => 'D1',
                                        'Header' => 'abi.hpp',
                                        'Line' => '4617',
                                        'MnglName' => '_ZN10outcome_v26detail33basic_outcome_exception_observersINS0_18basic_result_finalIilNS_6policy10all_narrowEEEildS4_ED1Ev',
                                        'ShortName' => 'basic_outcome_exception_observers',
                                        'Throw' => 1
                                      },
                            '4639' => {
                                        'Class' => '1188',
                                        'Header' => 'abi.hpp',
                                        'Line' => '4238',
                                        'MnglName' => '_ZN10outcome_v212basic_resultIilNS_6policy10all_narrowEEaSERKNS0_IilS2_EE',
                                        'Param' => {
                                                     '0' => {
                                                              'algn' => '8',
                                                              'name' => 'this',
                                                              'type' => '2001'
                                                            },
                                                     '1' => {
                                                              'algn' => '8',
                                                              'name' => 'p1',
                                                              'type' => '2576'
                                                            }
                                                   },
                                        'Return' => '3125',
                                        'ShortName' => 'operator=',
                                        'Throw' => 1
                                      },
                            '4695' => {
                                        'Data' => 1,
                                        'Header' => 'abi.hpp',
                                        'Line' => '1092',
                                        'MnglName' => '_ZN10outcome_v26detailL16is_constructibleE',
                                        'NameSpace' => 'outcome_v2::detail',
                                        'Return' => '107',
                                        'ShortName' => 'is_constructible',
                                        'Value' => '-1'
                                      },
                            '4705' => {
                                        'Class' => '4264',
                                        'Data' => 1,
                                        'Header' => 'abi.hpp',
                                        'Line' => '1783',
                                        'MnglName' => '_ZN10outcome_v26detail15is_success_typeIlE5valueE',
                                        'Return' => '107',
                                        'ShortName' => 'value',
                                        'Value' => 'false'
                                      },
                            '4711' => {
                                        'Class' => '3493',
                                        'Data' => 1,
                                        'Header' => 'abi.hpp',
                                        'Line' => '1787',
                                        'MnglName' => '_ZN10outcome_v26detail15is_success_typeIE5valueE',
                                        'Return' => '107',
                                        'ShortName' => 'value',
                                        'Value' => '-1'
                                      },
                            '4718' => {
                                        'Class' => '4276',
                                        'Data' => 1,
                                        'Header' => 'abi.hpp',
                                        'Line' => '1791',
                                        'MnglName' => '_ZN10outcome_v26detail15is_failure_typeIiE5valueE',
                                        'Return' => '107',
                                        'ShortName' => 'value',
                                        'Value' => 'false'
                                      },
                            '4801' => {
                                        'Class' => '1600',
                                        'Const' => 1,
                                        'Header' => 'typeinfo',
                                        'Line' => '152',
                                        'MnglName' => '_ZNKSt9type_info14__is_pointer_pEv',
                                        'Param' => {
                                                     '0' => {
                                                              'algn' => '8',
                                                              'name' => 'this',
                                                              'type' => '3581'
                                                            }
                                                   },
                                        'Return' => '165',
                                        'ShortName' => '__is_pointer_p',
                                        'Virt' => 1
                                      },
                            '488' => {
                                       'Class' => '358',
                                       'Data' => 1,
                                       'Header' => 'abi.hpp',
                                       'Line' => '4835',
                                       'MnglName' => '_ZN10outcome_v26detail16is_basic_outcomeIE5valueE',
                                       'Return' => '107',
                                       'ShortName' => 'value',
                                       'Value' => 'false'
                                     },
                            '4885' => {
                                        'Data' => 1,
                                        'Header' => 'abi.hpp',
                                        'Line' => '1801',
                                        'MnglName' => '_ZN10outcome_v2L15is_success_typeE',
                                        'NameSpace' => 'outcome_v2',
                                        'Return' => '107',
                                        'ShortName' => 'is_success_type',
                                        'Value' => 'false'
                                      },
                            '4900' => {
                                        'Class' => '1909',
                                        'Data' => 1,
                                        'Header' => 'abi.hpp',
                                        'Line' => '4787',
                                        'MnglName' => '_ZN10outcome_v26detail18outcome_predicatesIildE44enable_make_error_code_compatible_conversionE',
                                        'Return' => '107',
                                        'ShortName' => 'enable_make_error_code_compatible_conversion'
                                      },
                            '5015' => {
                                        'Class' => '2754',
                                        'Constructor' => 'C1',
                                        'Header' => 'abi.hpp',
                                        'Line' => '2254',
                                        'MnglName' => '_ZN10outcome_v26detail21value_storage_trivialIilEC1ERKS2_',
                                        'Param' => {
                                                     '0' => {
                                                              'algn' => '8',
                                                              'name' => 'this',
                                                              'type' => '3760'
                                                            },
                                                     '1' => {
                                                              'algn' => '8',
                                                              'name' => 'p1',
                                                              'type' => '5512'
                                                            }
                                                   },
                                        'ShortName' => 'value_storage_trivial',
                                        'Throw' => 1
                                      },
                            '5030' => {
                                        'Artificial' => 1,
                                        'Class' => '3764',
                                        'Destructor' => 1,
                                        'Header' => 'abi.hpp',
                                        'Line' => '1006',
                                        'MnglName' => '_ZN10outcome_v26detail10empty_typeD0Ev',
                                        'ShortName' => 'empty_type',
                                        'Throw' => 1
                                      },
                            '5058' => {
                                        'Artificial' => 1,
                                        'Class' => '1667',
                                        'Constructor' => 'C2',
                                        'Header' => 'abi.hpp',
                                        'Line' => '3455',
                                        'MnglName' => '_ZN10outcome_v26detail28basic_result_value_observersINS0_20basic_result_storageIilNS_6policy10all_narrowEEEiS4_EC2ERKNS1_INS2_IilS4_EEiS4_EE',
                                        'Param' => {
                                                     '0' => {
                                                              'algn' => '8',
                                                              'name' => 'this',
                                                              'type' => '2486'
                                                            },
                                                     '1' => {
                                                              'algn' => '8',
                                                              'name' => 'p1',
                                                              'type' => '3086'
                                                            }
                                                   },
                                        'ShortName' => 'basic_result_value_observers',
                                        'Throw' => 1
                                      },
                            '5063' => {
                                        'Artificial' => 1,
                                        'Class' => '1399',
                                        'Constructor' => 'C1',
                                        'Header' => 'abi.hpp',
                                        'Line' => '3371',
                                        'MnglName' => '_ZN10outcome_v26detail28basic_result_error_observersIN10outcome_v26detail28basic_result_value_observersINS0_20basic_result_storageIilNS_6policy10all_narrowEEEiS5_EElS5_EC1ERKNS1_INS2_INS3_IilS5_EEiS5_EElS5_EE',
                                        'Param' => {
                                                     '0' => {
                                                              'algn' => '8',
                                                              'name' => 'this',
                                                              'type' => '2215'
                                                            },
                                                     '1' => {
                                                              'algn' => '8',
                                                              'name' => 'p1',
                                                              'type' => '3788'
                                                            }
                                                   },
                                        'ShortName' => 'basic_result_error_observers',
                                        'Throw' => 1
                                      },
                            '5066' => {
                                        'Artificial' => 1,
                                        'Class' => '1131',
                                        'Constructor' => 'C1',
                                        'Header' => 'abi.hpp',
                                        'Line' => '3516',
                                        'MnglName' => '_ZN10outcome_v26detail18basic_result_finalIilNS_6policy10all_narrowEEC1Ev',
                                        'Param' => {
                                                     '0' => {
                                                              'algn' => '8',
                                                              'name' => 'this',
                                                              'type' => '1946'
                                                            }
                                                   },
                                        'ShortName' => 'basic_result_final',
                                        'Throw' => 1
                                      },
                            '5068' => {
                                        'Artificial' => 1,
                                        'Class' => '871',
                                        'Header' => 'abi.hpp',
                                        'Line' => '4617',
                                        'MnglName' => '_ZN10outcome_v26detail33basic_outcome_exception_observersINS0_18basic_result_finalIilNS_6policy10all_narrowEEEildS4_EaSERNS1_INS2_IilS4_EEildS4_EE',
                                        'Param' => {
                                                     '0' => {
                                                              'algn' => '8',
                                                              'name' => 'this',
                                                              'type' => '1682'
                                                            },
                                                     '1' => {
                                                              'algn' => '8',
                                                              'name' => 'p1',
                                                              'type' => '1956'
                                                            }
                                                   },
                                        'Return' => '1956',
                                        'ShortName' => 'operator=',
                                        'Throw' => 1
                                      },
                            '5085' => {
                                        'Class' => '1188',
                                        'Destructor' => 1,
                                        'Header' => 'abi.hpp',
                                        'Line' => '4239',
                                        'MnglName' => '_ZN10outcome_v212basic_resultIilNS_6policy10all_narrowEED0Ev',
                                        'ShortName' => 'basic_result',
                                        'Throw' => 1
                                      },
                            '5135' => {
                                        'Class' => '4687',
                                        'Data' => 1,
                                        'Header' => 'abi.hpp',
                                        'Line' => '1082',
                                        'MnglName' => '_ZN10outcome_v26detail17_is_constructibleIE5valueE',
                                        'Return' => '107',
                                        'ShortName' => 'value'
                                      },
                            '5139' => {
                                        'Data' => 1,
                                        'Header' => 'abi.hpp',
                                        'Line' => '1079',
                                        'MnglName' => '_ZN10outcome_v26detailL24is_nothrow_constructibleE',
                                        'NameSpace' => 'outcome_v2::detail',
                                        'Return' => '107',
                                        'ShortName' => 'is_nothrow_constructible'
                                      },
                            '5149' => {
                                        'Data' => 1,
                                        'Header' => 'abi.hpp',
                                        'Line' => '1092',
                                        'MnglName' => '_ZN10outcome_v26detailL16is_constructibleE',
                                        'NameSpace' => 'outcome_v2::detail',
                                        'Return' => '107',
                                        'ShortName' => 'is_constructible',
                                        'Value' => '-1'
                                      },
                            '5160' => {
                                        'Class' => '4708',
                                        'Data' => 1,
                                        'Header' => 'abi.hpp',
                                        'Line' => '1783',
                                        'MnglName' => '_ZN10outcome_v26detail15is_success_typeIiE5valueE',
                                        'Return' => '107',
                                        'ShortName' => 'value',
                                        'Value' => 'false'
                                      },
                            '5269' => {
                                        'Class' => '1600',
                                        'Const' => 1,
                                        'Header' => 'typeinfo',
                                        'Line' => '155',
                                        'MnglName' => '_ZNKSt9type_info15__is_function_pEv',
                                        'Param' => {
                                                     '0' => {
                                                              'algn' => '8',
                                                              'name' => 'this',
                                                              'type' => '3581'
                                                            }
                                                   },
                                        'Return' => '165',
                                        'ShortName' => '__is_function_p',
                                        'Virt' => 1
                                      },
                            '5351' => {
                                        'Header' => 'abi.hpp',
                                        'InLine' => 1,
                                        'Line' => '1637',
                                        'MnglName' => '_ZN10outcome_v27successEv',
                                        'NameSpace' => 'outcome_v2',
                                        'Return' => '6371',
                                        'ShortName' => 'success',
                                        'Throw' => 1
                                      },
                            '5377' => {
                                        'Class' => '1646',
                                        'Data' => 1,
                                        'Header' => 'abi.hpp',
                                        'Line' => '4814',
                                        'MnglName' => '_ZN10outcome_v26detail18outcome_predicatesIE48enable_inplace_value_error_exception_constructorE',
                                        'Return' => '107',
                                        'ShortName' => 'enable_inplace_value_error_exception_constructor'
                                      },
                            '539' => {
                                       'Class' => '416',
                                       'Data' => 1,
                                       'Header' => 'abi.hpp',
                                       'Line' => '1910',
                                       'MnglName' => '_ZN10outcome_v25trait23is_error_code_availableIE5valueE',
                                       'Return' => '107',
                                       'ShortName' => 'value'
                                     },
                            '5513' => {
                                        'Class' => '5021',
                                        'Data' => 1,
                                        'Header' => 'abi.hpp',
                                        'Line' => '999',
                                        'MnglName' => '_ZN10outcome_v26detail18is_in_place_type_tIE5valueE',
                                        'Return' => '107',
                                        'ShortName' => 'value',
                                        'Value' => 'false'
                                      },
                            '5526' => {
                                        'Artificial' => 1,
                                        'Class' => '3764',
                                        'Destructor' => 'D2',
                                        'Header' => 'abi.hpp',
                                        'Line' => '1006',
                                        'MnglName' => '_ZN10outcome_v26detail10empty_typeD2Ev',
                                        'ShortName' => 'empty_type',
                                        'Throw' => 1
                                      },
                            '5534' => {
                                        'Class' => '3407',
                                        'Constructor' => 'C2',
                                        'Header' => 'abi.hpp',
                                        'Line' => '2132',
                                        'MnglName' => '_ZN10outcome_v26detail20status_bitfield_typeC2Ev',
                                        'Param' => {
                                                     '0' => {
                                                              'algn' => '8',
                                                              'name' => 'this',
                                                              'type' => '4592'
                                                            }
                                                   },
                                        'ShortName' => 'status_bitfield_type',
                                        'Throw' => 1
                                      },
                            '5543' => {
                                        'Class' => '1930',
                                        'Constructor' => 'C2',
                                        'Header' => 'abi.hpp',
                                        'Line' => '3115',
                                        'MnglName' => '_ZN10outcome_v26detail20basic_result_storageIilNS_6policy10all_narrowEEC2ERNS1_IilS3_EE',
                                        'Param' => {
                                                     '0' => {
                                                              'algn' => '8',
                                                              'name' => 'this',
                                                              'type' => '2764'
                                                            },
                                                     '1' => {
                                                              'algn' => '8',
                                                              'name' => 'p1',
                                                              'type' => '6581'
                                                            }
                                                   },
                                        'Protected' => 1,
                                        'ShortName' => 'basic_result_storage',
                                        'Throw' => 1
                                      },
                            '5548' => {
                                        'Artificial' => 1,
                                        'Class' => '1667',
                                        'Constructor' => 'C1',
                                        'Header' => 'abi.hpp',
                                        'Line' => '3455',
                                        'MnglName' => '_ZN10outcome_v26detail28basic_result_value_observersINS0_20basic_result_storageIilNS_6policy10all_narrowEEEiS4_EC1ERKNS1_INS2_IilS4_EEiS4_EE',
                                        'Param' => {
                                                     '0' => {
                                                              'algn' => '8',
                                                              'name' => 'this',
                                                              'type' => '2486'
                                                            },
                                                     '1' => {
                                                              'algn' => '8',
                                                              'name' => 'p1',
                                                              'type' => '3086'
                                                            }
                                                   },
                                        'ShortName' => 'basic_result_value_observers',
                                        'Throw' => 1
                                      },
                            '5555' => {
                                        'Artificial' => 1,
                                        'Class' => '1131',
                                        'Header' => 'abi.hpp',
                                        'Line' => '3516',
                                        'MnglName' => '_ZN10outcome_v26detail18basic_result_finalIilNS_6policy10all_narrowEEaSERNS1_IilS3_EE',
                                        'Param' => {
                                                     '0' => {
                                                              'algn' => '8',
                                                              'name' => 'this',
                                                              'type' => '1946'
                                                            },
                                                     '1' => {
                                                              'algn' => '8',
                                                              'name' => 'p1',
                                                              'type' => '3098'
                                                            }
                                                   },
                                        'Return' => '3098',
                                        'ShortName' => 'operator=',
                                        'Throw' => 1
                                      },
                            '5558' => {
                                        'Artificial' => 1,
                                        'Class' => '871',
                                        'Header' => 'abi.hpp',
                                        'Line' => '4617',
                                        'MnglName' => '_ZN10outcome_v26detail33basic_outcome_exception_observersINS0_18basic_result_finalIilNS_6policy10all_narrowEEEildS4_EaSERKNS1_INS2_IilS4_EEildS4_EE',
                                        'Param' => {
                                                     '0' => {
                                                              'algn' => '8',
                                                              'name' => 'this',
                                                              'type' => '1682'
                                                            },
                                                     '1' => {
                                                              'algn' => '8',
                                                              'name' => 'p1',
                                                              'type' => '2789'
                                                            }
                                                   },
                                        'Return' => '1956',
                                        'ShortName' => 'operator=',
                                        'Throw' => 1
                                      },
                            '5576' => {
                                        'Class' => '1188',
                                        'Destructor' => 'D2',
                                        'Header' => 'abi.hpp',
                                        'Line' => '4239',
                                        'MnglName' => '_ZN10outcome_v212basic_resultIilNS_6policy10all_narrowEED2Ev',
                                        'ShortName' => 'basic_result',
                                        'Throw' => 1
                                      },
                            '5634' => {
                                        'Class' => '5142',
                                        'Data' => 1,
                                        'Header' => 'abi.hpp',
                                        'Line' => '1082',
                                        'MnglName' => '_ZN10outcome_v26detail17_is_constructibleIzE5valueE',
                                        'Return' => '107',
                                        'ShortName' => 'value',
                                        'Value' => '-1'
                                      },
                            '5766' => {
                                        'Class' => '1600',
                                        'Const' => 1,
                                        'Header' => 'typeinfo',
                                        'Line' => '163',
                                        'MnglName' => '_ZNKSt9type_info10__do_catchEPKS_PPvj',
                                        'Param' => {
                                                     '0' => {
                                                              'algn' => '8',
                                                              'name' => 'this',
                                                              'type' => '3581'
                                                            },
                                                     '1' => {
                                                              'algn' => '8',
                                                              'name' => '__thr_type',
                                                              'type' => '3944'
                                                            },
                                                     '2' => {
                                                              'algn' => '8',
                                                              'name' => '__thr_obj',
                                                              'type' => '7858'
                                                            },
                                                     '3' => {
                                                              'algn' => '4',
                                                              'name' => '__outer',
                                                              'type' => '2893'
                                                            }
                                                   },
                                        'Return' => '165',
                                        'ShortName' => '__do_catch',
                                        'Virt' => 1
                                      },
                            '5881' => {
                                        'Class' => '1909',
                                        'Data' => 1,
                                        'Header' => 'abi.hpp',
                                        'Line' => '4814',
                                        'MnglName' => '_ZN10outcome_v26detail18outcome_predicatesIildE48enable_inplace_value_error_exception_constructorE',
                                        'Return' => '107',
                                        'ShortName' => 'enable_inplace_value_error_exception_constructor'
                                      },
                            '6028' => {
                                        'Class' => '2754',
                                        'Constructor' => 'C2',
                                        'Header' => 'abi.hpp',
                                        'Line' => '2255',
                                        'MnglName' => '_ZN10outcome_v26detail21value_storage_trivialIilEC2ERS2_',
                                        'Param' => {
                                                     '0' => {
                                                              'algn' => '8',
                                                              'name' => 'this',
                                                              'type' => '3760'
                                                            },
                                                     '1' => {
                                                              'algn' => '8',
                                                              'name' => 'p1',
                                                              'type' => '7059'
                                                            }
                                                   },
                                        'ShortName' => 'value_storage_trivial',
                                        'Throw' => 1
                                      },
                            '6034' => {
                                        'Class' => '5516',
                                        'Data' => 1,
                                        'Header' => 'abi.hpp',
                                        'Line' => '999',
                                        'MnglName' => '_ZN10outcome_v26detail18is_in_place_type_tIN10outcome_v213basic_outcomeIildNS_6policy10all_narrowEEEE5valueE',
                                        'Return' => '107',
                                        'ShortName' => 'value',
                                        'Value' => 'false'
                                      },
                            '6048' => {
                                        'Artificial' => 1,
                                        'Class' => '3764',
                                        'Destructor' => 'D1',
                                        'Header' => 'abi.hpp',
                                        'Line' => '1006',
                                        'MnglName' => '_ZN10outcome_v26detail10empty_typeD1Ev',
                                        'ShortName' => 'empty_type',
                                        'Throw' => 1
                                      },
                            '6055' => {
                                        'Class' => '3407',
                                        'Constructor' => 'C1',
                                        'Header' => 'abi.hpp',
                                        'Line' => '2132',
                                        'MnglName' => '_ZN10outcome_v26detail20status_bitfield_typeC1Ev',
                                        'Param' => {
                                                     '0' => {
                                                              'algn' => '8',
                                                              'name' => 'this',
                                                              'type' => '4592'
                                                            }
                                                   },
                                        'ShortName' => 'status_bitfield_type',
                                        'Throw' => 1
                                      },
                            '6063' => {
                                        'Class' => '1930',
                                        'Constructor' => 'C1',
                                        'Header' => 'abi.hpp',
                                        'Line' => '3115',
                                        'MnglName' => '_ZN10outcome_v26detail20basic_result_storageIilNS_6policy10all_narrowEEC1ERNS1_IilS3_EE',
                                        'Param' => {
                                                     '0' => {
                                                              'algn' => '8',
                                                              'name' => 'this',
                                                              'type' => '2764'
                                                            },
                                                     '1' => {
                                                              'algn' => '8',
                                                              'name' => 'p1',
                                                              'type' => '6581'
                                                            }
                                                   },
                                        'Protected' => 1,
                                        'ShortName' => 'basic_result_storage',
                                        'Throw' => 1
                                      },
                            '6071' => {
                                        'Artificial' => 1,
                                        'Class' => '1399',
                                        'Constructor' => 'C2',
                                        'Header' => 'abi.hpp',
                                        'Line' => '3371',
                                        'MnglName' => '_ZN10outcome_v26detail28basic_result_error_observersIN10outcome_v26detail28basic_result_value_observersINS0_20basic_result_storageIilNS_6policy10all_narrowEEEiS5_EElS5_EC2Ev',
                                        'Param' => {
                                                     '0' => {
                                                              'algn' => '8',
                                                              'name' => 'this',
                                                              'type' => '2215'
                                                            }
                                                   },
                                        'ShortName' => 'basic_result_error_observers',
                                        'Throw' => 1
                                      },
                            '6075' => {
                                        'Artificial' => 1,
                                        'Class' => '1131',
                                        'Header' => 'abi.hpp',
                                        'Line' => '3516',
                                        'MnglName' => '_ZN10outcome_v26detail18basic_result_finalIilNS_6policy10all_narrowEEaSERKNS1_IilS3_EE',
                                        'Param' => {
                                                     '0' => {
                                                              'algn' => '8',
                                                              'name' => 'this',
                                                              'type' => '1946'
                                                            },
                                                     '1' => {
                                                              'algn' => '8',
                                                              'name' => 'p1',
                                                              'type' => '4190'
                                                            }
                                                   },
                                        'Return' => '3098',
                                        'ShortName' => 'operator=',
                                        'Throw' => 1
                                      },
                            '6106' => {
                                        'Class' => '1188',
                                        'Destructor' => 'D1',
                                        'Header' => 'abi.hpp',
                                        'Line' => '4239',
                                        'MnglName' => '_ZN10outcome_v212basic_resultIilNS_6policy10all_narrowEED1Ev',
                                        'ShortName' => 'basic_result',
                                        'Throw' => 1
                                      },
                            '6147' => {
                                        'Class' => '5624',
                                        'Data' => 1,
                                        'Header' => 'abi.hpp',
                                        'Line' => '1069',
                                        'MnglName' => '_ZN10outcome_v26detail25_is_nothrow_constructibleIE5valueE',
                                        'Return' => '107',
                                        'ShortName' => 'value'
                                      },
                            '6151' => {
                                        'Data' => 1,
                                        'Header' => 'abi.hpp',
                                        'Line' => '1066',
                                        'MnglName' => '_ZN10outcome_v26detailL27is_implicitly_constructibleE',
                                        'NameSpace' => 'outcome_v2::detail',
                                        'Return' => '107',
                                        'ShortName' => 'is_implicitly_constructible'
                                      },
                            '6165' => {
                                        'Class' => '5142',
                                        'Data' => 1,
                                        'Header' => 'abi.hpp',
                                        'Line' => '1082',
                                        'MnglName' => '_ZN10outcome_v26detail17_is_constructibleIzE5valueE',
                                        'Return' => '107',
                                        'ShortName' => 'value',
                                        'Value' => '-1'
                                      },
                            '6171' => {
                                        'Class' => '5142',
                                        'Data' => 1,
                                        'Header' => 'abi.hpp',
                                        'Line' => '1086',
                                        'MnglName' => '_ZN10outcome_v26detail17_is_constructibleIzE5valueE',
                                        'Return' => '107',
                                        'ShortName' => 'value',
                                        'Value' => 'false'
                                      },
                            '6218' => {
                                        'Data' => 1,
                                        'Header' => 'abi.hpp',
                                        'Line' => '4880',
                                        'MnglName' => '_ZN10outcome_v28concepts6detailL13basic_outcomeE',
                                        'NameSpace' => 'outcome_v2::concepts::detail',
                                        'Return' => '107',
                                        'ShortName' => 'basic_outcome'
                                      },
                            '6244' => {
                                        'Class' => '4339',
                                        'Destructor' => 1,
                                        'Header' => 'new',
                                        'Line' => '75',
                                        'MnglName' => '_ZNSt20bad_array_new_lengthD2Ev',
                                        'ShortName' => 'bad_array_new_length',
                                        'Throw' => 1,
                                        'Virt' => 1
                                      },
                            '6271' => {
                                        'Class' => '1600',
                                        'Const' => 1,
                                        'Header' => 'typeinfo',
                                        'Line' => '167',
                                        'MnglName' => '_ZNKSt9type_info11__do_upcastEPKN10__cxxabiv117__class_type_infoEPPv',
                                        'Param' => {
                                                     '0' => {
                                                              'algn' => '8',
                                                              'name' => 'this',
                                                              'type' => '3581'
                                                            },
                                                     '1' => {
                                                              'algn' => '8',
                                                              'name' => '__target',
                                                              'type' => '7855'
                                                            },
                                                     '2' => {
                                                              'algn' => '8',
                                                              'name' => '__obj_ptr',
                                                              'type' => '7858'
                                                            }
                                                   },
                                        'Return' => '165',
                                        'ShortName' => '__do_upcast',
                                        'Virt' => 1
                                      },
                            '6495' => {
                                        'Class' => '5981',
                                        'Data' => 1,
                                        'Header' => 'abi.hpp',
                                        'Line' => '3941',
                                        'MnglName' => '_ZN10outcome_v26detail17result_predicatesIE29implicit_constructors_enabledE',
                                        'Return' => '107',
                                        'ShortName' => 'implicit_constructors_enabled'
                                      },
                            '6548' => {
                                        'Class' => '2754',
                                        'Constructor' => 'C1',
                                        'Header' => 'abi.hpp',
                                        'Line' => '2255',
                                        'MnglName' => '_ZN10outcome_v26detail21value_storage_trivialIilEC1ERS2_',
                                        'Param' => {
                                                     '0' => {
                                                              'algn' => '8',
                                                              'name' => 'this',
                                                              'type' => '3760'
                                                            },
                                                     '1' => {
                                                              'algn' => '8',
                                                              'name' => 'p1',
                                                              'type' => '7059'
                                                            }
                                                   },
                                        'ShortName' => 'value_storage_trivial',
                                        'Throw' => 1
                                      },
                            '6554' => {
                                        'Class' => '6037',
                                        'Data' => 1,
                                        'Header' => 'abi.hpp',
                                        'Line' => '999',
                                        'MnglName' => '_ZN10outcome_v26detail18is_in_place_type_tIdE5valueE',
                                        'Return' => '107',
                                        'ShortName' => 'value',
                                        'Value' => 'false'
                                      },
                            '6560' => {
                                        'Class' => '6040',
                                        'Data' => 1,
                                        'Header' => 'abi.hpp',
                                        'Line' => '1003',
                                        'MnglName' => '_ZN10outcome_v26detail18is_in_place_type_tIE5valueE',
                                        'Return' => '107',
                                        'ShortName' => 'value',
                                        'Value' => '-1'
                                      },
                            '6578' => {
                                        'Class' => '1930',
                                        'Header' => 'abi.hpp',
                                        'Line' => '3116',
                                        'MnglName' => '_ZN10outcome_v26detail20basic_result_storageIilNS_6policy10all_narrowEEaSERKNS1_IilS3_EE',
                                        'Param' => {
                                                     '0' => {
                                                              'algn' => '8',
                                                              'name' => 'this',
                                                              'type' => '2764'
                                                            },
                                                     '1' => {
                                                              'algn' => '8',
                                                              'name' => 'p1',
                                                              'type' => '5056'
                                                            }
                                                   },
                                        'Protected' => 1,
                                        'Return' => '6581',
                                        'ShortName' => 'operator=',
                                        'Throw' => 1
                                      },
                            '6583' => {
                                        'Artificial' => 1,
                                        'Class' => '1667',
                                        'Constructor' => 'C2',
                                        'Header' => 'abi.hpp',
                                        'Line' => '3455',
                                        'MnglName' => '_ZN10outcome_v26detail28basic_result_value_observersINS0_20basic_result_storageIilNS_6policy10all_narrowEEEiS4_EC2Ev',
                                        'Param' => {
                                                     '0' => {
                                                              'algn' => '8',
                                                              'name' => 'this',
                                                              'type' => '2486'
                                                            }
                                                   },
                                        'ShortName' => 'basic_result_value_observers',
                                        'Throw' => 1
                                      },
                            '6586' => {
                                        'Artificial' => 1,
                                        'Class' => '1399',
                                        'Constructor' => 'C1',
                                        'Header' => 'abi.hpp',
                                        'Line' => '3371',
                                        'MnglName' => '_ZN10outcome_v26detail28basic_result_error_observersIN10outcome_v26detail28basic_result_value_observersINS0_20basic_result_storageIilNS_6policy10all_narrowEEEiS5_EElS5_EC1Ev',
                                        'Param' => {
                                                     '0' => {
                                                              'algn' => '8',
                                                              'name' => 'this',
                                                              'type' => '2215'
                                                            }
                                                   },
                                        'ShortName' => 'basic_result_error_observers',
                                        'Throw' => 1
                                      },
                            '6592' => {
                                        'Class' => '1131',
                                        'Const' => 1,
                                        'Header' => 'abi.hpp',
                                        'Line' => '3522',
                                        'MnglName' => '_ZNK10outcome_v26detail18basic_result_finalIilNS_6policy10all_narrowEEcvbEv',
                                        'Param' => {
                                                     '0' => {
                                                              'algn' => '8',
                                                              'name' => 'this',
                                                              'type' => '7610'
                                                            }
                                                   },
                                        'Return' => '165',
                                        'ShortName' => 'operator bool',
                                        'Throw' => 1
                                      },
                            '663' => {
                                       'Class' => '496',
                                       'Data' => 1,
                                       'Header' => 'abi.hpp',
                                       'Line' => '4839',
                                       'MnglName' => '_ZN10outcome_v26detail16is_basic_outcomeIN10outcome_v213basic_outcomeIildNS_6policy10all_narrowEEEE5valueE',
                                       'Return' => '107',
                                       'ShortName' => 'value',
                                       'Value' => '-1'
                                     },
                            '6677' => {
                                        'Data' => 1,
                                        'Header' => 'abi.hpp',
                                        'Line' => '1066',
                                        'MnglName' => '_ZN10outcome_v26detailL27is_implicitly_constructibleE',
                                        'NameSpace' => 'outcome_v2::detail',
                                        'Return' => '107',
                                        'ShortName' => 'is_implicitly_constructible',
                                        'Value' => 'false'
                                      },
                            '6682' => {
                                        'Class' => '6155',
                                        'Data' => 1,
                                        'Header' => 'abi.hpp',
                                        'Line' => '1077',
                                        'MnglName' => '_ZN10outcome_v26detail25_is_nothrow_constructibleIzE5valueE',
                                        'Return' => '107',
                                        'ShortName' => 'value',
                                        'Value' => 'false'
                                      },
                            '6697' => {
                                        'Class' => '5142',
                                        'Data' => 1,
                                        'Header' => 'abi.hpp',
                                        'Line' => '1090',
                                        'MnglName' => '_ZN10outcome_v26detail17_is_constructibleIzE5valueE',
                                        'Return' => '107',
                                        'ShortName' => 'value',
                                        'Value' => 'false'
                                      },
                            '6738' => {
                                        'Header' => 'abi.hpp',
                                        'Line' => '4869',
                                        'MnglName' => '_ZN10outcome_v28concepts6detail19match_basic_outcomeEz',
                                        'NameSpace' => 'outcome_v2::concepts::detail',
                                        'Param' => {
                                                     '0' => {
                                                              'type' => '-1'
                                                            }
                                                   },
                                        'Return' => '7761',
                                        'ShortName' => 'match_basic_outcome'
                                      },
                            '6744' => {
                                        'Data' => 1,
                                        'Header' => 'abi.hpp',
                                        'Line' => '4880',
                                        'MnglName' => '_ZN10outcome_v28concepts6detailL13basic_outcomeE',
                                        'NameSpace' => 'outcome_v2::concepts::detail',
                                        'Return' => '107',
                                        'ShortName' => 'basic_outcome',
                                        'Value' => '-1'
                                      },
                            '6914' => {
                                        'Data' => 1,
                                        'Header' => 'abi.hpp',
                                        'Line' => '982',
                                        'MnglName' => '_ZN10outcome_v2L13in_place_typeE',
                                        'NameSpace' => 'outcome_v2',
                                        'Return' => '6912',
                                        'ShortName' => 'in_place_type'
                                      },
                            '701' => {
                                       'Class' => '542',
                                       'Data' => 1,
                                       'Header' => 'abi.hpp',
                                       'Line' => '1868',
                                       'MnglName' => '_ZN10outcome_v25trait18is_error_type_enumIE5valueE',
                                       'Return' => '107',
                                       'ShortName' => 'value',
                                       'Value' => 'false'
                                     },
                            '7013' => {
                                        'Class' => '6502',
                                        'Data' => 1,
                                        'Header' => 'abi.hpp',
                                        'Line' => '3941',
                                        'MnglName' => '_ZN10outcome_v26detail17result_predicatesIilE29implicit_constructors_enabledE',
                                        'Return' => '107',
                                        'ShortName' => 'implicit_constructors_enabled',
                                        'Value' => 'false'
                                      },
                            '7025' => {
                                        'Class' => '4999',
                                        'Destructor' => 1,
                                        'Header' => 'typeinfo',
                                        'Line' => '211',
                                        'MnglName' => '_ZNSt10bad_typeidD2Ev',
                                        'ShortName' => 'bad_typeid',
                                        'Throw' => 1,
                                        'Virt' => 1
                                      },
                            '7056' => {
                                        'Class' => '2754',
                                        'Header' => 'abi.hpp',
                                        'Line' => '2256',
                                        'MnglName' => '_ZN10outcome_v26detail21value_storage_trivialIilEaSERKS2_',
                                        'Param' => {
                                                     '0' => {
                                                              'algn' => '8',
                                                              'name' => 'this',
                                                              'type' => '3760'
                                                            },
                                                     '1' => {
                                                              'algn' => '8',
                                                              'name' => 'p1',
                                                              'type' => '5512'
                                                            }
                                                   },
                                        'Return' => '7059',
                                        'ShortName' => 'operator=',
                                        'Throw' => 1
                                      },
                            '7063' => {
                                        'Class' => '6557',
                                        'Data' => 1,
                                        'Header' => 'abi.hpp',
                                        'Line' => '999',
                                        'MnglName' => '_ZN10outcome_v26detail18is_in_place_type_tIN10outcome_v212basic_resultIilNS_6policy10all_narrowEEEE5valueE',
                                        'Return' => '107',
                                        'ShortName' => 'value',
                                        'Value' => 'false'
                                      },
                            '7073' => {
                                        'Artificial' => 1,
                                        'Class' => '3764',
                                        'Constructor' => 'C2',
                                        'Header' => 'abi.hpp',
                                        'Line' => '1006',
                                        'MnglName' => '_ZN10outcome_v26detail10empty_typeC2ERS1_',
                                        'Param' => {
                                                     '0' => {
                                                              'algn' => '8',
                                                              'name' => 'this',
                                                              'type' => '5032'
                                                            },
                                                     '1' => {
                                                              'algn' => '8',
                                                              'name' => 'p1',
                                                              'type' => '5027'
                                                            }
                                                   },
                                        'ShortName' => 'empty_type',
                                        'Throw' => 1
                                      },
                            '7080' => {
                                        'Class' => '3407',
                                        'Constructor' => 'C2',
                                        'Header' => 'abi.hpp',
                                        'InLine' => 1,
                                        'Line' => '2133',
                                        'MnglName' => '_ZN10outcome_v26detail20status_bitfield_typeC2ENS0_6statusE',
                                        'Param' => {
                                                     '0' => {
                                                              'algn' => '8',
                                                              'name' => 'this',
                                                              'type' => '4592'
                                                            },
                                                     '1' => {
                                                              'algn' => '2',
                                                              'name' => 'v',
                                                              'type' => '4160'
                                                            }
                                                   },
                                        'ShortName' => 'status_bitfield_type',
                                        'Throw' => 1
                                      },
                            '7086' => {
                                        'Class' => '1930',
                                        'Header' => 'abi.hpp',
                                        'Line' => '3117',
                                        'MnglName' => '_ZN10outcome_v26detail20basic_result_storageIilNS_6policy10all_narrowEEaSERNS1_IilS3_EE',
                                        'Param' => {
                                                     '0' => {
                                                              'algn' => '8',
                                                              'name' => 'this',
                                                              'type' => '2764'
                                                            },
                                                     '1' => {
                                                              'algn' => '8',
                                                              'name' => 'p1',
                                                              'type' => '6581'
                                                            }
                                                   },
                                        'Protected' => 1,
                                        'Return' => '6581',
                                        'ShortName' => 'operator=',
                                        'Throw' => 1
                                      },
                            '7089' => {
                                        'Artificial' => 1,
                                        'Class' => '1667',
                                        'Constructor' => 'C1',
                                        'Header' => 'abi.hpp',
                                        'Line' => '3455',
                                        'MnglName' => '_ZN10outcome_v26detail28basic_result_value_observersINS0_20basic_result_storageIilNS_6policy10all_narrowEEEiS4_EC1Ev',
                                        'Param' => {
                                                     '0' => {
                                                              'algn' => '8',
                                                              'name' => 'this',
                                                              'type' => '2486'
                                                            }
                                                   },
                                        'ShortName' => 'basic_result_value_observers',
                                        'Throw' => 1
                                      },
                            '7098' => {
                                        'Class' => '1131',
                                        'Const' => 1,
                                        'Header' => 'abi.hpp',
                                        'Line' => '3523',
                                        'MnglName' => '_ZNK10outcome_v26detail18basic_result_finalIilNS_6policy10all_narrowEE9has_valueEv',
                                        'Param' => {
                                                     '0' => {
                                                              'algn' => '8',
                                                              'name' => 'this',
                                                              'type' => '7610'
                                                            }
                                                   },
                                        'Return' => '165',
                                        'ShortName' => 'has_value',
                                        'Throw' => 1
                                      },
                            '7106' => {
                                        'Class' => '871',
                                        'Header' => 'abi.hpp',
                                        'Line' => '5817',
                                        'MnglName' => '_ZN10outcome_v26detail33basic_outcome_exception_observersINS0_18basic_result_finalIilNS_6policy10all_narrowEEEildS4_E16assume_exceptionEv',
                                        'Param' => {
                                                     '0' => {
                                                              'algn' => '8',
                                                              'name' => 'this',
                                                              'type' => '1682'
                                                            }
                                                   },
                                        'Return' => '7103',
                                        'ShortName' => 'assume_exception',
                                        'Throw' => 1
                                      },
                            '7177' => {
                                        'Class' => '6669',
                                        'Data' => 1,
                                        'Header' => 'abi.hpp',
                                        'Line' => '1056',
                                        'MnglName' => '_ZN10outcome_v26detail28_is_implicitly_constructibleIE5valueE',
                                        'Return' => '107',
                                        'ShortName' => 'value'
                                      },
                            '7181' => {
                                        'Data' => 1,
                                        'Header' => 'abi.hpp',
                                        'Line' => '1053',
                                        'MnglName' => '_ZN10outcome_v26detailL27is_explicitly_constructibleE',
                                        'NameSpace' => 'outcome_v2::detail',
                                        'Return' => '107',
                                        'ShortName' => 'is_explicitly_constructible'
                                      },
                            '7191' => {
                                        'Data' => 1,
                                        'Header' => 'abi.hpp',
                                        'Line' => '1066',
                                        'MnglName' => '_ZN10outcome_v26detailL27is_implicitly_constructibleE',
                                        'NameSpace' => 'outcome_v2::detail',
                                        'Return' => '107',
                                        'ShortName' => 'is_implicitly_constructible',
                                        'Value' => 'false'
                                      },
                            '7196' => {
                                        'Class' => '6155',
                                        'Data' => 1,
                                        'Header' => 'abi.hpp',
                                        'Line' => '1073',
                                        'MnglName' => '_ZN10outcome_v26detail25_is_nothrow_constructibleIzE5valueE',
                                        'Return' => '107',
                                        'ShortName' => 'value',
                                        'Value' => 'false'
                                      },
                            '7238' => {
                                        'Header' => 'abi.hpp',
                                        'Line' => '4878',
                                        'MnglName' => '_ZN10outcome_v28concepts6detail19match_basic_outcomeIildNS_6policy10all_narrowENS_13basic_outcomeIildS3_EEildS3_40(std::enable_if<(bool)-1, bool>::type)-1EES5_RS5_S7_',
                                        'NameSpace' => 'outcome_v2::concepts::detail',
                                        'Param' => {
                                                     '0' => {
                                                              'algn' => '8',
                                                              'name' => 'p1',
                                                              'type' => '1695'
                                                            },
                                                     '1' => {
                                                              'algn' => '8',
                                                              'name' => 'p2',
                                                              'type' => '1695'
                                                            }
                                                   },
                                        'Return' => '661',
                                        'ShortName' => 'match_basic_outcome<int, long, double, outcome_v2::policy::all_narrow, outcome_v2::basic_outcome<int, long, double, outcome_v2::policy::all_narrow>, int, long, double, outcome_v2::policy::all_narrow, (std::enable_if<(bool)-1, bool>::type)-1>',
                                        'TParam' => {
                                                      '0' => {
                                                               'name' => 'int'
                                                             },
                                                      '1' => {
                                                               'name' => 'long'
                                                             },
                                                      '2' => {
                                                               'name' => 'double'
                                                             },
                                                      '3' => {
                                                               'name' => 'outcome_v2::policy::all_narrow'
                                                             },
                                                      '4' => {
                                                               'name' => 'outcome_v2::basic_outcome<int, long, double, outcome_v2::policy::all_narrow>'
                                                             },
                                                      '5' => {
                                                               'name' => 'int'
                                                             },
                                                      '6' => {
                                                               'name' => 'long'
                                                             },
                                                      '7' => {
                                                               'name' => 'double'
                                                             },
                                                      '8' => {
                                                               'name' => 'outcome_v2::policy::all_narrow'
                                                             },
                                                      '9' => {
                                                               'name' => '(std::enable_if<(bool)-1, bool>::type)-1'
                                                             }
                                                    }
                                      },
                            '7243' => {
                                        'Data' => 1,
                                        'Header' => 'abi.hpp',
                                        'Line' => '4880',
                                        'MnglName' => '_ZN10outcome_v28concepts6detailL13basic_outcomeE',
                                        'NameSpace' => 'outcome_v2::concepts::detail',
                                        'Return' => '107',
                                        'ShortName' => 'basic_outcome',
                                        'Value' => '-1'
                                      },
                            '7273' => {
                                        'Class' => '4339',
                                        'Destructor' => 'D1',
                                        'Header' => 'new',
                                        'Line' => '75',
                                        'MnglName' => '_ZNSt20bad_array_new_lengthD1Ev',
                                        'ShortName' => 'bad_array_new_length',
                                        'Throw' => 1,
                                        'Virt' => 1
                                      },
                            '73' => {
                                      'Class' => '54',
                                      'Data' => 1,
                                      'Header' => 'abi.hpp',
                                      'Line' => '1880',
                                      'MnglName' => '_ZN10outcome_v25trait6detail13detector_impl8detectorIzE5valueE',
                                      'Return' => '107',
                                      'ShortName' => 'value',
                                      'Value' => 'false'
                                    },
                            '7423' => {
                                        'Artificial' => 1,
                                        'Class' => '6371',
                                        'Constructor' => 'C2',
                                        'Header' => 'abi.hpp',
                                        'Line' => '1629',
                                        'MnglName' => '_ZN10outcome_v212success_typeIvEC2ERS1_',
                                        'Param' => {
                                                     '0' => {
                                                              'algn' => '8',
                                                              'name' => 'this',
                                                              'type' => '7968'
                                                            },
                                                     '1' => {
                                                              'algn' => '8',
                                                              'name' => 'p1',
                                                              'type' => '8534'
                                                            }
                                                   },
                                        'ShortName' => 'success_type',
                                        'Throw' => 1
                                      },
                            '7509' => {
                                        'Class' => '5981',
                                        'Data' => 1,
                                        'Header' => 'abi.hpp',
                                        'Line' => '3951',
                                        'MnglName' => '_ZN10outcome_v26detail17result_predicatesIE35enable_value_converting_constructorE',
                                        'Return' => '107',
                                        'ShortName' => 'enable_value_converting_constructor'
                                      },
                            '7541' => {
                                        'Class' => '5491',
                                        'Destructor' => 1,
                                        'Header' => 'typeinfo',
                                        'Line' => '194',
                                        'MnglName' => '_ZNSt8bad_castD2Ev',
                                        'ShortName' => 'bad_cast',
                                        'Throw' => 1,
                                        'Virt' => 1
                                      },
                            '7561' => {
                                        'Class' => '2754',
                                        'Header' => 'abi.hpp',
                                        'Line' => '2257',
                                        'MnglName' => '_ZN10outcome_v26detail21value_storage_trivialIilEaSERS2_',
                                        'Param' => {
                                                     '0' => {
                                                              'algn' => '8',
                                                              'name' => 'this',
                                                              'type' => '3760'
                                                            },
                                                     '1' => {
                                                              'algn' => '8',
                                                              'name' => 'p1',
                                                              'type' => '7059'
                                                            }
                                                   },
                                        'Return' => '7059',
                                        'ShortName' => 'operator=',
                                        'Throw' => 1
                                      },
                            '7567' => {
                                        'Class' => '7066',
                                        'Data' => 1,
                                        'Header' => 'abi.hpp',
                                        'Line' => '999',
                                        'MnglName' => '_ZN10outcome_v26detail18is_in_place_type_tIlE5valueE',
                                        'Return' => '107',
                                        'ShortName' => 'value',
                                        'Value' => 'false'
                                      },
                            '7576' => {
                                        'Artificial' => 1,
                                        'Class' => '3764',
                                        'Constructor' => 'C1',
                                        'Header' => 'abi.hpp',
                                        'Line' => '1006',
                                        'MnglName' => '_ZN10outcome_v26detail10empty_typeC1ERS1_',
                                        'Param' => {
                                                     '0' => {
                                                              'algn' => '8',
                                                              'name' => 'this',
                                                              'type' => '5032'
                                                            },
                                                     '1' => {
                                                              'algn' => '8',
                                                              'name' => 'p1',
                                                              'type' => '5027'
                                                            }
                                                   },
                                        'ShortName' => 'empty_type',
                                        'Throw' => 1
                                      },
                            '7586' => {
                                        'Class' => '3407',
                                        'Constructor' => 'C1',
                                        'Header' => 'abi.hpp',
                                        'InLine' => 1,
                                        'Line' => '2133',
                                        'MnglName' => '_ZN10outcome_v26detail20status_bitfield_typeC1ENS0_6statusE',
                                        'Param' => {
                                                     '0' => {
                                                              'algn' => '8',
                                                              'name' => 'this',
                                                              'type' => '4592'
                                                            },
                                                     '1' => {
                                                              'algn' => '2',
                                                              'name' => 'v',
                                                              'type' => '4160'
                                                            }
                                                   },
                                        'ShortName' => 'status_bitfield_type',
                                        'Throw' => 1
                                      },
                            '7597' => {
                                        'Class' => '1930',
                                        'Destructor' => 1,
                                        'Header' => 'abi.hpp',
                                        'Line' => '3118',
                                        'MnglName' => '_ZN10outcome_v26detail20basic_result_storageIilNS_6policy10all_narrowEED0Ev',
                                        'Protected' => 1,
                                        'ShortName' => 'basic_result_storage',
                                        'Throw' => 1
                                      },
                            '7608' => {
                                        'Class' => '1131',
                                        'Const' => 1,
                                        'Header' => 'abi.hpp',
                                        'Line' => '3524',
                                        'MnglName' => '_ZNK10outcome_v26detail18basic_result_finalIilNS_6policy10all_narrowEE9has_errorEv',
                                        'Param' => {
                                                     '0' => {
                                                              'algn' => '8',
                                                              'name' => 'this',
                                                              'type' => '7610'
                                                            }
                                                   },
                                        'Return' => '165',
                                        'ShortName' => 'has_error',
                                        'Throw' => 1
                                      },
                            '7615' => {
                                        'Class' => '871',
                                        'Const' => 1,
                                        'Header' => 'abi.hpp',
                                        'Line' => '5822',
                                        'MnglName' => '_ZNK10outcome_v26detail33basic_outcome_exception_observersINS0_18basic_result_finalIilNS_6policy10all_narrowEEEildS4_E16assume_exceptionEv',
                                        'Param' => {
                                                     '0' => {
                                                              'algn' => '8',
                                                              'name' => 'this',
                                                              'type' => '7617'
                                                            }
                                                   },
                                        'Return' => '7612',
                                        'ShortName' => 'assume_exception',
                                        'Throw' => 1
                                      },
                            '7627' => {
                                        'Class' => '661',
                                        'Constructor' => 'C2',
                                        'Header' => 'abi.hpp',
                                        'Line' => '5076',
                                        'MnglName' => '_ZN10outcome_v213basic_outcomeIildNS_6policy10all_narrowEEC2ERNS0_IildS2_E34implicit_constructors_disabled_tagE',
                                        'Param' => {
                                                     '0' => {
                                                              'algn' => '8',
                                                              'name' => 'this',
                                                              'type' => '1418'
                                                            },
                                                     '1' => {
                                                              'algn' => '8',
                                                              'name' => 'p1',
                                                              'type' => '2842'
                                                            },
                                                     '2' => {
                                                              'algn' => '1',
                                                              'name' => 'p2',
                                                              'type' => '2791'
                                                            }
                                                   },
                                        'ShortName' => 'basic_outcome'
                                      },
                            '7708' => {
                                        'Data' => 1,
                                        'Header' => 'abi.hpp',
                                        'Line' => '1053',
                                        'MnglName' => '_ZN10outcome_v26detailL27is_explicitly_constructibleE',
                                        'NameSpace' => 'outcome_v2::detail',
                                        'Return' => '107',
                                        'ShortName' => 'is_explicitly_constructible',
                                        'Value' => '-1'
                                      },
                            '7712' => {
                                        'Class' => '7185',
                                        'Data' => 1,
                                        'Header' => 'abi.hpp',
                                        'Line' => '1056',
                                        'MnglName' => '_ZN10outcome_v26detail28_is_implicitly_constructibleIdN10outcome_v213basic_outcomeIildNS_6policy10all_narrowEEEE5valueE',
                                        'Return' => '107',
                                        'ShortName' => 'value',
                                        'Value' => 'false'
                                      },
                            '7724' => {
                                        'Data' => 1,
                                        'Header' => 'abi.hpp',
                                        'Line' => '1066',
                                        'MnglName' => '_ZN10outcome_v26detailL27is_implicitly_constructibleE',
                                        'NameSpace' => 'outcome_v2::detail',
                                        'Return' => '107',
                                        'ShortName' => 'is_implicitly_constructible',
                                        'Value' => 'false'
                                      },
                            '7763' => {
                                        'Data' => 1,
                                        'Header' => 'abi.hpp',
                                        'Line' => '4071',
                                        'MnglName' => '_ZN10outcome_v28concepts6detailL12basic_resultE',
                                        'NameSpace' => 'outcome_v2::concepts::detail',
                                        'Return' => '107',
                                        'ShortName' => 'basic_result'
                                      },
                            '7808' => {
                                        'Class' => '4339',
                                        'Destructor' => 'D0',
                                        'Header' => 'new',
                                        'Line' => '75',
                                        'MnglName' => '_ZNSt20bad_array_new_lengthD0Ev',
                                        'ShortName' => 'bad_array_new_length',
                                        'Throw' => 1,
                                        'Virt' => 1
                                      },
                            '7966' => {
                                        'Artificial' => 1,
                                        'Class' => '6371',
                                        'Constructor' => 'C1',
                                        'Header' => 'abi.hpp',
                                        'Line' => '1629',
                                        'MnglName' => '_ZN10outcome_v212success_typeIvEC1ERS1_',
                                        'Param' => {
                                                     '0' => {
                                                              'algn' => '8',
                                                              'name' => 'this',
                                                              'type' => '7968'
                                                            },
                                                     '1' => {
                                                              'algn' => '8',
                                                              'name' => 'p1',
                                                              'type' => '8534'
                                                            }
                                                   },
                                        'ShortName' => 'success_type',
                                        'Throw' => 1
                                      },
                            '8060' => {
                                        'Class' => '5981',
                                        'Data' => 1,
                                        'Header' => 'abi.hpp',
                                        'Line' => '3960',
                                        'MnglName' => '_ZN10outcome_v26detail17result_predicatesIE35enable_error_converting_constructorE',
                                        'Return' => '107',
                                        'ShortName' => 'enable_error_converting_constructor'
                                      },
                            '8065' => {
                                        'Class' => '6502',
                                        'Data' => 1,
                                        'Header' => 'abi.hpp',
                                        'Line' => '3951',
                                        'MnglName' => '_ZN10outcome_v26detail17result_predicatesIilE35enable_value_converting_constructorE',
                                        'Return' => '107',
                                        'ShortName' => 'enable_value_converting_constructor',
                                        'Value' => 'false'
                                      },
                            '8093' => {
                                        'Class' => '6502',
                                        'Data' => 1,
                                        'Header' => 'abi.hpp',
                                        'Line' => '3951',
                                        'MnglName' => '_ZN10outcome_v26detail17result_predicatesIilE35enable_value_converting_constructorE',
                                        'Return' => '107',
                                        'ShortName' => 'enable_value_converting_constructor'
                                      },
                            '8099' => {
                                        'Class' => '4999',
                                        'Destructor' => 'D1',
                                        'Header' => 'typeinfo',
                                        'Line' => '211',
                                        'MnglName' => '_ZNSt10bad_typeidD1Ev',
                                        'ShortName' => 'bad_typeid',
                                        'Throw' => 1,
                                        'Virt' => 1
                                      },
                            '8123' => {
                                        'Class' => '2754',
                                        'Destructor' => 1,
                                        'Header' => 'abi.hpp',
                                        'Line' => '2258',
                                        'MnglName' => '_ZN10outcome_v26detail21value_storage_trivialIilED0Ev',
                                        'ShortName' => 'value_storage_trivial',
                                        'Throw' => 1
                                      },
                            '8129' => {
                                        'Class' => '7570',
                                        'Data' => 1,
                                        'Header' => 'abi.hpp',
                                        'Line' => '999',
                                        'MnglName' => '_ZN10outcome_v26detail18is_in_place_type_tIiE5valueE',
                                        'Return' => '107',
                                        'ShortName' => 'value',
                                        'Value' => 'false'
                                      },
                            '8155' => {
                                        'Class' => '1930',
                                        'Destructor' => 'D2',
                                        'Header' => 'abi.hpp',
                                        'Line' => '3118',
                                        'MnglName' => '_ZN10outcome_v26detail20basic_result_storageIilNS_6policy10all_narrowEED2Ev',
                                        'Protected' => 1,
                                        'ShortName' => 'basic_result_storage',
                                        'Throw' => 1
                                      },
                            '8166' => {
                                        'Class' => '1399',
                                        'Header' => 'abi.hpp',
                                        'Line' => '3386',
                                        'MnglName' => '_ZN10outcome_v26detail28basic_result_error_observersIN10outcome_v26detail28basic_result_value_observersINS0_20basic_result_storageIilNS_6policy10all_narrowEEEiS5_EElS5_E12assume_errorEv',
                                        'Param' => {
                                                     '0' => {
                                                              'algn' => '8',
                                                              'name' => 'this',
                                                              'type' => '2215'
                                                            }
                                                   },
                                        'Return' => '8163',
                                        'ShortName' => 'assume_error',
                                        'Throw' => 1
                                      },
                            '8170' => {
                                        'Class' => '1131',
                                        'Const' => 1,
                                        'Header' => 'abi.hpp',
                                        'Line' => '3525',
                                        'MnglName' => '_ZNK10outcome_v26detail18basic_result_finalIilNS_6policy10all_narrowEE13has_exceptionEv',
                                        'Param' => {
                                                     '0' => {
                                                              'algn' => '8',
                                                              'name' => 'this',
                                                              'type' => '7610'
                                                            }
                                                   },
                                        'Return' => '165',
                                        'ShortName' => 'has_exception',
                                        'Throw' => 1
                                      },
                            '8190' => {
                                        'Class' => '661',
                                        'Constructor' => 'C1',
                                        'Header' => 'abi.hpp',
                                        'Line' => '5076',
                                        'MnglName' => '_ZN10outcome_v213basic_outcomeIildNS_6policy10all_narrowEEC1ERNS0_IildS2_E34implicit_constructors_disabled_tagE',
                                        'Param' => {
                                                     '0' => {
                                                              'algn' => '8',
                                                              'name' => 'this',
                                                              'type' => '1418'
                                                            },
                                                     '1' => {
                                                              'algn' => '8',
                                                              'name' => 'p1',
                                                              'type' => '2842'
                                                            },
                                                     '2' => {
                                                              'algn' => '1',
                                                              'name' => 'p2',
                                                              'type' => '2791'
                                                            }
                                                   },
                                        'ShortName' => 'basic_outcome'
                                      },
                            '8271' => {
                                        'Class' => '7700',
                                        'Data' => 1,
                                        'Header' => 'abi.hpp',
                                        'Line' => '1043',
                                        'MnglName' => '_ZN10outcome_v26detail28_is_explicitly_constructibleIE5valueE',
                                        'Return' => '107',
                                        'ShortName' => 'value'
                                      },
                            '8286' => {
                                        'Data' => 1,
                                        'Header' => 'abi.hpp',
                                        'Line' => '1053',
                                        'MnglName' => '_ZN10outcome_v26detailL27is_explicitly_constructibleE',
                                        'NameSpace' => 'outcome_v2::detail',
                                        'Return' => '107',
                                        'ShortName' => 'is_explicitly_constructible',
                                        'Value' => 'false'
                                      },
                            '8292' => {
                                        'Class' => '7715',
                                        'Data' => 1,
                                        'Header' => 'abi.hpp',
                                        'Line' => '1056',
                                        'MnglName' => '_ZN10outcome_v26detail28_is_implicitly_constructibleIlN10outcome_v213basic_outcomeIildNS_6policy10all_narrowEEEE5valueE',
                                        'Return' => '107',
                                        'ShortName' => 'value',
                                        'Value' => 'false'
                                      },
                            '8298' => {
                                        'Class' => '7718',
                                        'Data' => 1,
                                        'Header' => 'abi.hpp',
                                        'Line' => '1060',
                                        'MnglName' => '_ZN10outcome_v26detail28_is_implicitly_constructibleIvE5valueE',
                                        'Return' => '107',
                                        'ShortName' => 'value',
                                        'Value' => 'false'
                                      },
                            '8304' => {
                                        'Data' => 1,
                                        'Header' => 'abi.hpp',
                                        'Line' => '1066',
                                        'MnglName' => '_ZN10outcome_v26detailL27is_implicitly_constructibleE',
                                        'NameSpace' => 'outcome_v2::detail',
                                        'Return' => '107',
                                        'ShortName' => 'is_implicitly_constructible',
                                        'Value' => 'false'
                                      },
                            '832' => {
                                       'Data' => 1,
                                       'Header' => 'abi.hpp',
                                       'Line' => '4849',
                                       'MnglName' => '_ZN10outcome_v2L18is_basic_outcome_vE',
                                       'NameSpace' => 'outcome_v2',
                                       'Return' => '107',
                                       'ShortName' => 'is_basic_outcome_v'
                                     },
                            '8338' => {
                                        'Header' => 'abi.hpp',
                                        'Line' => '4061',
                                        'MnglName' => '_ZN10outcome_v28concepts6detail18match_basic_resultEz',
                                        'NameSpace' => 'outcome_v2::concepts::detail',
                                        'Param' => {
                                                     '0' => {
                                                              'type' => '-1'
                                                            }
                                                   },
                                        'Return' => '7761',
                                        'ShortName' => 'match_basic_result'
                                      },
                            '8344' => {
                                        'Data' => 1,
                                        'Header' => 'abi.hpp',
                                        'Line' => '4071',
                                        'MnglName' => '_ZN10outcome_v28concepts6detailL12basic_resultE',
                                        'NameSpace' => 'outcome_v2::concepts::detail',
                                        'Return' => '107',
                                        'ShortName' => 'basic_result',
                                        'Value' => 'false'
                                      },
                            '8383' => {
                                        'Class' => '4778',
                                        'Destructor' => 1,
                                        'Header' => 'new',
                                        'Line' => '61',
                                        'MnglName' => '_ZNSt9bad_allocD2Ev',
                                        'ShortName' => 'bad_alloc',
                                        'Throw' => 1,
                                        'Virt' => 1
                                      },
                            '8386' => {
                                        'Class' => '4339',
                                        'Const' => 1,
                                        'Header' => 'new',
                                        'Line' => '78',
                                        'MnglName' => '_ZNKSt20bad_array_new_length4whatEv',
                                        'Param' => {
                                                     '0' => {
                                                              'algn' => '8',
                                                              'name' => 'this',
                                                              'type' => '9565'
                                                            }
                                                   },
                                        'Return' => '2374',
                                        'ShortName' => 'what',
                                        'Throw' => 1,
                                        'Virt' => 1
                                      },
                            '8624' => {
                                        'Class' => '5981',
                                        'Data' => 1,
                                        'Header' => 'abi.hpp',
                                        'Line' => '3969',
                                        'MnglName' => '_ZN10outcome_v26detail17result_predicatesIE45enable_error_condition_converting_constructorE',
                                        'Return' => '107',
                                        'ShortName' => 'enable_error_condition_converting_constructor'
                                      },
                            '8629' => {
                                        'Class' => '6502',
                                        'Data' => 1,
                                        'Header' => 'abi.hpp',
                                        'Line' => '3960',
                                        'MnglName' => '_ZN10outcome_v26detail17result_predicatesIilE35enable_error_converting_constructorE',
                                        'Return' => '107',
                                        'ShortName' => 'enable_error_converting_constructor',
                                        'Value' => 'false'
                                      },
                            '8637' => {
                                        'Class' => '6502',
                                        'Data' => 1,
                                        'Header' => 'abi.hpp',
                                        'Line' => '3951',
                                        'MnglName' => '_ZN10outcome_v26detail17result_predicatesIilE35enable_value_converting_constructorE',
                                        'Return' => '107',
                                        'ShortName' => 'enable_value_converting_constructor',
                                        'Value' => 'false'
                                      },
                            '8674' => {
                                        'Class' => '6502',
                                        'Data' => 1,
                                        'Header' => 'abi.hpp',
                                        'Line' => '3960',
                                        'MnglName' => '_ZN10outcome_v26detail17result_predicatesIilE35enable_error_converting_constructorE',
                                        'Return' => '107',
                                        'ShortName' => 'enable_error_converting_constructor'
                                      },
                            '8678' => {
                                        'Class' => '4999',
                                        'Destructor' => 'D0',
                                        'Header' => 'typeinfo',
                                        'Line' => '211',
                                        'MnglName' => '_ZNSt10bad_typeidD0Ev',
                                        'ShortName' => 'bad_typeid',
                                        'Throw' => 1,
                                        'Virt' => 1
                                      },
                            '8685' => {
                                        'Class' => '5491',
                                        'Destructor' => 'D1',
                                        'Header' => 'typeinfo',
                                        'Line' => '194',
                                        'MnglName' => '_ZNSt8bad_castD1Ev',
                                        'ShortName' => 'bad_cast',
                                        'Throw' => 1,
                                        'Virt' => 1
                                      },
                            '8698' => {
                                        'Class' => '2754',
                                        'Destructor' => 'D2',
                                        'Header' => 'abi.hpp',
                                        'Line' => '2258',
                                        'MnglName' => '_ZN10outcome_v26detail21value_storage_trivialIilED2Ev',
                                        'ShortName' => 'value_storage_trivial',
                                        'Throw' => 1
                                      },
                            '8708' => {
                                        'Artificial' => 1,
                                        'Class' => '3764',
                                        'Constructor' => 'C2',
                                        'Header' => 'abi.hpp',
                                        'Line' => '1006',
                                        'MnglName' => '_ZN10outcome_v26detail10empty_typeC2ERKS1_',
                                        'Param' => {
                                                     '0' => {
                                                              'algn' => '8',
                                                              'name' => 'this',
                                                              'type' => '5032'
                                                            },
                                                     '1' => {
                                                              'algn' => '8',
                                                              'name' => 'p1',
                                                              'type' => '6051'
                                                            }
                                                   },
                                        'ShortName' => 'empty_type',
                                        'Throw' => 1
                                      },
                            '8716' => {
                                        'Class' => '3407',
                                        'Constructor' => 'C2',
                                        'Header' => 'abi.hpp',
                                        'InLine' => 1,
                                        'Line' => '2137',
                                        'MnglName' => '_ZN10outcome_v26detail20status_bitfield_typeC2ENS0_6statusEt',
                                        'Param' => {
                                                     '0' => {
                                                              'algn' => '8',
                                                              'name' => 'this',
                                                              'type' => '4592'
                                                            },
                                                     '1' => {
                                                              'algn' => '2',
                                                              'name' => 'v',
                                                              'type' => '4160'
                                                            },
                                                     '2' => {
                                                              'algn' => '2',
                                                              'name' => 's',
                                                              'type' => '954'
                                                            }
                                                   },
                                        'ShortName' => 'status_bitfield_type',
                                        'Throw' => 1
                                      },
                            '8727' => {
                                        'Class' => '1930',
                                        'Destructor' => 'D1',
                                        'Header' => 'abi.hpp',
                                        'Line' => '3118',
                                        'MnglName' => '_ZN10outcome_v26detail20basic_result_storageIilNS_6policy10all_narrowEED1Ev',
                                        'Protected' => 1,
                                        'ShortName' => 'basic_result_storage',
                                        'Throw' => 1
                                      },
                            '8734' => {
                                        'Class' => '1667',
                                        'Header' => 'abi.hpp',
                                        'Line' => '3470',
                                        'MnglName' => '_ZN10outcome_v26detail28basic_result_value_observersINS0_20basic_result_storageIilNS_6policy10all_narrowEEEiS4_E12assume_valueEv',
                                        'Param' => {
                                                     '0' => {
                                                              'algn' => '8',
                                                              'name' => 'this',
                                                              'type' => '2486'
                                                            }
                                                   },
                                        'Return' => '8731',
                                        'ShortName' => 'assume_value',
                                        'Throw' => 1
                                      },
                            '8740' => {
                                        'Class' => '1399',
                                        'Const' => 1,
                                        'Header' => 'abi.hpp',
                                        'Line' => '3391',
                                        'MnglName' => '_ZNK10outcome_v26detail28basic_result_error_observersIN10outcome_v26detail28basic_result_value_observersINS0_20basic_result_storageIilNS_6policy10all_narrowEEEiS5_EElS5_E12assume_errorEv',
                                        'Param' => {
                                                     '0' => {
                                                              'algn' => '8',
                                                              'name' => 'this',
                                                              'type' => '8742'
                                                            }
                                                   },
                                        'Return' => '8737',
                                        'ShortName' => 'assume_error',
                                        'Throw' => 1
                                      },
                            '8744' => {
                                        'Class' => '1131',
                                        'Const' => 1,
                                        'Header' => 'abi.hpp',
                                        'Line' => '3526',
                                        'MnglName' => '_ZNK10outcome_v26detail18basic_result_finalIilNS_6policy10all_narrowEE20has_lost_consistencyEv',
                                        'Param' => {
                                                     '0' => {
                                                              'algn' => '8',
                                                              'name' => 'this',
                                                              'type' => '7610'
                                                            }
                                                   },
                                        'Return' => '165',
                                        'ShortName' => 'has_lost_consistency',
                                        'Throw' => 1
                                      },
                            '878' => {
                                       'Class' => '669',
                                       'Data' => 1,
                                       'Header' => 'abi.hpp',
                                       'Line' => '4839',
                                       'MnglName' => '_ZN10outcome_v26detail16is_basic_outcomeIE5valueE',
                                       'Return' => '107',
                                       'ShortName' => 'value',
                                       'Value' => '-1'
                                     },
                            '8864' => {
                                        'Class' => '8280',
                                        'Data' => 1,
                                        'Header' => 'abi.hpp',
                                        'Line' => '1043',
                                        'MnglName' => '_ZN10outcome_v26detail28_is_explicitly_constructibleIddE5valueE',
                                        'Return' => '107',
                                        'ShortName' => 'value',
                                        'Value' => '-1'
                                      },
                            '8876' => {
                                        'Data' => 1,
                                        'Header' => 'abi.hpp',
                                        'Line' => '1053',
                                        'MnglName' => '_ZN10outcome_v26detailL27is_explicitly_constructibleE',
                                        'NameSpace' => 'outcome_v2::detail',
                                        'Return' => '107',
                                        'ShortName' => 'is_explicitly_constructible',
