$VAR1 = {
          'ABI_DUMPER_VERSION' => '1.1',
          'ABI_DUMP_VERSION' => '3.5',
          'Arch' => 'x86_64',
          'Compiler' => 'GNU C++14 6.3.0 20170519 -mtune=generic -march=x86-64 -g -O2 -std=gnu++14 -fPIC -fstack-protector',
          'Headers' => {
                         'basic_outcome.hpp' => 1,
                         'basic_outcome_exception_observers.hpp' => 1,
                         'basic_result.hpp' => 1,
                         'basic_result_error_observers.hpp' => 1,
                         'basic_result_final.hpp' => 1,
                         'basic_result_storage.hpp' => 1,
                         'basic_result_value_observers.hpp' => 1,
                         'config.hpp' => 1,
                         'exception_ptr.h' => 1,
                         'outcome.hpp' => 1,
                         'result.hpp' => 1,
                         'std_outcome.hpp' => 1,
                         'std_result.hpp' => 1,
                         'stdint.h' => 1,
                         'system_error' => 1,
                         'type_traits' => 1,
                         'value_storage.hpp' => 1
                       },
          'Language' => 'C++',
          'LibraryName' => 'liboutcome-abi-lib.so',
          'LibraryVersion' => '2.1',
          'MissedOffsets' => '1',
          'MissedRegs' => '1',
          'NameSpaces' => {
                            '__gnu_cxx' => 1,
                            'outcome_v2' => 1,
                            'outcome_v2::detail' => 1,
                            'outcome_v2::policy' => 1,
                            'outcome_v2::trait' => 1,
                            'std' => 1,
                            'std::_V2' => 1,
                            'std::__exception_ptr' => 1
                          },
          'Needed' => {
                        'libc.so.6' => 1,
                        'libstdc++.so.6' => 1
                      },
          'Sources' => {
                         'main.cpp' => 1
                       },
          'SymbolInfo' => {
                            '49115' => {
                                         'Artificial' => 1,
                                         'Class' => '35349',
                                         'Constructor' => 1,
                                         'Header' => 'value_storage.hpp',
                                         'InLine' => 1,
                                         'Line' => '133',
                                         'MnglName' => '_ZN10outcome_v26detail24value_storage_nontrivialI14NonTrivialTypeEC2ERKS3_',
                                         'Param' => {
                                                      '0' => {
                                                               'name' => 'this',
                                                               'type' => '47486'
                                                             },
                                                      '1' => {
                                                               'name' => 'o',
                                                               'type' => '47502'
                                                             }
                                                    },
                                         'ShortName' => 'value_storage_nontrivial'
                                       },
                            '49116' => {
                                         'Artificial' => 1,
                                         'Class' => '35349',
                                         'Constructor' => 1,
                                         'Header' => 'value_storage.hpp',
                                         'InLine' => 1,
                                         'Line' => '133',
                                         'MnglName' => '_ZN10outcome_v26detail24value_storage_nontrivialI14NonTrivialTypeEC1ERKS3_',
                                         'Param' => {
                                                      '0' => {
                                                               'name' => 'this',
                                                               'type' => '47486'
                                                             },
                                                      '1' => {
                                                               'name' => 'o',
                                                               'type' => '47502'
                                                             }
                                                    },
                                         'ShortName' => 'value_storage_nontrivial'
                                       },
                            '49146' => {
                                         'Line' => '76',
                                         'MnglName' => '_Z22outcome_NonTrivialTypeRN10outcome_v213basic_outcomeI14NonTrivialTypeSt10error_codeNSt15__exception_ptr13exception_ptrENS_6policy32error_code_throw_as_system_errorIS1_S2_S4_EEEE',
                                         'Param' => {
                                                      '0' => {
                                                               'name' => 'v',
                                                               'type' => '49680'
                                                             }
                                                    },
                                         'Return' => '43919',
                                         'ShortName' => 'outcome_NonTrivialType',
                                         'Source' => 'main.cpp'
                                       },
                            '49735' => {
                                         'Artificial' => 1,
                                         'Class' => '43591',
                                         'Constructor' => 1,
                                         'Header' => 'basic_outcome.hpp',
                                         'InLine' => 1,
                                         'Line' => '191',
                                         'MnglName' => '_ZN10outcome_v213basic_outcomeI14NonTrivialTypeSt10error_codeNSt15__exception_ptr13exception_ptrENS_6policy32error_code_throw_as_system_errorIS1_S2_S4_EEEC2ERKS8_',
                                         'Param' => {
                                                      '0' => {
                                                               'name' => 'this',
                                                               'type' => '48282'
                                                             },
                                                      '1' => {
                                                               'name' => 'p1',
                                                               'type' => '49691'
                                                             }
                                                    },
                                         'ShortName' => 'basic_outcome'
                                       },
                            '49736' => {
                                         'Artificial' => 1,
                                         'Class' => '43591',
                                         'Constructor' => 1,
                                         'Header' => 'basic_outcome.hpp',
                                         'InLine' => 1,
                                         'Line' => '191',
                                         'MnglName' => '_ZN10outcome_v213basic_outcomeI14NonTrivialTypeSt10error_codeNSt15__exception_ptr13exception_ptrENS_6policy32error_code_throw_as_system_errorIS1_S2_S4_EEEC1ERKS8_',
                                         'Param' => {
                                                      '0' => {
                                                               'name' => 'this',
                                                               'type' => '48282'
                                                             },
                                                      '1' => {
                                                               'name' => 'p1',
                                                               'type' => '49691'
                                                             }
                                                    },
                                         'ShortName' => 'basic_outcome'
                                       },
                            '49821' => {
                                         'Artificial' => 1,
                                         'Class' => '42053',
                                         'Constructor' => 1,
                                         'Header' => 'basic_outcome_exception_observers.hpp',
                                         'InLine' => 1,
                                         'Line' => '96',
                                         'MnglName' => '_ZN10outcome_v26detail33basic_outcome_exception_observersINS0_18basic_result_finalI14NonTrivialTypeSt10error_codeNS_6policy32error_code_throw_as_system_errorIS3_S4_NSt15__exception_ptr13exception_ptrEEEEES3_S4_S8_S9_S8_EC2ERKSB_',
                                         'Param' => {
                                                      '0' => {
                                                               'name' => 'this',
                                                               'type' => '49772'
                                                             },
                                                      '1' => {
                                                               'name' => 'p1',
                                                               'type' => '49777'
                                                             }
                                                    },
                                         'ShortName' => 'basic_outcome_exception_observers'
                                       },
                            '49822' => {
                                         'Artificial' => 1,
                                         'Class' => '42053',
                                         'Constructor' => 1,
                                         'Header' => 'basic_outcome_exception_observers.hpp',
                                         'InLine' => 1,
                                         'Line' => '96',
                                         'MnglName' => '_ZN10outcome_v26detail33basic_outcome_exception_observersINS0_18basic_result_finalI14NonTrivialTypeSt10error_codeNS_6policy32error_code_throw_as_system_errorIS3_S4_NSt15__exception_ptr13exception_ptrEEEEES3_S4_S8_S9_S8_EC1ERKSB_',
                                         'Param' => {
                                                      '0' => {
                                                               'name' => 'this',
                                                               'type' => '49772'
                                                             },
                                                      '1' => {
                                                               'name' => 'p1',
                                                               'type' => '49777'
                                                             }
                                                    },
                                         'ShortName' => 'basic_outcome_exception_observers'
                                       },
                            '49896' => {
                                         'Artificial' => 1,
                                         'Class' => '41698',
                                         'Constructor' => 1,
                                         'Header' => 'basic_outcome_exception_observers.hpp',
                                         'InLine' => 1,
                                         'Line' => '44',
                                         'MnglName' => '_ZN10outcome_v26detail33basic_outcome_exception_observersINS0_18basic_result_finalI14NonTrivialTypeSt10error_codeNS_6policy32error_code_throw_as_system_errorIS3_S4_NSt15__exception_ptr13exception_ptrEEEEES3_S4_S8_S9_vEC2ERKSB_',
                                         'Param' => {
                                                      '0' => {
                                                               'name' => 'this',
                                                               'type' => '48241'
                                                             },
                                                      '1' => {
                                                               'name' => 'p1',
                                                               'type' => '49852'
                                                             }
                                                    },
                                         'ShortName' => 'basic_outcome_exception_observers'
                                       },
                            '49897' => {
                                         'Artificial' => 1,
                                         'Class' => '41698',
                                         'Constructor' => 1,
                                         'Header' => 'basic_outcome_exception_observers.hpp',
                                         'InLine' => 1,
                                         'Line' => '44',
                                         'MnglName' => '_ZN10outcome_v26detail33basic_outcome_exception_observersINS0_18basic_result_finalI14NonTrivialTypeSt10error_codeNS_6policy32error_code_throw_as_system_errorIS3_S4_NSt15__exception_ptr13exception_ptrEEEEES3_S4_S8_S9_vEC1ERKSB_',
                                         'Param' => {
                                                      '0' => {
                                                               'name' => 'this',
                                                               'type' => '48241'
                                                             },
                                                      '1' => {
                                                               'name' => 'p1',
                                                               'type' => '49852'
                                                             }
                                                    },
                                         'ShortName' => 'basic_outcome_exception_observers'
                                       },
                            '49982' => {
                                         'Artificial' => 1,
                                         'Class' => '41401',
                                         'Constructor' => 1,
                                         'Header' => 'basic_result_final.hpp',
                                         'InLine' => 1,
                                         'Line' => '39',
                                         'MnglName' => '_ZN10outcome_v26detail18basic_result_finalI14NonTrivialTypeSt10error_codeNS_6policy32error_code_throw_as_system_errorIS2_S3_NSt15__exception_ptr13exception_ptrEEEEC2ERKS9_',
                                         'Param' => {
                                                      '0' => {
                                                               'name' => 'this',
                                                               'type' => '49933'
                                                             },
                                                      '1' => {
                                                               'name' => 'p1',
                                                               'type' => '49938'
                                                             }
                                                    },
                                         'ShortName' => 'basic_result_final'
                                       },
                            '49983' => {
                                         'Artificial' => 1,
                                         'Class' => '41401',
                                         'Constructor' => 1,
                                         'Header' => 'basic_result_final.hpp',
                                         'InLine' => 1,
                                         'Line' => '39',
                                         'MnglName' => '_ZN10outcome_v26detail18basic_result_finalI14NonTrivialTypeSt10error_codeNS_6policy32error_code_throw_as_system_errorIS2_S3_NSt15__exception_ptr13exception_ptrEEEEC1ERKS9_',
                                         'Param' => {
                                                      '0' => {
                                                               'name' => 'this',
                                                               'type' => '49933'
                                                             },
                                                      '1' => {
                                                               'name' => 'p1',
                                                               'type' => '49938'
                                                             }
                                                    },
                                         'ShortName' => 'basic_result_final'
                                       },
                            '50057' => {
                                         'Artificial' => 1,
                                         'Class' => '41064',
                                         'Constructor' => 1,
                                         'Header' => 'basic_result_error_observers.hpp',
                                         'InLine' => 1,
                                         'Line' => '35',
                                         'MnglName' => '_ZN10outcome_v26detail28basic_result_error_observersINS0_28basic_result_value_observersINS0_20basic_result_storageI14NonTrivialTypeSt10error_codeNS_6policy32error_code_throw_as_system_errorIS4_S5_NSt15__exception_ptr13exception_ptrEEEEES4_SA_EES5_SA_EC2ERKSD_',
                                         'Param' => {
                                                      '0' => {
                                                               'name' => 'this',
                                                               'type' => '48194'
                                                             },
                                                      '1' => {
                                                               'name' => 'p1',
                                                               'type' => '50013'
                                                             }
                                                    },
                                         'ShortName' => 'basic_result_error_observers'
                                       },
                            '50058' => {
                                         'Artificial' => 1,
                                         'Class' => '41064',
                                         'Constructor' => 1,
                                         'Header' => 'basic_result_error_observers.hpp',
                                         'InLine' => 1,
                                         'Line' => '35',
                                         'MnglName' => '_ZN10outcome_v26detail28basic_result_error_observersINS0_28basic_result_value_observersINS0_20basic_result_storageI14NonTrivialTypeSt10error_codeNS_6policy32error_code_throw_as_system_errorIS4_S5_NSt15__exception_ptr13exception_ptrEEEEES4_SA_EES5_SA_EC1ERKSD_',
                                         'Param' => {
                                                      '0' => {
                                                               'name' => 'this',
                                                               'type' => '48194'
                                                             },
                                                      '1' => {
                                                               'name' => 'p1',
                                                               'type' => '50013'
                                                             }
                                                    },
                                         'ShortName' => 'basic_result_error_observers'
                                       },
                            '50132' => {
                                         'Artificial' => 1,
                                         'Class' => '40728',
                                         'Constructor' => 1,
                                         'Header' => 'basic_result_value_observers.hpp',
                                         'InLine' => 1,
                                         'Line' => '35',
                                         'MnglName' => '_ZN10outcome_v26detail28basic_result_value_observersINS0_20basic_result_storageI14NonTrivialTypeSt10error_codeNS_6policy32error_code_throw_as_system_errorIS3_S4_NSt15__exception_ptr13exception_ptrEEEEES3_S9_EC2ERKSB_',
                                         'Param' => {
                                                      '0' => {
                                                               'name' => 'this',
                                                               'type' => '48153'
                                                             },
                                                      '1' => {
                                                               'name' => 'p1',
                                                               'type' => '50088'
                                                             }
                                                    },
                                         'ShortName' => 'basic_result_value_observers'
                                       },
                            '50133' => {
                                         'Artificial' => 1,
                                         'Class' => '40728',
                                         'Constructor' => 1,
                                         'Header' => 'basic_result_value_observers.hpp',
                                         'InLine' => 1,
                                         'Line' => '35',
                                         'MnglName' => '_ZN10outcome_v26detail28basic_result_value_observersINS0_20basic_result_storageI14NonTrivialTypeSt10error_codeNS_6policy32error_code_throw_as_system_errorIS3_S4_NSt15__exception_ptr13exception_ptrEEEEES3_S9_EC1ERKSB_',
                                         'Param' => {
                                                      '0' => {
                                                               'name' => 'this',
                                                               'type' => '48153'
                                                             },
                                                      '1' => {
                                                               'name' => 'p1',
                                                               'type' => '50088'
                                                             }
                                                    },
                                         'ShortName' => 'basic_result_value_observers'
                                       },
                            '50194' => {
                                         'Artificial' => 1,
                                         'Class' => '40411',
                                         'Constructor' => 1,
                                         'Header' => 'basic_result_storage.hpp',
                                         'InLine' => 1,
                                         'Line' => '100',
                                         'MnglName' => '_ZN10outcome_v26detail20basic_result_storageI14NonTrivialTypeSt10error_codeNS_6policy32error_code_throw_as_system_errorIS2_S3_NSt15__exception_ptr13exception_ptrEEEEC2ERKS9_',
                                         'Param' => {
                                                      '0' => {
                                                               'name' => 'this',
                                                               'type' => '48107'
                                                             },
                                                      '1' => {
                                                               'name' => 'p1',
                                                               'type' => '48118'
                                                             }
                                                    },
                                         'Protected' => 1,
                                         'ShortName' => 'basic_result_storage'
                                       },
                            '50195' => {
                                         'Artificial' => 1,
                                         'Class' => '40411',
                                         'Constructor' => 1,
                                         'Header' => 'basic_result_storage.hpp',
                                         'InLine' => 1,
                                         'Line' => '100',
                                         'MnglName' => '_ZN10outcome_v26detail20basic_result_storageI14NonTrivialTypeSt10error_codeNS_6policy32error_code_throw_as_system_errorIS2_S3_NSt15__exception_ptr13exception_ptrEEEEC1ERKS9_',
                                         'Param' => {
                                                      '0' => {
                                                               'name' => 'this',
                                                               'type' => '48107'
                                                             },
                                                      '1' => {
                                                               'name' => 'p1',
                                                               'type' => '48118'
                                                             }
                                                    },
                                         'Protected' => 1,
                                         'ShortName' => 'basic_result_storage'
                                       },
                            '50225' => {
                                         'Line' => '71',
                                         'MnglName' => '_Z11outcome_intRN10outcome_v213basic_outcomeIiSt10error_codeNSt15__exception_ptr13exception_ptrENS_6policy32error_code_throw_as_system_errorIiS1_S3_EEEE',
                                         'Param' => {
                                                      '0' => {
                                                               'name' => 'v',
                                                               'type' => '49680'
                                                             }
                                                    },
                                         'Return' => '43919',
                                         'ShortName' => 'outcome_int',
                                         'Source' => 'main.cpp'
                                       },
                            '50433' => {
                                         'Line' => '66',
                                         'MnglName' => '_Z21result_NonTrivialTypeRN10outcome_v212basic_resultI14NonTrivialTypeSt10error_codeNS_6policy32error_code_throw_as_system_errorIS1_S2_vEEEE',
                                         'Param' => {
                                                      '0' => {
                                                               'name' => 'v',
                                                               'type' => '50854'
                                                             }
                                                    },
                                         'Return' => '43963',
                                         'ShortName' => 'result_NonTrivialType',
                                         'Source' => 'main.cpp'
                                       },
                            '50896' => {
                                         'Artificial' => 1,
                                         'Class' => '42993',
                                         'Constructor' => 1,
                                         'Header' => 'basic_result.hpp',
                                         'InLine' => 1,
                                         'Line' => '278',
                                         'MnglName' => '_ZN10outcome_v212basic_resultI14NonTrivialTypeSt10error_codeNS_6policy32error_code_throw_as_system_errorIS1_S2_vEEEC2ERKS6_',
                                         'Param' => {
                                                      '0' => {
                                                               'name' => 'this',
                                                               'type' => '47894'
                                                             },
                                                      '1' => {
                                                               'name' => 'p1',
                                                               'type' => '47905'
                                                             }
                                                    },
                                         'ShortName' => 'basic_result'
                                       },
                            '50897' => {
                                         'Artificial' => 1,
                                         'Class' => '42993',
                                         'Constructor' => 1,
                                         'Header' => 'basic_result.hpp',
                                         'InLine' => 1,
                                         'Line' => '278',
                                         'MnglName' => '_ZN10outcome_v212basic_resultI14NonTrivialTypeSt10error_codeNS_6policy32error_code_throw_as_system_errorIS1_S2_vEEEC1ERKS6_',
                                         'Param' => {
                                                      '0' => {
                                                               'name' => 'this',
                                                               'type' => '47894'
                                                             },
                                                      '1' => {
                                                               'name' => 'p1',
                                                               'type' => '47905'
                                                             }
                                                    },
                                         'ShortName' => 'basic_result'
                                       },
                            '50982' => {
                                         'Artificial' => 1,
                                         'Class' => '38462',
                                         'Constructor' => 1,
                                         'Header' => 'basic_result_final.hpp',
                                         'InLine' => 1,
                                         'Line' => '39',
                                         'MnglName' => '_ZN10outcome_v26detail18basic_result_finalI14NonTrivialTypeSt10error_codeNS_6policy32error_code_throw_as_system_errorIS2_S3_vEEEC2ERKS7_',
                                         'Param' => {
                                                      '0' => {
                                                               'name' => 'this',
                                                               'type' => '50933'
                                                             },
                                                      '1' => {
                                                               'name' => 'p1',
                                                               'type' => '50938'
                                                             }
                                                    },
                                         'ShortName' => 'basic_result_final'
                                       },
                            '50983' => {
                                         'Artificial' => 1,
                                         'Class' => '38462',
                                         'Constructor' => 1,
                                         'Header' => 'basic_result_final.hpp',
                                         'InLine' => 1,
                                         'Line' => '39',
                                         'MnglName' => '_ZN10outcome_v26detail18basic_result_finalI14NonTrivialTypeSt10error_codeNS_6policy32error_code_throw_as_system_errorIS2_S3_vEEEC1ERKS7_',
                                         'Param' => {
                                                      '0' => {
                                                               'name' => 'this',
                                                               'type' => '50933'
                                                             },
                                                      '1' => {
                                                               'name' => 'p1',
                                                               'type' => '50938'
                                                             }
                                                    },
                                         'ShortName' => 'basic_result_final'
                                       },
                            '51057' => {
                                         'Artificial' => 1,
                                         'Class' => '38125',
                                         'Constructor' => 1,
                                         'Header' => 'basic_result_error_observers.hpp',
                                         'InLine' => 1,
                                         'Line' => '35',
                                         'MnglName' => '_ZN10outcome_v26detail28basic_result_error_observersINS0_28basic_result_value_observersINS0_20basic_result_storageI14NonTrivialTypeSt10error_codeNS_6policy32error_code_throw_as_system_errorIS4_S5_vEEEES4_S8_EES5_S8_EC2ERKSB_',
                                         'Param' => {
                                                      '0' => {
                                                               'name' => 'this',
                                                               'type' => '47853'
                                                             },
                                                      '1' => {
                                                               'name' => 'p1',
                                                               'type' => '51013'
                                                             }
                                                    },
                                         'ShortName' => 'basic_result_error_observers'
                                       },
                            '51058' => {
                                         'Artificial' => 1,
                                         'Class' => '38125',
                                         'Constructor' => 1,
                                         'Header' => 'basic_result_error_observers.hpp',
                                         'InLine' => 1,
                                         'Line' => '35',
                                         'MnglName' => '_ZN10outcome_v26detail28basic_result_error_observersINS0_28basic_result_value_observersINS0_20basic_result_storageI14NonTrivialTypeSt10error_codeNS_6policy32error_code_throw_as_system_errorIS4_S5_vEEEES4_S8_EES5_S8_EC1ERKSB_',
                                         'Param' => {
                                                      '0' => {
                                                               'name' => 'this',
                                                               'type' => '47853'
                                                             },
                                                      '1' => {
                                                               'name' => 'p1',
                                                               'type' => '51013'
                                                             }
                                                    },
                                         'ShortName' => 'basic_result_error_observers'
                                       },
                            '51132' => {
                                         'Artificial' => 1,
                                         'Class' => '37789',
                                         'Constructor' => 1,
                                         'Header' => 'basic_result_value_observers.hpp',
                                         'InLine' => 1,
                                         'Line' => '35',
                                         'MnglName' => '_ZN10outcome_v26detail28basic_result_value_observersINS0_20basic_result_storageI14NonTrivialTypeSt10error_codeNS_6policy32error_code_throw_as_system_errorIS3_S4_vEEEES3_S7_EC2ERKS9_',
                                         'Param' => {
                                                      '0' => {
                                                               'name' => 'this',
                                                               'type' => '47812'
                                                             },
                                                      '1' => {
                                                               'name' => 'p1',
                                                               'type' => '51088'
                                                             }
                                                    },
                                         'ShortName' => 'basic_result_value_observers'
                                       },
                            '51133' => {
                                         'Artificial' => 1,
                                         'Class' => '37789',
                                         'Constructor' => 1,
                                         'Header' => 'basic_result_value_observers.hpp',
                                         'InLine' => 1,
                                         'Line' => '35',
                                         'MnglName' => '_ZN10outcome_v26detail28basic_result_value_observersINS0_20basic_result_storageI14NonTrivialTypeSt10error_codeNS_6policy32error_code_throw_as_system_errorIS3_S4_vEEEES3_S7_EC1ERKS9_',
                                         'Param' => {
                                                      '0' => {
                                                               'name' => 'this',
                                                               'type' => '47812'
                                                             },
                                                      '1' => {
                                                               'name' => 'p1',
                                                               'type' => '51088'
                                                             }
                                                    },
                                         'ShortName' => 'basic_result_value_observers'
                                       },
                            '51194' => {
                                         'Artificial' => 1,
                                         'Class' => '37443',
                                         'Constructor' => 1,
                                         'Header' => 'basic_result_storage.hpp',
                                         'InLine' => 1,
                                         'Line' => '100',
                                         'MnglName' => '_ZN10outcome_v26detail20basic_result_storageI14NonTrivialTypeSt10error_codeNS_6policy32error_code_throw_as_system_errorIS2_S3_vEEEC2ERKS7_',
                                         'Param' => {
                                                      '0' => {
                                                               'name' => 'this',
                                                               'type' => '47760'
                                                             },
                                                      '1' => {
                                                               'name' => 'p1',
                                                               'type' => '47777'
                                                             }
                                                    },
                                         'Protected' => 1,
                                         'ShortName' => 'basic_result_storage'
                                       },
                            '51195' => {
                                         'Artificial' => 1,
                                         'Class' => '37443',
                                         'Constructor' => 1,
                                         'Header' => 'basic_result_storage.hpp',
                                         'InLine' => 1,
                                         'Line' => '100',
                                         'MnglName' => '_ZN10outcome_v26detail20basic_result_storageI14NonTrivialTypeSt10error_codeNS_6policy32error_code_throw_as_system_errorIS2_S3_vEEEC1ERKS7_',
                                         'Param' => {
                                                      '0' => {
                                                               'name' => 'this',
                                                               'type' => '47760'
                                                             },
                                                      '1' => {
                                                               'name' => 'p1',
                                                               'type' => '47777'
                                                             }
                                                    },
                                         'Protected' => 1,
                                         'ShortName' => 'basic_result_storage'
                                       },
                            '51349' => {
                                         'Line' => '61',
                                         'MnglName' => '_Z10result_intRN10outcome_v212basic_resultIiSt10error_codeNS_6policy32error_code_throw_as_system_errorIiS1_vEEEE',
                                         'Param' => {
                                                      '0' => {
                                                               'name' => 'v',
                                                               'type' => '50854'
                                                             }
                                                    },
                                         'Return' => '43963',
                                         'ShortName' => 'result_int',
                                         'Source' => 'main.cpp'
                                       },
                            '51411' => {
                                         'Line' => '56',
                                         'MnglName' => '_Z28value_storage_NonTrivialTypeRN10outcome_v26detail24value_storage_nontrivialI14NonTrivialTypeEE',
                                         'Param' => {
                                                      '0' => {
                                                               'name' => 'v',
                                                               'type' => '47491'
                                                             }
                                                    },
                                         'Return' => '35349',
                                         'ShortName' => 'value_storage_NonTrivialType',
                                         'Source' => 'main.cpp'
                                       },
                            '51540' => {
                                         'Line' => '51',
                                         'MnglName' => '_Z17value_storage_intRN10outcome_v26detail21value_storage_trivialIiEE',
                                         'Param' => {
                                                      '0' => {
                                                               'name' => 'v',
                                                               'type' => '47469'
                                                             }
                                                    },
                                         'Return' => '34975',
                                         'ShortName' => 'value_storage_int',
                                         'Source' => 'main.cpp'
                                       },
                            '51591' => {
                                         'Line' => '45',
                                         'MnglName' => '_Z11status_bitsv',
                                         'Return' => '34510',
                                         'ShortName' => 'status_bits',
                                         'Source' => 'main.cpp'
                                       }
                          },
          'SymbolVersion' => {},
          'Symbols' => {
                         'liboutcome-abi-lib.so' => {
                                                      '_Z10result_intRN10outcome_v212basic_resultIiSt10error_codeNS_6policy32error_code_throw_as_system_errorIiS1_vEEEE' => 1,
                                                      '_Z11outcome_intRN10outcome_v213basic_outcomeIiSt10error_codeNSt15__exception_ptr13exception_ptrENS_6policy32error_code_throw_as_system_errorIiS1_S3_EEEE' => 1,
                                                      '_Z11status_bitsv' => 1,
                                                      '_Z17value_storage_intRN10outcome_v26detail21value_storage_trivialIiEE' => 1,
                                                      '_Z21result_NonTrivialTypeRN10outcome_v212basic_resultI14NonTrivialTypeSt10error_codeNS_6policy32error_code_throw_as_system_errorIS1_S2_vEEEE' => 1,
                                                      '_Z22outcome_NonTrivialTypeRN10outcome_v213basic_outcomeI14NonTrivialTypeSt10error_codeNSt15__exception_ptr13exception_ptrENS_6policy32error_code_throw_as_system_errorIS1_S2_S4_EEEE' => 1,
                                                      '_Z28value_storage_NonTrivialTypeRN10outcome_v26detail24value_storage_nontrivialI14NonTrivialTypeEE' => 1,
                                                      '_fini' => 1,
                                                      '_init' => 1
                                                    }
                       },
          'Target' => 'unix',
          'TypeInfo' => {
                          '1' => {
                                   'Name' => 'void',
                                   'Type' => 'Intrinsic'
                                 },
                          '1360' => {
                                      'Header' => 'type_traits',
                                      'Line' => '2179',
                                      'Name' => 'struct std::conditional<true, outcome_v2::detail::void_type, void>',
                                      'NameSpace' => 'std',
                                      'Size' => '1',
                                      'TParam' => {
                                                    '0' => {
                                                             'name' => 'true'
                                                           },
                                                    '1' => {
                                                             'type' => '34407'
                                                           },
                                                    '2' => {
                                                             'name' => 'void'
                                                           }
                                                  },
                                      'Type' => 'Struct'
                                    },
                          '1373' => {
                                      'BaseType' => '34407',
                                      'Header' => 'type_traits',
                                      'Line' => '2180',
                                      'Name' => 'std::conditional<true, outcome_v2::detail::void_type, void>::type',
                                      'NameSpace' => 'std::conditional<true, outcome_v2::detail::void_type, void>',
                                      'Size' => '1',
                                      'Type' => 'Typedef'
                                    },
                          '1386' => {
                                      'BaseType' => '1373',
                                      'Header' => 'type_traits',
                                      'Line' => '2527',
                                      'Name' => 'std::conditional_t',
                                      'NameSpace' => 'std',
                                      'Size' => '1',
                                      'Type' => 'Typedef'
                                    },
                          '164' => {
                                     'BaseType' => '175',
                                     'Header' => 'stdint.h',
                                     'Line' => '51',
                                     'Name' => 'uint32_t',
                                     'Size' => '4',
                                     'Type' => 'Typedef'
                                   },
                          '1679' => {
                                      'Header' => 'exception_ptr.h',
                                      'Line' => '77',
                                      'Memb' => {
                                                  '0' => {
                                                           'access' => 'private',
                                                           'name' => '_M_exception_object',
                                                           'offset' => '0',
                                                           'type' => '27164'
                                                         }
                                                },
                                      'Name' => 'std::__exception_ptr::exception_ptr',
                                      'NameSpace' => 'std::__exception_ptr',
                                      'Size' => '8',
                                      'Type' => 'Class'
                                    },
                          '175' => {
                                     'Name' => 'unsigned int',
                                     'Size' => '4',
                                     'Type' => 'Intrinsic'
                                   },
                          '25090' => {
                                       'Copied' => 1,
                                       'Name' => 'std::_V2::error_category',
                                       'NameSpace' => 'std::_V2',
                                       'Type' => 'Class'
                                     },
                          '25095' => {
                                       'BaseType' => '25090',
                                       'Name' => 'std::_V2::error_category const',
                                       'Type' => 'Const'
                                     },
                          '25108' => {
                                       'Header' => 'system_error',
                                       'Line' => '138',
                                       'Memb' => {
                                                   '0' => {
                                                            'access' => 'private',
                                                            'name' => '_M_value',
                                                            'offset' => '0',
                                                            'type' => '93'
                                                          },
                                                   '1' => {
                                                            'access' => 'private',
                                                            'name' => '_M_cat',
                                                            'offset' => '8',
                                                            'type' => '47023'
                                                          }
                                                 },
                                       'Name' => 'struct std::error_code',
                                       'NameSpace' => 'std',
                                       'Size' => '16',
                                       'Type' => 'Struct'
                                     },
                          '27164' => {
                                       'BaseType' => '1',
                                       'Name' => 'void*',
                                       'Size' => '8',
                                       'Type' => 'Pointer'
                                     },
                          '34399' => {
                                       'Header' => 'config.hpp',
                                       'Line' => '179',
                                       'Name' => 'struct outcome_v2::detail::empty_type',
                                       'NameSpace' => 'outcome_v2::detail',
                                       'Size' => '1',
                                       'Type' => 'Struct'
                                     },
                          '34407' => {
                                       'Copied' => 1,
                                       'Header' => 'config.hpp',
                                       'Line' => '182',
                                       'Name' => 'struct outcome_v2::detail::void_type',
                                       'NameSpace' => 'outcome_v2::detail',
                                       'Size' => '1',
                                       'Type' => 'Struct'
                                     },
                          '34510' => {
                                       'BaseType' => '164',
                                       'Header' => 'value_storage.hpp',
                                       'Line' => '34',
                                       'Name' => 'outcome_v2::detail::status_bitfield_type',
                                       'NameSpace' => 'outcome_v2::detail',
                                       'Size' => '4',
                                       'Type' => 'Typedef'
                                     },
                          '34964' => {
                                       'BaseType' => '1386',
                                       'Header' => 'config.hpp',
                                       'Line' => '188',
                                       'Name' => 'outcome_v2::detail::devoid',
                                       'NameSpace' => 'outcome_v2::detail',
                                       'Size' => '1',
                                       'Type' => 'Typedef'
                                     },
                          '34975' => {
                                       'Header' => 'value_storage.hpp',
                                       'Line' => '48',
                                       'Memb' => {
                                                   '0' => {
                                                            'name' => 'unnamed0',
                                                            'offset' => '0',
                                                            'type' => '34987'
                                                          },
                                                   '1' => {
                                                            'name' => '_status',
                                                            'offset' => '4',
                                                            'type' => '34510'
                                                          }
                                                 },
                                       'Name' => 'struct outcome_v2::detail::value_storage_trivial<int>',
                                       'NameSpace' => 'outcome_v2::detail',
                                       'Size' => '8',
                                       'TParam' => {
                                                     '0' => {
                                                              'key' => 'T',
                                                              'type' => '93'
                                                            }
                                                   },
                                       'Type' => 'Struct'
                                     },
                          '34987' => {
                                       'Header' => 'value_storage.hpp',
                                       'Line' => '51',
                                       'Memb' => {
                                                   '0' => {
                                                            'name' => '_empty',
                                                            'offset' => '0',
                                                            'type' => '34399'
                                                          },
                                                   '1' => {
                                                            'name' => '_value',
                                                            'offset' => '0',
                                                            'type' => '34964'
                                                          }
                                                 },
                                       'Name' => 'outcome_v2::detail::value_storage_trivial<int>::anon-union-value_storage.hpp-51',
                                       'NameSpace' => 'outcome_v2::detail::value_storage_trivial<int>',
                                       'Size' => '4',
                                       'Type' => 'Union'
                                     },
                          '35349' => {
                                       'Header' => 'value_storage.hpp',
                                       'Line' => '112',
                                       'Memb' => {
                                                   '0' => {
                                                            'name' => 'unnamed0',
                                                            'offset' => '0',
                                                            'type' => '35361'
                                                          },
                                                   '1' => {
                                                            'name' => '_status',
                                                            'offset' => '8',
                                                            'type' => '34510'
                                                          }
                                                 },
                                       'Name' => 'struct outcome_v2::detail::value_storage_nontrivial<NonTrivialType>',
                                       'NameSpace' => 'outcome_v2::detail',
                                       'Size' => '16',
                                       'TParam' => {
                                                     '0' => {
                                                              'key' => 'T',
                                                              'type' => '47202'
                                                            }
                                                   },
                                       'Type' => 'Struct'
                                     },
                          '35361' => {
                                       'Header' => 'value_storage.hpp',
                                       'Line' => '115',
                                       'Memb' => {
                                                   '0' => {
                                                            'name' => '_empty',
                                                            'offset' => '0',
                                                            'type' => '34399'
                                                          },
                                                   '1' => {
                                                            'name' => '_value',
                                                            'offset' => '0',
                                                            'type' => '35392'
                                                          }
                                                 },
                                       'Name' => 'outcome_v2::detail::value_storage_nontrivial<NonTrivialType>::anon-union-value_storage.hpp-115',
                                       'NameSpace' => 'outcome_v2::detail::value_storage_nontrivial<NonTrivialType>',
                                       'Size' => '8',
                                       'Type' => 'Union'
                                     },
                          '35392' => {
                                       'BaseType' => '47202',
                                       'Header' => 'value_storage.hpp',
                                       'Line' => '114',
                                       'Name' => 'outcome_v2::detail::value_storage_nontrivial<NonTrivialType>::value_type',
                                       'NameSpace' => 'outcome_v2::detail::value_storage_nontrivial<NonTrivialType>',
                                       'Size' => '8',
                                       'Type' => 'Typedef'
                                     },
                          '35702' => {
                                       'BaseType' => '35349',
                                       'Name' => 'struct outcome_v2::detail::value_storage_nontrivial<NonTrivialType>const',
                                       'Size' => '16',
                                       'Type' => 'Const'
                                     },
                          '36024' => {
                                       'BaseType' => '36041',
                                       'Header' => 'value_storage.hpp',
                                       'Line' => '338',
                                       'Name' => 'outcome_v2::detail::value_storage_select_impl',
                                       'NameSpace' => 'outcome_v2::detail',
                                       'Size' => '1',
                                       'Type' => 'Typedef'
                                     },
                          '36041' => {
                                       'BaseType' => '1386',
                                       'Header' => 'value_storage.hpp',
                                       'Line' => '337',
                                       'Name' => 'outcome_v2::detail::value_storage_select_copy_assignment',
                                       'NameSpace' => 'outcome_v2::detail',
                                       'Size' => '1',
                                       'Type' => 'Typedef'
                                     },
                          '37443' => {
                                       'Header' => 'basic_result_storage.hpp',
                                       'Line' => '62',
                                       'Memb' => {
                                                   '0' => {
                                                            'access' => 'protected',
                                                            'name' => '_state',
                                                            'offset' => '0',
                                                            'type' => '36024'
                                                          },
                                                   '1' => {
                                                            'access' => 'protected',
                                                            'name' => '_error',
                                                            'offset' => '16',
                                                            'type' => '34964'
                                                          }
                                                 },
                                       'Name' => 'outcome_v2::detail::basic_result_storage<NonTrivialType, std::error_code, outcome_v2::policy::error_code_throw_as_system_error<NonTrivialType, std::error_code, void> >',
                                       'NameSpace' => 'outcome_v2::detail',
                                       'Size' => '32',
                                       'TParam' => {
                                                     '0' => {
                                                              'key' => 'R',
                                                              'type' => '47202'
                                                            },
                                                     '1' => {
                                                              'key' => 'EC',
                                                              'type' => '25108'
                                                            },
                                                     '2' => {
                                                              'key' => 'NoValuePolicy',
                                                              'type' => '42493'
                                                            }
                                                   },
                                       'Type' => 'Class'
                                     },
                          '37755' => {
                                       'BaseType' => '37443',
                                       'Name' => 'outcome_v2::detail::basic_result_storage<NonTrivialType, std::error_code, outcome_v2::policy::error_code_throw_as_system_error<NonTrivialType, std::error_code, void> >const',
                                       'Size' => '32',
                                       'Type' => 'Const'
                                     },
                          '37789' => {
                                       'Base' => {
                                                   '37443' => {
                                                                'pos' => '0'
                                                              }
                                                 },
                                       'Header' => 'basic_result_value_observers.hpp',
                                       'Line' => '35',
                                       'Name' => 'outcome_v2::detail::basic_result_value_observers<outcome_v2::detail::basic_result_storage<NonTrivialType, std::error_code, outcome_v2::policy::error_code_throw_as_system_error<NonTrivialType, std::error_code, void> >, NonTrivialType, outcome_v2::policy::error_code_throw_as_system_error<NonTrivialType, std::error_code, void> >',
                                       'NameSpace' => 'outcome_v2::detail',
                                       'Size' => '32',
                                       'TParam' => {
                                                     '0' => {
                                                              'key' => 'Base',
                                                              'type' => '37443'
                                                            },
                                                     '1' => {
                                                              'key' => 'R',
                                                              'type' => '47202'
                                                            },
                                                     '2' => {
                                                              'key' => 'NoValuePolicy',
                                                              'type' => '42493'
                                                            }
                                                   },
                                       'Type' => 'Class'
                                     },
                          '38120' => {
                                       'BaseType' => '37789',
                                       'Name' => 'outcome_v2::detail::basic_result_value_observers<outcome_v2::detail::basic_result_storage<NonTrivialType, std::error_code, outcome_v2::policy::error_code_throw_as_system_error<NonTrivialType, std::error_code, void> >, NonTrivialType, outcome_v2::policy::error_code_throw_as_system_error<NonTrivialType, std::error_code, void> >const',
                                       'Size' => '32',
                                       'Type' => 'Const'
                                     },
                          '38125' => {
                                       'Base' => {
                                                   '37789' => {
                                                                'pos' => '0'
                                                              }
                                                 },
                                       'Header' => 'basic_result_error_observers.hpp',
                                       'Line' => '35',
                                       'Name' => 'outcome_v2::detail::basic_result_error_observers<outcome_v2::detail::basic_result_value_observers<outcome_v2::detail::basic_result_storage<NonTrivialType, std::error_code, outcome_v2::policy::error_code_throw_as_system_error<NonTrivialType, std::error_code, void> >, NonTrivialType, outcome_v2::policy::error_code_throw_as_system_error<NonTrivialType, std::error_code, void> >, std::error_code, outcome_v2::policy::error_code_throw_as_system_error<NonTrivialType, std::error_code, void> >',
                                       'NameSpace' => 'outcome_v2::detail',
                                       'Size' => '32',
                                       'TParam' => {
                                                     '0' => {
                                                              'key' => 'Base',
                                                              'type' => '37789'
                                                            },
                                                     '1' => {
                                                              'key' => 'EC',
                                                              'type' => '25108'
                                                            },
                                                     '2' => {
                                                              'key' => 'NoValuePolicy',
                                                              'type' => '42493'
                                                            }
                                                   },
                                       'Type' => 'Class'
                                     },
                          '38457' => {
                                       'BaseType' => '38125',
                                       'Name' => 'outcome_v2::detail::basic_result_error_observers<outcome_v2::detail::basic_result_value_observers<outcome_v2::detail::basic_result_storage<NonTrivialType, std::error_code, outcome_v2::policy::error_code_throw_as_system_error<NonTrivialType, std::error_code, void> >, NonTrivialType, outcome_v2::policy::error_code_throw_as_system_error<NonTrivialType, std::error_code, void> >, std::error_code, outcome_v2::policy::error_code_throw_as_system_error<NonTrivialType, std::error_code, void> >const',
                                       'Size' => '32',
                                       'Type' => 'Const'
                                     },
                          '38462' => {
                                       'Base' => {
                                                   '38125' => {
                                                                'pos' => '0'
                                                              }
                                                 },
                                       'Header' => 'basic_result_final.hpp',
                                       'Line' => '39',
                                       'Name' => 'outcome_v2::detail::basic_result_final<NonTrivialType, std::error_code, outcome_v2::policy::error_code_throw_as_system_error<NonTrivialType, std::error_code, void> >',
                                       'NameSpace' => 'outcome_v2::detail',
                                       'Size' => '32',
                                       'TParam' => {
                                                     '0' => {
                                                              'key' => 'R',
                                                              'type' => '47202'
                                                            },
                                                     '1' => {
                                                              'key' => 'S',
                                                              'type' => '25108'
                                                            },
                                                     '2' => {
                                                              'key' => 'NoValuePolicy',
                                                              'type' => '42493'
                                                            }
                                                   },
                                       'Type' => 'Class'
                                     },
                          '38754' => {
                                       'BaseType' => '38462',
                                       'Name' => 'outcome_v2::detail::basic_result_final<NonTrivialType, std::error_code, outcome_v2::policy::error_code_throw_as_system_error<NonTrivialType, std::error_code, void> >const',
                                       'Size' => '32',
                                       'Type' => 'Const'
                                     },
                          '40411' => {
                                       'Header' => 'basic_result_storage.hpp',
                                       'Line' => '62',
                                       'Memb' => {
                                                   '0' => {
                                                            'access' => 'protected',
                                                            'name' => '_state',
                                                            'offset' => '0',
                                                            'type' => '36024'
                                                          },
                                                   '1' => {
                                                            'access' => 'protected',
                                                            'name' => '_error',
                                                            'offset' => '16',
                                                            'type' => '34964'
                                                          }
                                                 },
                                       'Name' => 'outcome_v2::detail::basic_result_storage<NonTrivialType, std::error_code, outcome_v2::policy::error_code_throw_as_system_error<NonTrivialType, std::error_code, std::__exception_ptr::exception_ptr> >',
                                       'NameSpace' => 'outcome_v2::detail',
                                       'Size' => '32',
                                       'TParam' => {
                                                     '0' => {
                                                              'key' => 'R',
                                                              'type' => '47202'
                                                            },
                                                     '1' => {
                                                              'key' => 'EC',
                                                              'type' => '25108'
                                                            },
                                                     '2' => {
                                                              'key' => 'NoValuePolicy',
                                                              'type' => '42503'
                                                            }
                                                   },
                                       'Type' => 'Class'
                                     },
                          '40723' => {
                                       'BaseType' => '40411',
                                       'Name' => 'outcome_v2::detail::basic_result_storage<NonTrivialType, std::error_code, outcome_v2::policy::error_code_throw_as_system_error<NonTrivialType, std::error_code, std::__exception_ptr::exception_ptr> >const',
                                       'Size' => '32',
                                       'Type' => 'Const'
                                     },
                          '40728' => {
                                       'Base' => {
                                                   '40411' => {
                                                                'pos' => '0'
                                                              }
                                                 },
                                       'Header' => 'basic_result_value_observers.hpp',
                                       'Line' => '35',
                                       'Name' => 'outcome_v2::detail::basic_result_value_observers<outcome_v2::detail::basic_result_storage<NonTrivialType, std::error_code, outcome_v2::policy::error_code_throw_as_system_error<NonTrivialType, std::error_code, std::__exception_ptr::exception_ptr> >, NonTrivialType, outcome_v2::policy::error_code_throw_as_system_error<NonTrivialType, std::error_code, std::__exception_ptr::exception_ptr> >',
                                       'NameSpace' => 'outcome_v2::detail',
                                       'Size' => '32',
                                       'TParam' => {
                                                     '0' => {
                                                              'key' => 'Base',
                                                              'type' => '40411'
                                                            },
                                                     '1' => {
                                                              'key' => 'R',
                                                              'type' => '47202'
                                                            },
                                                     '2' => {
                                                              'key' => 'NoValuePolicy',
                                                              'type' => '42503'
                                                            }
                                                   },
                                       'Type' => 'Class'
                                     },
                          '41059' => {
                                       'BaseType' => '40728',
                                       'Name' => 'outcome_v2::detail::basic_result_value_observers<outcome_v2::detail::basic_result_storage<NonTrivialType, std::error_code, outcome_v2::policy::error_code_throw_as_system_error<NonTrivialType, std::error_code, std::__exception_ptr::exception_ptr> >, NonTrivialType, outcome_v2::policy::error_code_throw_as_system_error<NonTrivialType, std::error_code, std::__exception_ptr::exception_ptr> >const',
                                       'Size' => '32',
                                       'Type' => 'Const'
                                     },
                          '41064' => {
                                       'Base' => {
                                                   '40728' => {
                                                                'pos' => '0'
                                                              }
                                                 },
                                       'Header' => 'basic_result_error_observers.hpp',
                                       'Line' => '35',
                                       'Name' => 'outcome_v2::detail::basic_result_error_observers<outcome_v2::detail::basic_result_value_observers<outcome_v2::detail::basic_result_storage<NonTrivialType, std::error_code, outcome_v2::policy::error_code_throw_as_system_error<NonTrivialType, std::error_code, std::__exception_ptr::exception_ptr> >, NonTrivialType, outcome_v2::policy::error_code_throw_as_system_error<NonTrivialType, std::error_code, std::__exception_ptr::exception_ptr> >, std::error_code, outcome_v2::policy::error_code_throw_as_system_error<NonTrivialType, std::error_code, std::__exception_ptr::exception_ptr> >',
                                       'NameSpace' => 'outcome_v2::detail',
                                       'Size' => '32',
                                       'TParam' => {
                                                     '0' => {
                                                              'key' => 'Base',
                                                              'type' => '40728'
                                                            },
                                                     '1' => {
                                                              'key' => 'EC',
                                                              'type' => '25108'
                                                            },
                                                     '2' => {
                                                              'key' => 'NoValuePolicy',
                                                              'type' => '42503'
                                                            }
                                                   },
                                       'Type' => 'Class'
                                     },
                          '41396' => {
                                       'BaseType' => '41064',
                                       'Name' => 'outcome_v2::detail::basic_result_error_observers<outcome_v2::detail::basic_result_value_observers<outcome_v2::detail::basic_result_storage<NonTrivialType, std::error_code, outcome_v2::policy::error_code_throw_as_system_error<NonTrivialType, std::error_code, std::__exception_ptr::exception_ptr> >, NonTrivialType, outcome_v2::policy::error_code_throw_as_system_error<NonTrivialType, std::error_code, std::__exception_ptr::exception_ptr> >, std::error_code, outcome_v2::policy::error_code_throw_as_system_error<NonTrivialType, std::error_code, std::__exception_ptr::exception_ptr> >const',
                                       'Size' => '32',
                                       'Type' => 'Const'
                                     },
                          '41401' => {
                                       'Base' => {
                                                   '41064' => {
                                                                'pos' => '0'
                                                              }
                                                 },
                                       'Header' => 'basic_result_final.hpp',
                                       'Line' => '39',
                                       'Name' => 'outcome_v2::detail::basic_result_final<NonTrivialType, std::error_code, outcome_v2::policy::error_code_throw_as_system_error<NonTrivialType, std::error_code, std::__exception_ptr::exception_ptr> >',
                                       'NameSpace' => 'outcome_v2::detail',
                                       'Size' => '32',
                                       'TParam' => {
                                                     '0' => {
                                                              'key' => 'R',
                                                              'type' => '47202'
                                                            },
                                                     '1' => {
                                                              'key' => 'S',
                                                              'type' => '25108'
                                                            },
                                                     '2' => {
                                                              'key' => 'NoValuePolicy',
                                                              'type' => '42503'
                                                            }
                                                   },
                                       'Type' => 'Class'
                                     },
                          '41693' => {
                                       'BaseType' => '41401',
                                       'Name' => 'outcome_v2::detail::basic_result_final<NonTrivialType, std::error_code, outcome_v2::policy::error_code_throw_as_system_error<NonTrivialType, std::error_code, std::__exception_ptr::exception_ptr> >const',
                                       'Size' => '32',
                                       'Type' => 'Const'
                                     },
                          '41698' => {
                                       'Base' => {
                                                   '41401' => {
                                                                'pos' => '0'
                                                              }
                                                 },
                                       'Header' => 'basic_outcome_exception_observers.hpp',
                                       'Line' => '44',
                                       'Name' => 'outcome_v2::detail::basic_outcome_exception_observers<outcome_v2::detail::basic_result_final<NonTrivialType, std::error_code, outcome_v2::policy::error_code_throw_as_system_error<NonTrivialType, std::error_code, std::__exception_ptr::exception_ptr> >, NonTrivialType, std::error_code, std::__exception_ptr::exception_ptr, outcome_v2::policy::error_code_throw_as_system_error<NonTrivialType, std::error_code, std::__exception_ptr::exception_ptr>, void>',
                                       'NameSpace' => 'outcome_v2::detail',
                                       'Size' => '32',
                                       'TParam' => {
                                                     '0' => {
                                                              'key' => 'Base',
                                                              'type' => '41401'
                                                            },
                                                     '1' => {
                                                              'key' => 'R',
                                                              'type' => '47202'
                                                            },
                                                     '2' => {
                                                              'key' => 'S',
                                                              'type' => '25108'
                                                            },
                                                     '3' => {
                                                              'key' => 'P',
                                                              'type' => '1679'
                                                            },
                                                     '4' => {
                                                              'key' => 'NoValuePolicy',
                                                              'type' => '42503'
                                                            },
                                                     '5' => {
                                                              'key' => 'FailureImpl',
                                                              'type' => '1'
                                                            }
                                                   },
                                       'Type' => 'Class'
                                     },
                          '42048' => {
                                       'BaseType' => '41698',
                                       'Name' => 'outcome_v2::detail::basic_outcome_exception_observers<outcome_v2::detail::basic_result_final<NonTrivialType, std::error_code, outcome_v2::policy::error_code_throw_as_system_error<NonTrivialType, std::error_code, std::__exception_ptr::exception_ptr> >, NonTrivialType, std::error_code, std::__exception_ptr::exception_ptr, outcome_v2::policy::error_code_throw_as_system_error<NonTrivialType, std::error_code, std::__exception_ptr::exception_ptr>, void>const',
                                       'Size' => '32',
                                       'Type' => 'Const'
                                     },
                          '42053' => {
                                       'Base' => {
                                                   '41698' => {
                                                                'pos' => '0'
                                                              }
                                                 },
                                       'Header' => 'basic_outcome_exception_observers.hpp',
                                       'Line' => '96',
                                       'Name' => 'outcome_v2::detail::basic_outcome_exception_observers<outcome_v2::detail::basic_result_final<NonTrivialType, std::error_code, outcome_v2::policy::error_code_throw_as_system_error<NonTrivialType, std::error_code, std::__exception_ptr::exception_ptr> >, NonTrivialType, std::error_code, std::__exception_ptr::exception_ptr, outcome_v2::policy::error_code_throw_as_system_error<NonTrivialType, std::error_code, std::__exception_ptr::exception_ptr>, std::__exception_ptr::exception_ptr>',
                                       'NameSpace' => 'outcome_v2::detail',
                                       'Size' => '32',
                                       'TParam' => {
                                                     '0' => {
                                                              'key' => 'Base',
                                                              'type' => '41401'
                                                            },
                                                     '1' => {
                                                              'key' => 'R',
                                                              'type' => '47202'
                                                            },
                                                     '2' => {
                                                              'key' => 'S',
                                                              'type' => '25108'
                                                            },
                                                     '3' => {
                                                              'key' => 'P',
                                                              'type' => '1679'
                                                            },
                                                     '4' => {
                                                              'key' => 'NoValuePolicy',
                                                              'type' => '42503'
                                                            },
                                                     '5' => {
                                                              'key' => 'FailureImpl',
                                                              'type' => '1679'
                                                            }
                                                   },
                                       'Type' => 'Class'
                                     },
                          '42192' => {
                                       'BaseType' => '42053',
                                       'Name' => 'outcome_v2::detail::basic_outcome_exception_observers<outcome_v2::detail::basic_result_final<NonTrivialType, std::error_code, outcome_v2::policy::error_code_throw_as_system_error<NonTrivialType, std::error_code, std::__exception_ptr::exception_ptr> >, NonTrivialType, std::error_code, std::__exception_ptr::exception_ptr, outcome_v2::policy::error_code_throw_as_system_error<NonTrivialType, std::error_code, std::__exception_ptr::exception_ptr>, std::__exception_ptr::exception_ptr>const',
                                       'Size' => '32',
                                       'Type' => 'Const'
                                     },
                          '42493' => {
                                       'Name' => 'struct outcome_v2::policy::error_code_throw_as_system_error<NonTrivialType, std::error_code, void>',
                                       'NameSpace' => 'outcome_v2::policy',
                                       'TParam' => {
                                                     '0' => {
                                                              'type' => '47202'
                                                            },
                                                     '1' => {
                                                              'type' => '25108'
                                                            },
                                                     '2' => {
                                                              'name' => 'void'
                                                            }
                                                   },
                                       'Type' => 'Struct'
                                     },
                          '42503' => {
                                       'Name' => 'struct outcome_v2::policy::error_code_throw_as_system_error<NonTrivialType, std::error_code, std::__exception_ptr::exception_ptr>',
                                       'NameSpace' => 'outcome_v2::policy',
                                       'TParam' => {
                                                     '0' => {
                                                              'type' => '47202'
                                                            },
                                                     '1' => {
                                                              'type' => '25108'
                                                            },
                                                     '2' => {
                                                              'type' => '1679'
                                                            }
                                                   },
                                       'Type' => 'Struct'
                                     },
                          '42993' => {
                                       'Base' => {
                                                   '38462' => {
                                                                'pos' => '0'
                                                              }
                                                 },
                                       'Header' => 'basic_result.hpp',
                                       'Line' => '183',
                                       'Name' => 'outcome_v2::basic_result<NonTrivialType, std::error_code, outcome_v2::policy::error_code_throw_as_system_error<NonTrivialType, std::error_code, void> >',
                                       'NameSpace' => 'outcome_v2',
                                       'Size' => '32',
                                       'TParam' => {
                                                     '0' => {
                                                              'key' => 'R',
                                                              'type' => '47202'
                                                            },
                                                     '1' => {
                                                              'key' => 'S',
                                                              'type' => '25108'
                                                            },
                                                     '2' => {
                                                              'key' => 'NoValuePolicy',
                                                              'type' => '42493'
                                                            }
                                                   },
                                       'Type' => 'Class'
                                     },
                          '43357' => {
                                       'BaseType' => '42993',
                                       'Name' => 'outcome_v2::basic_result<NonTrivialType, std::error_code, outcome_v2::policy::error_code_throw_as_system_error<NonTrivialType, std::error_code, void> >const',
                                       'Size' => '32',
                                       'Type' => 'Const'
                                     },
                          '43591' => {
                                       'Base' => {
                                                   '42053' => {
                                                                'pos' => '0'
                                                              }
                                                 },
                                       'Header' => 'basic_outcome.hpp',
                                       'Line' => '191',
                                       'Memb' => {
                                                   '0' => {
                                                            'access' => 'protected',
                                                            'name' => '_ptr',
                                                            'offset' => '32',
                                                            'type' => '34964'
                                                          }
                                                 },
                                       'Name' => 'outcome_v2::basic_outcome<NonTrivialType, std::error_code, std::__exception_ptr::exception_ptr, outcome_v2::policy::error_code_throw_as_system_error<NonTrivialType, std::error_code, std::__exception_ptr::exception_ptr> >',
                                       'NameSpace' => 'outcome_v2',
                                       'Size' => '40',
                                       'TParam' => {
                                                     '0' => {
                                                              'key' => 'R',
                                                              'type' => '47202'
                                                            },
                                                     '1' => {
                                                              'key' => 'S',
                                                              'type' => '25108'
                                                            },
                                                     '2' => {
                                                              'key' => 'P',
                                                              'type' => '1679'
                                                            },
                                                     '3' => {
                                                              'key' => 'NoValuePolicy',
                                                              'type' => '42503'
                                                            }
                                                   },
                                       'Type' => 'Class'
                                     },
                          '43810' => {
                                       'BaseType' => '43591',
                                       'Name' => 'outcome_v2::basic_outcome<NonTrivialType, std::error_code, std::__exception_ptr::exception_ptr, outcome_v2::policy::error_code_throw_as_system_error<NonTrivialType, std::error_code, std::__exception_ptr::exception_ptr> >const',
                                       'Size' => '40',
                                       'Type' => 'Const'
                                     },
                          '43919' => {
                                       'BaseType' => '43930',
                                       'Header' => 'outcome.hpp',
                                       'Line' => '36',
                                       'Name' => 'outcome_v2::outcome',
                                       'NameSpace' => 'outcome_v2',
                                       'Size' => '40',
                                       'Type' => 'Typedef'
                                     },
                          '43930' => {
                                       'BaseType' => '43591',
                                       'Header' => 'std_outcome.hpp',
                                       'Line' => '70',
                                       'Name' => 'outcome_v2::std_outcome',
                                       'NameSpace' => 'outcome_v2',
                                       'Size' => '40',
                                       'Type' => 'Typedef'
                                     },
                          '43963' => {
                                       'BaseType' => '43974',
                                       'Header' => 'result.hpp',
                                       'Line' => '35',
                                       'Name' => 'outcome_v2::result',
                                       'NameSpace' => 'outcome_v2',
                                       'Size' => '32',
                                       'Type' => 'Typedef'
                                     },
                          '43974' => {
                                       'BaseType' => '42993',
                                       'Header' => 'std_result.hpp',
                                       'Line' => '71',
                                       'Name' => 'outcome_v2::std_result',
                                       'NameSpace' => 'outcome_v2',
                                       'Size' => '32',
                                       'Type' => 'Typedef'
                                     },
                          '47023' => {
                                       'BaseType' => '25095',
                                       'Name' => 'std::_V2::error_category const*',
                                       'Size' => '8',
                                       'Type' => 'Pointer'
                                     },
                          '47202' => {
                                       'Line' => '28',
                                       'Memb' => {
                                                   '0' => {
                                                            'name' => 'foo',
                                                            'offset' => '0',
                                                            'type' => '27164'
                                                          }
                                                 },
                                       'Name' => 'struct NonTrivialType',
                                       'Size' => '8',
                                       'Source' => 'main.cpp',
                                       'Type' => 'Struct'
                                     },
                          '47469' => {
                                       'BaseType' => '34975',
                                       'Name' => 'struct outcome_v2::detail::value_storage_trivial<int>&',
                                       'Size' => '8',
                                       'Type' => 'Ref'
                                     },
                          '47480' => {
                                       'BaseType' => '35349',
                                       'Name' => 'struct outcome_v2::detail::value_storage_nontrivial<NonTrivialType>*',
                                       'Size' => '8',
                                       'Type' => 'Pointer'
                                     },
                          '47486' => {
                                       'BaseType' => '47480',
                                       'Name' => 'struct outcome_v2::detail::value_storage_nontrivial<NonTrivialType>*const',
                                       'Size' => '8',
                                       'Type' => 'Const'
                                     },
                          '47491' => {
                                       'BaseType' => '35349',
                                       'Name' => 'struct outcome_v2::detail::value_storage_nontrivial<NonTrivialType>&',
                                       'Size' => '8',
                                       'Type' => 'Ref'
                                     },
                          '47502' => {
                                       'BaseType' => '35702',
                                       'Name' => 'struct outcome_v2::detail::value_storage_nontrivial<NonTrivialType>const&',
                                       'Size' => '8',
                                       'Type' => 'Ref'
                                     },
                          '47754' => {
                                       'BaseType' => '37443',
                                       'Name' => 'outcome_v2::detail::basic_result_storage<NonTrivialType, std::error_code, outcome_v2::policy::error_code_throw_as_system_error<NonTrivialType, std::error_code, void> >*',
                                       'Size' => '8',
                                       'Type' => 'Pointer'
                                     },
                          '47760' => {
                                       'BaseType' => '47754',
                                       'Name' => 'outcome_v2::detail::basic_result_storage<NonTrivialType, std::error_code, outcome_v2::policy::error_code_throw_as_system_error<NonTrivialType, std::error_code, void> >*const',
                                       'Size' => '8',
                                       'Type' => 'Const'
                                     },
                          '47777' => {
                                       'BaseType' => '37755',
                                       'Name' => 'outcome_v2::detail::basic_result_storage<NonTrivialType, std::error_code, outcome_v2::policy::error_code_throw_as_system_error<NonTrivialType, std::error_code, void> >const&',
                                       'Size' => '8',
                                       'Type' => 'Ref'
                                     },
                          '47806' => {
                                       'BaseType' => '37789',
                                       'Name' => 'outcome_v2::detail::basic_result_value_observers<outcome_v2::detail::basic_result_storage<NonTrivialType, std::error_code, outcome_v2::policy::error_code_throw_as_system_error<NonTrivialType, std::error_code, void> >, NonTrivialType, outcome_v2::policy::error_code_throw_as_system_error<NonTrivialType, std::error_code, void> >*',
                                       'Size' => '8',
                                       'Type' => 'Pointer'
                                     },
                          '47812' => {
                                       'BaseType' => '47806',
                                       'Name' => 'outcome_v2::detail::basic_result_value_observers<outcome_v2::detail::basic_result_storage<NonTrivialType, std::error_code, outcome_v2::policy::error_code_throw_as_system_error<NonTrivialType, std::error_code, void> >, NonTrivialType, outcome_v2::policy::error_code_throw_as_system_error<NonTrivialType, std::error_code, void> >*const',
                                       'Size' => '8',
                                       'Type' => 'Const'
                                     },
                          '47847' => {
                                       'BaseType' => '38125',
                                       'Name' => 'outcome_v2::detail::basic_result_error_observers<outcome_v2::detail::basic_result_value_observers<outcome_v2::detail::basic_result_storage<NonTrivialType, std::error_code, outcome_v2::policy::error_code_throw_as_system_error<NonTrivialType, std::error_code, void> >, NonTrivialType, outcome_v2::policy::error_code_throw_as_system_error<NonTrivialType, std::error_code, void> >, std::error_code, outcome_v2::policy::error_code_throw_as_system_error<NonTrivialType, std::error_code, void> >*',
                                       'Size' => '8',
                                       'Type' => 'Pointer'
                                     },
                          '47853' => {
                                       'BaseType' => '47847',
                                       'Name' => 'outcome_v2::detail::basic_result_error_observers<outcome_v2::detail::basic_result_value_observers<outcome_v2::detail::basic_result_storage<NonTrivialType, std::error_code, outcome_v2::policy::error_code_throw_as_system_error<NonTrivialType, std::error_code, void> >, NonTrivialType, outcome_v2::policy::error_code_throw_as_system_error<NonTrivialType, std::error_code, void> >, std::error_code, outcome_v2::policy::error_code_throw_as_system_error<NonTrivialType, std::error_code, void> >*const',
                                       'Size' => '8',
                                       'Type' => 'Const'
                                     },
                          '47888' => {
                                       'BaseType' => '42993',
                                       'Name' => 'outcome_v2::basic_result<NonTrivialType, std::error_code, outcome_v2::policy::error_code_throw_as_system_error<NonTrivialType, std::error_code, void> >*',
                                       'Size' => '8',
                                       'Type' => 'Pointer'
                                     },
                          '47894' => {
                                       'BaseType' => '47888',
                                       'Name' => 'outcome_v2::basic_result<NonTrivialType, std::error_code, outcome_v2::policy::error_code_throw_as_system_error<NonTrivialType, std::error_code, void> >*const',
                                       'Size' => '8',
                                       'Type' => 'Const'
                                     },
                          '47905' => {
                                       'BaseType' => '43357',
                                       'Name' => 'outcome_v2::basic_result<NonTrivialType, std::error_code, outcome_v2::policy::error_code_throw_as_system_error<NonTrivialType, std::error_code, void> >const&',
                                       'Size' => '8',
                                       'Type' => 'Ref'
                                     },
                          '48101' => {
                                       'BaseType' => '40411',
                                       'Name' => 'outcome_v2::detail::basic_result_storage<NonTrivialType, std::error_code, outcome_v2::policy::error_code_throw_as_system_error<NonTrivialType, std::error_code, std::__exception_ptr::exception_ptr> >*',
                                       'Size' => '8',
                                       'Type' => 'Pointer'
                                     },
                          '48107' => {
                                       'BaseType' => '48101',
                                       'Name' => 'outcome_v2::detail::basic_result_storage<NonTrivialType, std::error_code, outcome_v2::policy::error_code_throw_as_system_error<NonTrivialType, std::error_code, std::__exception_ptr::exception_ptr> >*const',
                                       'Size' => '8',
                                       'Type' => 'Const'
                                     },
                          '48118' => {
                                       'BaseType' => '40723',
                                       'Name' => 'outcome_v2::detail::basic_result_storage<NonTrivialType, std::error_code, outcome_v2::policy::error_code_throw_as_system_error<NonTrivialType, std::error_code, std::__exception_ptr::exception_ptr> >const&',
                                       'Size' => '8',
                                       'Type' => 'Ref'
                                     },
                          '48147' => {
                                       'BaseType' => '40728',
                                       'Name' => 'outcome_v2::detail::basic_result_value_observers<outcome_v2::detail::basic_result_storage<NonTrivialType, std::error_code, outcome_v2::policy::error_code_throw_as_system_error<NonTrivialType, std::error_code, std::__exception_ptr::exception_ptr> >, NonTrivialType, outcome_v2::policy::error_code_throw_as_system_error<NonTrivialType, std::error_code, std::__exception_ptr::exception_ptr> >*',
                                       'Size' => '8',
                                       'Type' => 'Pointer'
                                     },
                          '48153' => {
                                       'BaseType' => '48147',
                                       'Name' => 'outcome_v2::detail::basic_result_value_observers<outcome_v2::detail::basic_result_storage<NonTrivialType, std::error_code, outcome_v2::policy::error_code_throw_as_system_error<NonTrivialType, std::error_code, std::__exception_ptr::exception_ptr> >, NonTrivialType, outcome_v2::policy::error_code_throw_as_system_error<NonTrivialType, std::error_code, std::__exception_ptr::exception_ptr> >*const',
                                       'Size' => '8',
                                       'Type' => 'Const'
                                     },
                          '48188' => {
                                       'BaseType' => '41064',
                                       'Name' => 'outcome_v2::detail::basic_result_error_observers<outcome_v2::detail::basic_result_value_observers<outcome_v2::detail::basic_result_storage<NonTrivialType, std::error_code, outcome_v2::policy::error_code_throw_as_system_error<NonTrivialType, std::error_code, std::__exception_ptr::exception_ptr> >, NonTrivialType, outcome_v2::policy::error_code_throw_as_system_error<NonTrivialType, std::error_code, std::__exception_ptr::exception_ptr> >, std::error_code, outcome_v2::policy::error_code_throw_as_system_error<NonTrivialType, std::error_code, std::__exception_ptr::exception_ptr> >*',
                                       'Size' => '8',
                                       'Type' => 'Pointer'
                                     },
                          '48194' => {
                                       'BaseType' => '48188',
                                       'Name' => 'outcome_v2::detail::basic_result_error_observers<outcome_v2::detail::basic_result_value_observers<outcome_v2::detail::basic_result_storage<NonTrivialType, std::error_code, outcome_v2::policy::error_code_throw_as_system_error<NonTrivialType, std::error_code, std::__exception_ptr::exception_ptr> >, NonTrivialType, outcome_v2::policy::error_code_throw_as_system_error<NonTrivialType, std::error_code, std::__exception_ptr::exception_ptr> >, std::error_code, outcome_v2::policy::error_code_throw_as_system_error<NonTrivialType, std::error_code, std::__exception_ptr::exception_ptr> >*const',
                                       'Size' => '8',
                                       'Type' => 'Const'
                                     },
                          '48235' => {
                                       'BaseType' => '41698',
                                       'Name' => 'outcome_v2::detail::basic_outcome_exception_observers<outcome_v2::detail::basic_result_final<NonTrivialType, std::error_code, outcome_v2::policy::error_code_throw_as_system_error<NonTrivialType, std::error_code, std::__exception_ptr::exception_ptr> >, NonTrivialType, std::error_code, std::__exception_ptr::exception_ptr, outcome_v2::policy::error_code_throw_as_system_error<NonTrivialType, std::error_code, std::__exception_ptr::exception_ptr>, void>*',
                                       'Size' => '8',
                                       'Type' => 'Pointer'
                                     },
                          '48241' => {
                                       'BaseType' => '48235',
                                       'Name' => 'outcome_v2::detail::basic_outcome_exception_observers<outcome_v2::detail::basic_result_final<NonTrivialType, std::error_code, outcome_v2::policy::error_code_throw_as_system_error<NonTrivialType, std::error_code, std::__exception_ptr::exception_ptr> >, NonTrivialType, std::error_code, std::__exception_ptr::exception_ptr, outcome_v2::policy::error_code_throw_as_system_error<NonTrivialType, std::error_code, std::__exception_ptr::exception_ptr>, void>*const',
                                       'Size' => '8',
                                       'Type' => 'Const'
                                     },
                          '48276' => {
                                       'BaseType' => '43591',
                                       'Name' => 'outcome_v2::basic_outcome<NonTrivialType, std::error_code, std::__exception_ptr::exception_ptr, outcome_v2::policy::error_code_throw_as_system_error<NonTrivialType, std::error_code, std::__exception_ptr::exception_ptr> >*',
                                       'Size' => '8',
                                       'Type' => 'Pointer'
                                     },
                          '48282' => {
                                       'BaseType' => '48276',
                                       'Name' => 'outcome_v2::basic_outcome<NonTrivialType, std::error_code, std::__exception_ptr::exception_ptr, outcome_v2::policy::error_code_throw_as_system_error<NonTrivialType, std::error_code, std::__exception_ptr::exception_ptr> >*const',
                                       'Size' => '8',
                                       'Type' => 'Const'
                                     },
                          '49680' => {
                                       'BaseType' => '43919',
                                       'Name' => 'outcome_v2::outcome&',
                                       'Size' => '8',
                                       'Type' => 'Ref'
                                     },
                          '49691' => {
                                       'BaseType' => '43810',
                                       'Name' => 'outcome_v2::basic_outcome<NonTrivialType, std::error_code, std::__exception_ptr::exception_ptr, outcome_v2::policy::error_code_throw_as_system_error<NonTrivialType, std::error_code, std::__exception_ptr::exception_ptr> >const&',
                                       'Size' => '8',
                                       'Type' => 'Ref'
                                     },
                          '49766' => {
                                       'BaseType' => '42053',
                                       'Name' => 'outcome_v2::detail::basic_outcome_exception_observers<outcome_v2::detail::basic_result_final<NonTrivialType, std::error_code, outcome_v2::policy::error_code_throw_as_system_error<NonTrivialType, std::error_code, std::__exception_ptr::exception_ptr> >, NonTrivialType, std::error_code, std::__exception_ptr::exception_ptr, outcome_v2::policy::error_code_throw_as_system_error<NonTrivialType, std::error_code, std::__exception_ptr::exception_ptr>, std::__exception_ptr::exception_ptr>*',
                                       'Size' => '8',
                                       'Type' => 'Pointer'
                                     },
                          '49772' => {
                                       'BaseType' => '49766',
                                       'Name' => 'outcome_v2::detail::basic_outcome_exception_observers<outcome_v2::detail::basic_result_final<NonTrivialType, std::error_code, outcome_v2::policy::error_code_throw_as_system_error<NonTrivialType, std::error_code, std::__exception_ptr::exception_ptr> >, NonTrivialType, std::error_code, std::__exception_ptr::exception_ptr, outcome_v2::policy::error_code_throw_as_system_error<NonTrivialType, std::error_code, std::__exception_ptr::exception_ptr>, std::__exception_ptr::exception_ptr>*const',
                                       'Size' => '8',
                                       'Type' => 'Const'
                                     },
                          '49777' => {
                                       'BaseType' => '42192',
                                       'Name' => 'outcome_v2::detail::basic_outcome_exception_observers<outcome_v2::detail::basic_result_final<NonTrivialType, std::error_code, outcome_v2::policy::error_code_throw_as_system_error<NonTrivialType, std::error_code, std::__exception_ptr::exception_ptr> >, NonTrivialType, std::error_code, std::__exception_ptr::exception_ptr, outcome_v2::policy::error_code_throw_as_system_error<NonTrivialType, std::error_code, std::__exception_ptr::exception_ptr>, std::__exception_ptr::exception_ptr>const&',
                                       'Size' => '8',
                                       'Type' => 'Ref'
                                     },
                          '49852' => {
                                       'BaseType' => '42048',
                                       'Name' => 'outcome_v2::detail::basic_outcome_exception_observers<outcome_v2::detail::basic_result_final<NonTrivialType, std::error_code, outcome_v2::policy::error_code_throw_as_system_error<NonTrivialType, std::error_code, std::__exception_ptr::exception_ptr> >, NonTrivialType, std::error_code, std::__exception_ptr::exception_ptr, outcome_v2::policy::error_code_throw_as_system_error<NonTrivialType, std::error_code, std::__exception_ptr::exception_ptr>, void>const&',
                                       'Size' => '8',
                                       'Type' => 'Ref'
                                     },
                          '49927' => {
                                       'BaseType' => '41401',
                                       'Name' => 'outcome_v2::detail::basic_result_final<NonTrivialType, std::error_code, outcome_v2::policy::error_code_throw_as_system_error<NonTrivialType, std::error_code, std::__exception_ptr::exception_ptr> >*',
                                       'Size' => '8',
                                       'Type' => 'Pointer'
                                     },
                          '49933' => {
                                       'BaseType' => '49927',
                                       'Name' => 'outcome_v2::detail::basic_result_final<NonTrivialType, std::error_code, outcome_v2::policy::error_code_throw_as_system_error<NonTrivialType, std::error_code, std::__exception_ptr::exception_ptr> >*const',
                                       'Size' => '8',
                                       'Type' => 'Const'
                                     },
                          '49938' => {
                                       'BaseType' => '41693',
                                       'Name' => 'outcome_v2::detail::basic_result_final<NonTrivialType, std::error_code, outcome_v2::policy::error_code_throw_as_system_error<NonTrivialType, std::error_code, std::__exception_ptr::exception_ptr> >const&',
                                       'Size' => '8',
                                       'Type' => 'Ref'
                                     },
                          '50013' => {
                                       'BaseType' => '41396',
                                       'Name' => 'outcome_v2::detail::basic_result_error_observers<outcome_v2::detail::basic_result_value_observers<outcome_v2::detail::basic_result_storage<NonTrivialType, std::error_code, outcome_v2::policy::error_code_throw_as_system_error<NonTrivialType, std::error_code, std::__exception_ptr::exception_ptr> >, NonTrivialType, outcome_v2::policy::error_code_throw_as_system_error<NonTrivialType, std::error_code, std::__exception_ptr::exception_ptr> >, std::error_code, outcome_v2::policy::error_code_throw_as_system_error<NonTrivialType, std::error_code, std::__exception_ptr::exception_ptr> >const&',
                                       'Size' => '8',
                                       'Type' => 'Ref'
                                     },
                          '50088' => {
                                       'BaseType' => '41059',
                                       'Name' => 'outcome_v2::detail::basic_result_value_observers<outcome_v2::detail::basic_result_storage<NonTrivialType, std::error_code, outcome_v2::policy::error_code_throw_as_system_error<NonTrivialType, std::error_code, std::__exception_ptr::exception_ptr> >, NonTrivialType, outcome_v2::policy::error_code_throw_as_system_error<NonTrivialType, std::error_code, std::__exception_ptr::exception_ptr> >const&',
                                       'Size' => '8',
                                       'Type' => 'Ref'
                                     },
                          '50854' => {
                                       'BaseType' => '43963',
                                       'Name' => 'outcome_v2::result&',
                                       'Size' => '8',
                                       'Type' => 'Ref'
                                     },
                          '50927' => {
                                       'BaseType' => '38462',
                                       'Name' => 'outcome_v2::detail::basic_result_final<NonTrivialType, std::error_code, outcome_v2::policy::error_code_throw_as_system_error<NonTrivialType, std::error_code, void> >*',
                                       'Size' => '8',
                                       'Type' => 'Pointer'
                                     },
                          '50933' => {
                                       'BaseType' => '50927',
                                       'Name' => 'outcome_v2::detail::basic_result_final<NonTrivialType, std::error_code, outcome_v2::policy::error_code_throw_as_system_error<NonTrivialType, std::error_code, void> >*const',
                                       'Size' => '8',
                                       'Type' => 'Const'
                                     },
                          '50938' => {
                                       'BaseType' => '38754',
                                       'Name' => 'outcome_v2::detail::basic_result_final<NonTrivialType, std::error_code, outcome_v2::policy::error_code_throw_as_system_error<NonTrivialType, std::error_code, void> >const&',
                                       'Size' => '8',
                                       'Type' => 'Ref'
                                     },
                          '51013' => {
                                       'BaseType' => '38457',
                                       'Name' => 'outcome_v2::detail::basic_result_error_observers<outcome_v2::detail::basic_result_value_observers<outcome_v2::detail::basic_result_storage<NonTrivialType, std::error_code, outcome_v2::policy::error_code_throw_as_system_error<NonTrivialType, std::error_code, void> >, NonTrivialType, outcome_v2::policy::error_code_throw_as_system_error<NonTrivialType, std::error_code, void> >, std::error_code, outcome_v2::policy::error_code_throw_as_system_error<NonTrivialType, std::error_code, void> >const&',
                                       'Size' => '8',
                                       'Type' => 'Ref'
                                     },
                          '51088' => {
                                       'BaseType' => '38120',
                                       'Name' => 'outcome_v2::detail::basic_result_value_observers<outcome_v2::detail::basic_result_storage<NonTrivialType, std::error_code, outcome_v2::policy::error_code_throw_as_system_error<NonTrivialType, std::error_code, void> >, NonTrivialType, outcome_v2::policy::error_code_throw_as_system_error<NonTrivialType, std::error_code, void> >const&',
                                       'Size' => '8',
                                       'Type' => 'Ref'
                                     },
                          '93' => {
                                    'Name' => 'int',
                                    'Size' => '4',
                                    'Type' => 'Intrinsic'
                                  }
                        },
          'UndefinedSymbols' => {
                                  'liboutcome-abi-lib.so' => {
                                                               '_ITM_deregisterTMCloneTable' => 0,
                                                               '_ITM_registerTMCloneTable' => 0,
                                                               '_Jv_RegisterClasses' => 0,
                                                               '_ZNSt15__exception_ptr13exception_ptrC1ERKS0_@CXXABI_1.3.3' => 0,
                                                               '_ZNSt8ios_base4InitC1Ev@GLIBCXX_3.4' => 0,
                                                               '_ZNSt8ios_base4InitD1Ev@GLIBCXX_3.4' => 0,
                                                               '__cxa_atexit@GLIBC_2.2.5' => 0,
                                                               '__cxa_finalize@GLIBC_2.2.5' => 0,
                                                               '__gmon_start__' => 0
                                                             }
                                },
          'WordSize' => '8'
        };
