$VAR1 = {
          'ABI_DUMPER_VERSION' => '1.1',
          'ABI_DUMP_VERSION' => '3.5',
          'Arch' => 'x86_64',
          'Compiler' => 'GNU C++17 9.3.0 -mtune=generic -march=x86-64 -g -std=gnu++17 -fPIC -fconcepts -fasynchronous-unwind-tables -fstack-protector-strong -fstack-clash-protection -fcf-protection',
          'Headers' => {},
          'Language' => 'C++',
          'LibraryName' => 'liboutcome-abi-lib-gcc9-cxx17.so',
          'LibraryVersion' => '2.2-gcc9-cxx17',
          'MissedOffsets' => '1',
          'MissedRegs' => '1',
          'NameSpaces' => {
                            '__gnu_cxx' => 1,
                            'outcome_v2' => 1,
                            'outcome_v2::convert' => 1,
                            'outcome_v2::detail' => 1,
                            'outcome_v2::policy' => 1,
                            'outcome_v2::trait' => 1,
                            'outcome_v2::trait::detail' => 1,
                            'outcome_v2::trait::detail::detector_impl' => 1,
                            'std' => 1,
                            'std::__exception_ptr' => 1
                          },
          'Needed' => {
                        'libc.so.6' => 1
                      },
          'Sources' => {},
          'SymbolInfo' => {
                            '25252' => {
                                         'Artificial' => 1,
                                         'Class' => '13057',
                                         'Constructor' => 1,
                                         'Header' => undef,
                                         'InLine' => 1,
                                         'Line' => '2473',
                                         'MnglName' => '_ZN10outcome_v26detail24value_storage_nontrivialI14NonTrivialTypelEC2ERKS3_',
                                         'Param' => {
                                                      '0' => {
                                                               'name' => 'this',
                                                               'type' => '23323'
                                                             },
                                                      '1' => {
                                                               'name' => 'o',
                                                               'type' => '23334'
                                                             }
                                                    },
                                         'ShortName' => 'value_storage_nontrivial'
                                       },
                            '25253' => {
                                         'Artificial' => 1,
                                         'Class' => '13057',
                                         'Constructor' => 1,
                                         'Header' => undef,
                                         'InLine' => 1,
                                         'Line' => '2473',
                                         'MnglName' => '_ZN10outcome_v26detail24value_storage_nontrivialI14NonTrivialTypelEC1ERKS3_',
                                         'Param' => {
                                                      '0' => {
                                                               'name' => 'this',
                                                               'type' => '23323'
                                                             },
                                                      '1' => {
                                                               'name' => 'o',
                                                               'type' => '23334'
                                                             }
                                                    },
                                         'ShortName' => 'value_storage_nontrivial'
                                       },
                            '25339' => {
                                         'Artificial' => 1,
                                         'Class' => '11037',
                                         'Constructor' => 1,
                                         'Header' => undef,
                                         'InLine' => 1,
                                         'Line' => '2473',
                                         'MnglName' => '_ZN10outcome_v26detail24value_storage_nontrivialI14NonTrivialTypeiEC2ERKS3_',
                                         'Param' => {
                                                      '0' => {
                                                               'name' => 'this',
                                                               'type' => '23044'
                                                             },
                                                      '1' => {
                                                               'name' => 'o',
                                                               'type' => '23055'
                                                             }
                                                    },
                                         'ShortName' => 'value_storage_nontrivial'
                                       },
                            '25340' => {
                                         'Artificial' => 1,
                                         'Class' => '11037',
                                         'Constructor' => 1,
                                         'Header' => undef,
                                         'InLine' => 1,
                                         'Line' => '2473',
                                         'MnglName' => '_ZN10outcome_v26detail24value_storage_nontrivialI14NonTrivialTypeiEC1ERKS3_',
                                         'Param' => {
                                                      '0' => {
                                                               'name' => 'this',
                                                               'type' => '23044'
                                                             },
                                                      '1' => {
                                                               'name' => 'o',
                                                               'type' => '23055'
                                                             }
                                                    },
                                         'ShortName' => 'value_storage_nontrivial'
                                       },
                            '25415' => {
                                         'Artificial' => 1,
                                         'Class' => '6444',
                                         'Constructor' => 1,
                                         'Header' => undef,
                                         'InLine' => 1,
                                         'Line' => '2166',
                                         'MnglName' => '_ZN10outcome_v26detail20status_bitfield_typeC2Ev',
                                         'Param' => {
                                                      '0' => {
                                                               'name' => 'this',
                                                               'type' => '20872'
                                                             }
                                                    },
                                         'ShortName' => 'status_bitfield_type'
                                       },
                            '25416' => {
                                         'Artificial' => 1,
                                         'Class' => '6444',
                                         'Constructor' => 1,
                                         'Header' => undef,
                                         'InLine' => 1,
                                         'Line' => '2166',
                                         'MnglName' => '_ZN10outcome_v26detail20status_bitfield_typeC1Ev',
                                         'Param' => {
                                                      '0' => {
                                                               'name' => 'this',
                                                               'type' => '20872'
                                                             }
                                                    },
                                         'ShortName' => 'status_bitfield_type'
                                       },
                            '25471' => {
                                         'Header' => undef,
                                         'Line' => '79',
                                         'MnglName' => '_Z22outcome_NonTrivialTypeRN10outcome_v213basic_outcomeI14NonTrivialTypeldNS_6policy9terminateEEE',
                                         'Param' => {
                                                      '0' => {
                                                               'name' => 'v',
                                                               'type' => '25523'
                                                             }
                                                    },
                                         'Return' => '25459',
                                         'ShortName' => 'outcome_NonTrivialType'
                                       },
                            '25568' => {
                                         'Artificial' => 1,
                                         'Class' => '20418',
                                         'Constructor' => 1,
                                         'Header' => undef,
                                         'InLine' => 1,
                                         'Line' => '4937',
                                         'MnglName' => '_ZN10outcome_v213basic_outcomeI14NonTrivialTypeldNS_6policy9terminateEEC2ERKS4_',
                                         'Param' => {
                                                      '0' => {
                                                               'name' => 'this',
                                                               'type' => '23905'
                                                             },
                                                      '1' => {
                                                               'name' => 'p1',
                                                               'type' => '25529'
                                                             }
                                                    },
                                         'ShortName' => 'basic_outcome'
                                       },
                            '25569' => {
                                         'Artificial' => 1,
                                         'Class' => '20418',
                                         'Constructor' => 1,
                                         'Header' => undef,
                                         'InLine' => 1,
                                         'Line' => '4937',
                                         'MnglName' => '_ZN10outcome_v213basic_outcomeI14NonTrivialTypeldNS_6policy9terminateEEC1ERKS4_',
                                         'Param' => {
                                                      '0' => {
                                                               'name' => 'this',
                                                               'type' => '23905'
                                                             },
                                                      '1' => {
                                                               'name' => 'p1',
                                                               'type' => '25529'
                                                             }
                                                    },
                                         'ShortName' => 'basic_outcome'
                                       },
                            '25659' => {
                                         'Artificial' => 1,
                                         'Class' => '16123',
                                         'Constructor' => 1,
                                         'Header' => undef,
                                         'InLine' => 1,
                                         'Line' => '4651',
                                         'MnglName' => '_ZN10outcome_v26detail33basic_outcome_exception_observersINS0_18basic_result_finalI14NonTrivialTypelNS_6policy9terminateEEES3_ldS5_EC2ERKS7_',
                                         'Param' => {
                                                      '0' => {
                                                               'name' => 'this',
                                                               'type' => '23820'
                                                             },
                                                      '1' => {
                                                               'name' => 'p1',
                                                               'type' => '25620'
                                                             }
                                                    },
                                         'ShortName' => 'basic_outcome_exception_observers'
                                       },
                            '25660' => {
                                         'Artificial' => 1,
                                         'Class' => '16123',
                                         'Constructor' => 1,
                                         'Header' => undef,
                                         'InLine' => 1,
                                         'Line' => '4651',
                                         'MnglName' => '_ZN10outcome_v26detail33basic_outcome_exception_observersINS0_18basic_result_finalI14NonTrivialTypelNS_6policy9terminateEEES3_ldS5_EC1ERKS7_',
                                         'Param' => {
                                                      '0' => {
                                                               'name' => 'this',
                                                               'type' => '23820'
                                                             },
                                                      '1' => {
                                                               'name' => 'p1',
                                                               'type' => '25620'
                                                             }
                                                    },
                                         'ShortName' => 'basic_outcome_exception_observers'
                                       },
                            '25723' => {
                                         'Header' => undef,
                                         'Line' => '74',
                                         'MnglName' => '_Z11outcome_intRN10outcome_v213basic_outcomeIildNS_6policy9terminateEEE',
                                         'Param' => {
                                                      '0' => {
                                                               'name' => 'v',
                                                               'type' => '25523'
                                                             }
                                                    },
                                         'Return' => '25459',
                                         'ShortName' => 'outcome_int'
                                       },
                            '25793' => {
                                         'Header' => undef,
                                         'Line' => '69',
                                         'MnglName' => '_Z21result_NonTrivialTypeRN10outcome_v212basic_resultI14NonTrivialTypelNS_6policy9terminateEEE',
                                         'Param' => {
                                                      '0' => {
                                                               'name' => 'v',
                                                               'type' => '25845'
                                                             }
                                                    },
                                         'Return' => '25781',
                                         'ShortName' => 'result_NonTrivialType'
                                       },
                            '25880' => {
                                         'Artificial' => 1,
                                         'Class' => '19724',
                                         'Constructor' => 1,
                                         'Header' => undef,
                                         'InLine' => 1,
                                         'Line' => '4264',
                                         'MnglName' => '_ZN10outcome_v212basic_resultI14NonTrivialTypelNS_6policy9terminateEEC2ERKS4_',
                                         'Param' => {
                                                      '0' => {
                                                               'name' => 'this',
                                                               'type' => '23615'
                                                             },
                                                      '1' => {
                                                               'name' => 'p1',
                                                               'type' => '23626'
                                                             }
                                                    },
                                         'ShortName' => 'basic_result'
                                       },
                            '25881' => {
                                         'Artificial' => 1,
                                         'Class' => '19724',
                                         'Constructor' => 1,
                                         'Header' => undef,
                                         'InLine' => 1,
                                         'Line' => '4264',
                                         'MnglName' => '_ZN10outcome_v212basic_resultI14NonTrivialTypelNS_6policy9terminateEEC1ERKS4_',
                                         'Param' => {
                                                      '0' => {
                                                               'name' => 'this',
                                                               'type' => '23615'
                                                             },
                                                      '1' => {
                                                               'name' => 'p1',
                                                               'type' => '23626'
                                                             }
                                                    },
                                         'ShortName' => 'basic_result'
                                       },
                            '25982' => {
                                         'Artificial' => 1,
                                         'Class' => '15017',
                                         'Constructor' => 1,
                                         'Header' => undef,
                                         'InLine' => 1,
                                         'Line' => '3550',
                                         'MnglName' => '_ZN10outcome_v26detail18basic_result_finalI14NonTrivialTypelNS_6policy9terminateEEC2ERKS5_',
                                         'Param' => {
                                                      '0' => {
                                                               'name' => 'this',
                                                               'type' => '25938'
                                                             },
                                                      '1' => {
                                                               'name' => 'p1',
                                                               'type' => '25943'
                                                             }
                                                    },
                                         'ShortName' => 'basic_result_final'
                                       },
                            '25983' => {
                                         'Artificial' => 1,
                                         'Class' => '15017',
                                         'Constructor' => 1,
                                         'Header' => undef,
                                         'InLine' => 1,
                                         'Line' => '3550',
                                         'MnglName' => '_ZN10outcome_v26detail18basic_result_finalI14NonTrivialTypelNS_6policy9terminateEEC1ERKS5_',
                                         'Param' => {
                                                      '0' => {
                                                               'name' => 'this',
                                                               'type' => '25938'
                                                             },
                                                      '1' => {
                                                               'name' => 'p1',
                                                               'type' => '25943'
                                                             }
                                                    },
                                         'ShortName' => 'basic_result_final'
                                       },
                            '26073' => {
                                         'Artificial' => 1,
                                         'Class' => '14660',
                                         'Constructor' => 1,
                                         'Header' => undef,
                                         'InLine' => 1,
                                         'Line' => '3405',
                                         'MnglName' => '_ZN10outcome_v26detail28basic_result_error_observersINS0_28basic_result_value_observersINS0_20basic_result_storageI14NonTrivialTypelNS_6policy9terminateEEES4_S6_EElS6_EC2ERKS9_',
                                         'Param' => {
                                                      '0' => {
                                                               'name' => 'this',
                                                               'type' => '23514'
                                                             },
                                                      '1' => {
                                                               'name' => 'p1',
                                                               'type' => '26034'
                                                             }
                                                    },
                                         'ShortName' => 'basic_result_error_observers'
                                       },
                            '26074' => {
                                         'Artificial' => 1,
                                         'Class' => '14660',
                                         'Constructor' => 1,
                                         'Header' => undef,
                                         'InLine' => 1,
                                         'Line' => '3405',
                                         'MnglName' => '_ZN10outcome_v26detail28basic_result_error_observersINS0_28basic_result_value_observersINS0_20basic_result_storageI14NonTrivialTypelNS_6policy9terminateEEES4_S6_EElS6_EC1ERKS9_',
                                         'Param' => {
                                                      '0' => {
                                                               'name' => 'this',
                                                               'type' => '23514'
                                                             },
                                                      '1' => {
                                                               'name' => 'p1',
                                                               'type' => '26034'
                                                             }
                                                    },
                                         'ShortName' => 'basic_result_error_observers'
                                       },
                            '26164' => {
                                         'Artificial' => 1,
                                         'Class' => '14304',
                                         'Constructor' => 1,
                                         'Header' => undef,
                                         'InLine' => 1,
                                         'Line' => '3489',
                                         'MnglName' => '_ZN10outcome_v26detail28basic_result_value_observersINS0_20basic_result_storageI14NonTrivialTypelNS_6policy9terminateEEES3_S5_EC2ERKS7_',
                                         'Param' => {
                                                      '0' => {
                                                               'name' => 'this',
                                                               'type' => '23473'
                                                             },
                                                      '1' => {
                                                               'name' => 'p1',
                                                               'type' => '26125'
                                                             }
                                                    },
                                         'ShortName' => 'basic_result_value_observers'
                                       },
                            '26165' => {
                                         'Artificial' => 1,
                                         'Class' => '14304',
                                         'Constructor' => 1,
                                         'Header' => undef,
                                         'InLine' => 1,
                                         'Line' => '3489',
                                         'MnglName' => '_ZN10outcome_v26detail28basic_result_value_observersINS0_20basic_result_storageI14NonTrivialTypelNS_6policy9terminateEEES3_S5_EC1ERKS7_',
                                         'Param' => {
                                                      '0' => {
                                                               'name' => 'this',
                                                               'type' => '23473'
                                                             },
                                                      '1' => {
                                                               'name' => 'p1',
                                                               'type' => '26125'
                                                             }
                                                    },
                                         'ShortName' => 'basic_result_value_observers'
                                       },
                            '26245' => {
                                         'Artificial' => 1,
                                         'Class' => '13929',
                                         'Constructor' => 1,
                                         'Header' => undef,
                                         'InLine' => 1,
                                         'Line' => '3148',
                                         'MnglName' => '_ZN10outcome_v26detail20basic_result_storageI14NonTrivialTypelNS_6policy9terminateEEC2ERKS5_',
                                         'Param' => {
                                                      '0' => {
                                                               'name' => 'this',
                                                               'type' => '23426'
                                                             },
                                                      '1' => {
                                                               'name' => 'p1',
                                                               'type' => '23443'
                                                             }
                                                    },
                                         'Protected' => 1,
                                         'ShortName' => 'basic_result_storage'
                                       },
                            '26246' => {
                                         'Artificial' => 1,
                                         'Class' => '13929',
                                         'Constructor' => 1,
                                         'Header' => undef,
                                         'InLine' => 1,
                                         'Line' => '3148',
                                         'MnglName' => '_ZN10outcome_v26detail20basic_result_storageI14NonTrivialTypelNS_6policy9terminateEEC1ERKS5_',
                                         'Param' => {
                                                      '0' => {
                                                               'name' => 'this',
                                                               'type' => '23426'
                                                             },
                                                      '1' => {
                                                               'name' => 'p1',
                                                               'type' => '23443'
                                                             }
                                                    },
                                         'Protected' => 1,
                                         'ShortName' => 'basic_result_storage'
                                       },
                            '26326' => {
                                         'Artificial' => 1,
                                         'Class' => '13680',
                                         'Constructor' => 1,
                                         'Header' => undef,
                                         'InLine' => 1,
                                         'Line' => '2951',
                                         'MnglName' => '_ZN10outcome_v26detail40value_storage_nontrivial_copy_assignmentINS0_40value_storage_nontrivial_move_assignmentINS0_24value_storage_nontrivialI14NonTrivialTypelEEEEEC2ERKS7_',
                                         'Param' => {
                                                      '0' => {
                                                               'name' => 'this',
                                                               'type' => '23391'
                                                             },
                                                      '1' => {
                                                               'name' => 'p1',
                                                               'type' => '23396'
                                                             }
                                                    },
                                         'ShortName' => 'value_storage_nontrivial_copy_assignment'
                                       },
                            '26327' => {
                                         'Artificial' => 1,
                                         'Class' => '13680',
                                         'Constructor' => 1,
                                         'Header' => undef,
                                         'InLine' => 1,
                                         'Line' => '2951',
                                         'MnglName' => '_ZN10outcome_v26detail40value_storage_nontrivial_copy_assignmentINS0_40value_storage_nontrivial_move_assignmentINS0_24value_storage_nontrivialI14NonTrivialTypelEEEEEC1ERKS7_',
                                         'Param' => {
                                                      '0' => {
                                                               'name' => 'this',
                                                               'type' => '23391'
                                                             },
                                                      '1' => {
                                                               'name' => 'p1',
                                                               'type' => '23396'
                                                             }
                                                    },
                                         'ShortName' => 'value_storage_nontrivial_copy_assignment'
                                       },
                            '26407' => {
                                         'Artificial' => 1,
                                         'Class' => '13478',
                                         'Constructor' => 1,
                                         'Header' => undef,
                                         'InLine' => 1,
                                         'Line' => '2853',
                                         'MnglName' => '_ZN10outcome_v26detail40value_storage_nontrivial_move_assignmentINS0_24value_storage_nontrivialI14NonTrivialTypelEEEC2ERKS5_',
                                         'Param' => {
                                                      '0' => {
                                                               'name' => 'this',
                                                               'type' => '23362'
                                                             },
                                                      '1' => {
                                                               'name' => 'p1',
                                                               'type' => '23367'
                                                             }
                                                    },
                                         'ShortName' => 'value_storage_nontrivial_move_assignment'
                                       },
                            '26408' => {
                                         'Artificial' => 1,
                                         'Class' => '13478',
                                         'Constructor' => 1,
                                         'Header' => undef,
                                         'InLine' => 1,
                                         'Line' => '2853',
                                         'MnglName' => '_ZN10outcome_v26detail40value_storage_nontrivial_move_assignmentINS0_24value_storage_nontrivialI14NonTrivialTypelEEEC1ERKS5_',
                                         'Param' => {
                                                      '0' => {
                                                               'name' => 'this',
                                                               'type' => '23362'
                                                             },
                                                      '1' => {
                                                               'name' => 'p1',
                                                               'type' => '23367'
                                                             }
                                                    },
                                         'ShortName' => 'value_storage_nontrivial_move_assignment'
                                       },
                            '26471' => {
                                         'Header' => undef,
                                         'Line' => '64',
                                         'MnglName' => '_Z10result_intRN10outcome_v212basic_resultIilNS_6policy9terminateEEE',
                                         'Param' => {
                                                      '0' => {
                                                               'name' => 'v',
                                                               'type' => '25845'
                                                             }
                                                    },
                                         'Return' => '25781',
                                         'ShortName' => 'result_int'
                                       },
                            '26529' => {
                                         'Header' => undef,
                                         'Line' => '59',
                                         'MnglName' => '_Z28value_storage_NonTrivialTypeRN10outcome_v26detail24value_storage_nontrivialI14NonTrivialTypeiEE',
                                         'Param' => {
                                                      '0' => {
                                                               'name' => 'v',
                                                               'type' => '23049'
                                                             }
                                                    },
                                         'Return' => '11037',
                                         'ShortName' => 'value_storage_NonTrivialType'
                                       },
                            '26581' => {
                                         'Header' => undef,
                                         'Line' => '54',
                                         'MnglName' => '_Z17value_storage_intRN10outcome_v26detail21value_storage_trivialIilEE',
                                         'Param' => {
                                                      '0' => {
                                                               'name' => 'v',
                                                               'type' => '20962'
                                                             }
                                                    },
                                         'Return' => '7265',
                                         'ShortName' => 'value_storage_int'
                                       },
                            '26633' => {
                                         'Header' => undef,
                                         'Line' => '47',
                                         'MnglName' => '_Z11status_bitsv',
                                         'Return' => '6444',
                                         'ShortName' => 'status_bits'
                                       },
                            '26713' => {
                                         'Artificial' => 1,
                                         'Class' => '22792',
                                         'Constructor' => 1,
                                         'Header' => undef,
                                         'InLine' => 1,
                                         'Line' => '34',
                                         'MnglName' => '_ZN14NonTrivialTypeC2ERKS_',
                                         'Param' => {
                                                      '0' => {
                                                               'name' => 'this',
                                                               'type' => '23015'
                                                             },
                                                      '1' => {
                                                               'name' => 'p1',
                                                               'type' => '23020'
                                                             }
                                                    },
                                         'ShortName' => 'NonTrivialType'
                                       },
                            '26714' => {
                                         'Artificial' => 1,
                                         'Class' => '22792',
                                         'Constructor' => 1,
                                         'Header' => undef,
                                         'InLine' => 1,
                                         'Line' => '34',
                                         'MnglName' => '_ZN14NonTrivialTypeC1ERKS_',
                                         'Param' => {
                                                      '0' => {
                                                               'name' => 'this',
                                                               'type' => '23015'
                                                             },
                                                      '1' => {
                                                               'name' => 'p1',
                                                               'type' => '23020'
                                                             }
                                                    },
                                         'ShortName' => 'NonTrivialType'
                                       },
                            '26888' => {
                                         'Artificial' => 1,
                                         'Class' => '6444',
                                         'Constructor' => 1,
                                         'Header' => undef,
                                         'InLine' => 1,
                                         'Line' => '2167',
                                         'MnglName' => '_ZN10outcome_v26detail20status_bitfield_typeC2ENS0_6statusE',
                                         'Param' => {
                                                      '0' => {
                                                               'name' => 'this',
                                                               'type' => '20872'
                                                             },
                                                      '1' => {
                                                               'name' => 'v',
                                                               'type' => '6328'
                                                             }
                                                    },
                                         'ShortName' => 'status_bitfield_type'
                                       },
                            '26889' => {
                                         'Artificial' => 1,
                                         'Class' => '6444',
                                         'Constructor' => 1,
                                         'Header' => undef,
                                         'InLine' => 1,
                                         'Line' => '2167',
                                         'MnglName' => '_ZN10outcome_v26detail20status_bitfield_typeC1ENS0_6statusE',
                                         'Param' => {
                                                      '0' => {
                                                               'name' => 'this',
                                                               'type' => '20872'
                                                             },
                                                      '1' => {
                                                               'name' => 'v',
                                                               'type' => '6328'
                                                             }
                                                    },
                                         'ShortName' => 'status_bitfield_type'
                                       },
                            '26940' => {
                                         'Header' => undef,
                                         'InLine' => 2,
                                         'Line' => '173',
                                         'MnglName' => '_ZnwmPv',
                                         'Param' => {
                                                      '0' => {
                                                               'name' => 'p1',
                                                               'type' => '2006'
                                                             },
                                                      '1' => {
                                                               'name' => '__p',
                                                               'type' => '3268'
                                                             }
                                                    },
                                         'Return' => '3268',
                                         'ShortName' => 'operator new'
                                       },
                            '6723' => {
                                        'Class' => '6444',
                                        'Const' => 1,
                                        'Header' => undef,
                                        'InLine' => 2,
                                        'Line' => '2181',
                                        'MnglName' => '_ZNK10outcome_v26detail20status_bitfield_type10have_valueEv',
                                        'Param' => {
                                                     '0' => {
                                                              'name' => 'this',
                                                              'type' => '20901'
                                                            }
                                                   },
                                        'Return' => '5956',
                                        'ShortName' => 'have_value'
                                      },
                            '6754' => {
                                        'Class' => '6444',
                                        'Const' => 1,
                                        'Header' => undef,
                                        'InLine' => 2,
                                        'Line' => '2185',
                                        'MnglName' => '_ZNK10outcome_v26detail20status_bitfield_type10have_errorEv',
                                        'Param' => {
                                                     '0' => {
                                                              'name' => 'this',
                                                              'type' => '20901'
                                                            }
                                                   },
                                        'Return' => '5956',
                                        'ShortName' => 'have_error'
                                      }
                          },
          'SymbolVersion' => {},
          'Symbols' => {
                         'liboutcome-abi-lib-gcc9-cxx17.so' => {
                                                                 '_Z10result_intRN10outcome_v212basic_resultIilNS_6policy9terminateEEE' => 1,
                                                                 '_Z11outcome_intRN10outcome_v213basic_outcomeIildNS_6policy9terminateEEE' => 1,
                                                                 '_Z11status_bitsv' => 1,
                                                                 '_Z17value_storage_intRN10outcome_v26detail21value_storage_trivialIilEE' => 1,
                                                                 '_Z21result_NonTrivialTypeRN10outcome_v212basic_resultI14NonTrivialTypelNS_6policy9terminateEEE' => 1,
                                                                 '_Z22outcome_NonTrivialTypeRN10outcome_v213basic_outcomeI14NonTrivialTypeldNS_6policy9terminateEEE' => 1,
                                                                 '_Z28value_storage_NonTrivialTypeRN10outcome_v26detail24value_storage_nontrivialI14NonTrivialTypeiEE' => 1,
                                                                 '_ZN10outcome_v212basic_resultI14NonTrivialTypelNS_6policy9terminateEEC1ERKS4_' => 1,
                                                                 '_ZN10outcome_v212basic_resultI14NonTrivialTypelNS_6policy9terminateEEC2ERKS4_' => 1,
                                                                 '_ZN10outcome_v213basic_outcomeI14NonTrivialTypeldNS_6policy9terminateEEC1ERKS4_' => 1,
                                                                 '_ZN10outcome_v213basic_outcomeI14NonTrivialTypeldNS_6policy9terminateEEC2ERKS4_' => 1,
                                                                 '_ZN10outcome_v26detail18basic_result_finalI14NonTrivialTypelNS_6policy9terminateEEC1ERKS5_' => 1,
                                                                 '_ZN10outcome_v26detail18basic_result_finalI14NonTrivialTypelNS_6policy9terminateEEC2ERKS5_' => 1,
                                                                 '_ZN10outcome_v26detail20basic_result_storageI14NonTrivialTypelNS_6policy9terminateEEC1ERKS5_' => 1,
                                                                 '_ZN10outcome_v26detail20basic_result_storageI14NonTrivialTypelNS_6policy9terminateEEC2ERKS5_' => 1,
                                                                 '_ZN10outcome_v26detail20status_bitfield_typeC1ENS0_6statusE' => 1,
                                                                 '_ZN10outcome_v26detail20status_bitfield_typeC1Ev' => 1,
                                                                 '_ZN10outcome_v26detail20status_bitfield_typeC2ENS0_6statusE' => 1,
                                                                 '_ZN10outcome_v26detail20status_bitfield_typeC2Ev' => 1,
                                                                 '_ZN10outcome_v26detail24value_storage_nontrivialI14NonTrivialTypeiEC1ERKS3_' => 1,
                                                                 '_ZN10outcome_v26detail24value_storage_nontrivialI14NonTrivialTypeiEC2ERKS3_' => 1,
                                                                 '_ZN10outcome_v26detail24value_storage_nontrivialI14NonTrivialTypelEC1ERKS3_' => 1,
                                                                 '_ZN10outcome_v26detail24value_storage_nontrivialI14NonTrivialTypelEC2ERKS3_' => 1,
                                                                 '_ZN10outcome_v26detail28basic_result_error_observersINS0_28basic_result_value_observersINS0_20basic_result_storageI14NonTrivialTypelNS_6policy9terminateEEES4_S6_EElS6_EC1ERKS9_' => 1,
                                                                 '_ZN10outcome_v26detail28basic_result_error_observersINS0_28basic_result_value_observersINS0_20basic_result_storageI14NonTrivialTypelNS_6policy9terminateEEES4_S6_EElS6_EC2ERKS9_' => 1,
                                                                 '_ZN10outcome_v26detail28basic_result_value_observersINS0_20basic_result_storageI14NonTrivialTypelNS_6policy9terminateEEES3_S5_EC1ERKS7_' => 1,
                                                                 '_ZN10outcome_v26detail28basic_result_value_observersINS0_20basic_result_storageI14NonTrivialTypelNS_6policy9terminateEEES3_S5_EC2ERKS7_' => 1,
                                                                 '_ZN10outcome_v26detail33basic_outcome_exception_observersINS0_18basic_result_finalI14NonTrivialTypelNS_6policy9terminateEEES3_ldS5_EC1ERKS7_' => 1,
                                                                 '_ZN10outcome_v26detail33basic_outcome_exception_observersINS0_18basic_result_finalI14NonTrivialTypelNS_6policy9terminateEEES3_ldS5_EC2ERKS7_' => 1,
                                                                 '_ZN10outcome_v26detail40value_storage_nontrivial_copy_assignmentINS0_40value_storage_nontrivial_move_assignmentINS0_24value_storage_nontrivialI14NonTrivialTypelEEEEEC1ERKS7_' => 1,
                                                                 '_ZN10outcome_v26detail40value_storage_nontrivial_copy_assignmentINS0_40value_storage_nontrivial_move_assignmentINS0_24value_storage_nontrivialI14NonTrivialTypelEEEEEC2ERKS7_' => 1,
                                                                 '_ZN10outcome_v26detail40value_storage_nontrivial_move_assignmentINS0_24value_storage_nontrivialI14NonTrivialTypelEEEC1ERKS5_' => 1,
                                                                 '_ZN10outcome_v26detail40value_storage_nontrivial_move_assignmentINS0_24value_storage_nontrivialI14NonTrivialTypelEEEC2ERKS5_' => 1,
                                                                 '_ZN14NonTrivialTypeC1ERKS_' => 1,
                                                                 '_ZN14NonTrivialTypeC2ERKS_' => 1,
                                                                 '_ZNK10outcome_v26detail20status_bitfield_type10have_errorEv' => 1,
                                                                 '_ZNK10outcome_v26detail20status_bitfield_type10have_valueEv' => 1,
                                                                 '_ZnwmPv' => 1
                                                               }
                       },
          'Target' => 'unix',
          'TypeInfo' => {
                          '1' => {
                                   'Name' => 'void',
                                   'Type' => 'Intrinsic'
                                 },
                          '11037' => {
                                       'Header' => undef,
                                       'Line' => '2418',
                                       'Memb' => {
                                                   '0' => {
                                                            'name' => 'unnamed0',
                                                            'offset' => '0',
                                                            'type' => '11051'
                                                          },
                                                   '1' => {
                                                            'name' => '_status',
                                                            'offset' => '8',
                                                            'type' => '6444'
                                                          },
                                                   '2' => {
                                                            'name' => 'unnamed1',
                                                            'offset' => '12',
                                                            'type' => '11101'
                                                          }
                                                 },
                                       'Name' => 'struct outcome_v2::detail::value_storage_nontrivial<NonTrivialType, int>',
                                       'NameSpace' => 'outcome_v2::detail',
                                       'Size' => '16',
                                       'TParam' => {
                                                     '0' => {
                                                              'key' => 'T',
                                                              'type' => '22792'
                                                            },
                                                     '1' => {
                                                              'key' => 'E',
                                                              'type' => '3098'
                                                            }
                                                   },
                                       'Type' => 'Struct'
                                     },
                          '11051' => {
                                       'Header' => undef,
                                       'Line' => '2433',
                                       'Memb' => {
                                                   '0' => {
                                                            'name' => '_empty1',
                                                            'offset' => '0',
                                                            'type' => '6166'
                                                          },
                                                   '1' => {
                                                            'name' => '_value',
                                                            'offset' => '0',
                                                            'type' => '11088'
                                                          }
                                                 },
                                       'NameSpace' => 'outcome_v2::detail::value_storage_nontrivial<NonTrivialType, int>',
                                       'Size' => '8',
                                       'Type' => 'Union'
                                     },
                          '11088' => {
                                       'BaseType' => '7659',
                                       'Header' => undef,
                                       'Line' => '2430',
                                       'Name' => 'outcome_v2::detail::value_storage_nontrivial<NonTrivialType, int>::_value_type_',
                                       'NameSpace' => 'outcome_v2::detail::value_storage_nontrivial<NonTrivialType, int>',
                                       'Size' => '4',
                                       'Type' => 'Typedef'
                                     },
                          '11101' => {
                                       'Header' => undef,
                                       'Line' => '2439',
                                       'Memb' => {
                                                   '0' => {
                                                            'name' => '_empty2',
                                                            'offset' => '0',
                                                            'type' => '6166'
                                                          },
                                                   '1' => {
                                                            'name' => '_error',
                                                            'offset' => '0',
                                                            'type' => '11138'
                                                          }
                                                 },
                                       'NameSpace' => 'outcome_v2::detail::value_storage_nontrivial<NonTrivialType, int>',
                                       'Size' => '4',
                                       'Type' => 'Union'
                                     },
                          '11138' => {
                                       'BaseType' => '7659',
                                       'Header' => undef,
                                       'Line' => '2431',
                                       'Name' => 'outcome_v2::detail::value_storage_nontrivial<NonTrivialType, int>::_error_type_',
                                       'NameSpace' => 'outcome_v2::detail::value_storage_nontrivial<NonTrivialType, int>',
                                       'Size' => '4',
                                       'Type' => 'Typedef'
                                     },
                          '11453' => {
                                       'BaseType' => '11037',
                                       'Name' => 'struct outcome_v2::detail::value_storage_nontrivial<NonTrivialType, int>const',
                                       'Size' => '16',
                                       'Type' => 'Const'
                                     },
                          '13057' => {
                                       'Header' => undef,
                                       'Line' => '2418',
                                       'Memb' => {
                                                   '0' => {
                                                            'name' => 'unnamed0',
                                                            'offset' => '0',
                                                            'type' => '13071'
                                                          },
                                                   '1' => {
                                                            'name' => '_status',
                                                            'offset' => '8',
                                                            'type' => '6444'
                                                          },
                                                   '2' => {
                                                            'name' => 'unnamed1',
                                                            'offset' => '16',
                                                            'type' => '13121'
                                                          }
                                                 },
                                       'Name' => 'struct outcome_v2::detail::value_storage_nontrivial<NonTrivialType, long>',
                                       'NameSpace' => 'outcome_v2::detail',
                                       'Size' => '24',
                                       'TParam' => {
                                                     '0' => {
                                                              'key' => 'T',
                                                              'type' => '22792'
                                                            },
                                                     '1' => {
                                                              'key' => 'E',
                                                              'type' => '3129'
                                                            }
                                                   },
                                       'Type' => 'Struct'
                                     },
                          '13071' => {
                                       'Header' => undef,
                                       'Line' => '2433',
                                       'Memb' => {
                                                   '0' => {
                                                            'name' => '_empty1',
                                                            'offset' => '0',
                                                            'type' => '6166'
                                                          },
                                                   '1' => {
                                                            'name' => '_value',
                                                            'offset' => '0',
                                                            'type' => '13108'
                                                          }
                                                 },
                                       'NameSpace' => 'outcome_v2::detail::value_storage_nontrivial<NonTrivialType, long>',
                                       'Size' => '8',
                                       'Type' => 'Union'
                                     },
                          '13108' => {
                                       'BaseType' => '7659',
                                       'Header' => undef,
                                       'Line' => '2430',
                                       'Name' => 'outcome_v2::detail::value_storage_nontrivial<NonTrivialType, long>::_value_type_',
                                       'NameSpace' => 'outcome_v2::detail::value_storage_nontrivial<NonTrivialType, long>',
                                       'Size' => '4',
                                       'Type' => 'Typedef'
                                     },
                          '13121' => {
                                       'Header' => undef,
                                       'Line' => '2439',
                                       'Memb' => {
                                                   '0' => {
                                                            'name' => '_empty2',
                                                            'offset' => '0',
                                                            'type' => '6166'
                                                          },
                                                   '1' => {
                                                            'name' => '_error',
                                                            'offset' => '0',
                                                            'type' => '13158'
                                                          }
                                                 },
                                       'NameSpace' => 'outcome_v2::detail::value_storage_nontrivial<NonTrivialType, long>',
                                       'Size' => '8',
                                       'Type' => 'Union'
                                     },
                          '13158' => {
                                       'BaseType' => '7659',
                                       'Header' => undef,
                                       'Line' => '2431',
                                       'Name' => 'outcome_v2::detail::value_storage_nontrivial<NonTrivialType, long>::_error_type_',
                                       'NameSpace' => 'outcome_v2::detail::value_storage_nontrivial<NonTrivialType, long>',
                                       'Size' => '4',
                                       'Type' => 'Typedef'
                                     },
                          '13473' => {
                                       'BaseType' => '13057',
                                       'Name' => 'struct outcome_v2::detail::value_storage_nontrivial<NonTrivialType, long>const',
                                       'Size' => '24',
                                       'Type' => 'Const'
                                     },
                          '13478' => {
                                       'Base' => {
                                                   '13057' => {
                                                                'pos' => '0'
                                                              }
                                                 },
                                       'Header' => undef,
                                       'Line' => '2847',
                                       'Name' => 'struct outcome_v2::detail::value_storage_nontrivial_move_assignment<outcome_v2::detail::value_storage_nontrivial<NonTrivialType, long> >',
                                       'NameSpace' => 'outcome_v2::detail',
                                       'Size' => '24',
                                       'TParam' => {
                                                     '0' => {
                                                              'key' => 'Base',
                                                              'type' => '13057'
                                                            }
                                                   },
                                       'Type' => 'Struct'
                                     },
                          '13675' => {
                                       'BaseType' => '13478',
                                       'Name' => 'struct outcome_v2::detail::value_storage_nontrivial_move_assignment<outcome_v2::detail::value_storage_nontrivial<NonTrivialType, long> >const',
                                       'Size' => '24',
                                       'Type' => 'Const'
                                     },
                          '13680' => {
                                       'Base' => {
                                                   '13478' => {
                                                                'pos' => '0'
                                                              }
                                                 },
                                       'Header' => undef,
                                       'Line' => '2945',
                                       'Name' => 'struct outcome_v2::detail::value_storage_nontrivial_copy_assignment<outcome_v2::detail::value_storage_nontrivial_move_assignment<outcome_v2::detail::value_storage_nontrivial<NonTrivialType, long> > >',
                                       'NameSpace' => 'outcome_v2::detail',
                                       'Size' => '24',
                                       'TParam' => {
                                                     '0' => {
                                                              'key' => 'Base',
                                                              'type' => '13478'
                                                            }
                                                   },
                                       'Type' => 'Struct'
                                     },
                          '13877' => {
                                       'BaseType' => '13680',
                                       'Name' => 'struct outcome_v2::detail::value_storage_nontrivial_copy_assignment<outcome_v2::detail::value_storage_nontrivial_move_assignment<outcome_v2::detail::value_storage_nontrivial<NonTrivialType, long> > >const',
                                       'Size' => '24',
                                       'Type' => 'Const'
                                     },
                          '13929' => {
                                       'Header' => undef,
                                       'Line' => '3119',
                                       'Memb' => {
                                                   '0' => {
                                                            'access' => 'protected',
                                                            'name' => '_state',
                                                            'offset' => '0',
                                                            'type' => '13943'
                                                          }
                                                 },
                                       'Name' => 'outcome_v2::detail::basic_result_storage<NonTrivialType, long, outcome_v2::policy::terminate>',
                                       'NameSpace' => 'outcome_v2::detail',
                                       'Size' => '24',
                                       'TParam' => {
                                                     '0' => {
                                                              'key' => 'R',
                                                              'type' => '22792'
                                                            },
                                                     '1' => {
                                                              'key' => 'EC',
                                                              'type' => '3129'
                                                            },
                                                     '2' => {
                                                              'key' => 'NoValuePolicy',
                                                              'type' => '17445'
                                                            }
                                                   },
                                       'Type' => 'Class'
                                     },
                          '13943' => {
                                       'BaseType' => '8344',
                                       'Header' => undef,
                                       'Line' => '3140',
                                       'Name' => 'outcome_v2::detail::basic_result_storage<NonTrivialType, long, outcome_v2::policy::terminate>::_state_type',
                                       'NameSpace' => 'outcome_v2::detail::basic_result_storage<NonTrivialType, long, outcome_v2::policy::terminate>',
                                       'Protected' => 1,
                                       'Size' => '4',
                                       'Type' => 'Typedef'
                                     },
                          '14273' => {
                                       'BaseType' => '13929',
                                       'Name' => 'outcome_v2::detail::basic_result_storage<NonTrivialType, long, outcome_v2::policy::terminate>const',
                                       'Size' => '24',
                                       'Type' => 'Const'
                                     },
                          '14304' => {
                                       'Base' => {
                                                   '13929' => {
                                                                'pos' => '0'
                                                              }
                                                 },
                                       'Header' => undef,
                                       'Line' => '3489',
                                       'Name' => 'outcome_v2::detail::basic_result_value_observers<outcome_v2::detail::basic_result_storage<NonTrivialType, long, outcome_v2::policy::terminate>, NonTrivialType, outcome_v2::policy::terminate>',
                                       'NameSpace' => 'outcome_v2::detail',
                                       'Size' => '24',
                                       'TParam' => {
                                                     '0' => {
                                                              'key' => 'Base',
                                                              'type' => '13929'
                                                            },
                                                     '1' => {
                                                              'key' => 'R',
                                                              'type' => '22792'
                                                            },
                                                     '2' => {
                                                              'key' => 'NoValuePolicy',
                                                              'type' => '17445'
                                                            }
                                                   },
                                       'Type' => 'Class'
                                     },
                          '14655' => {
                                       'BaseType' => '14304',
                                       'Name' => 'outcome_v2::detail::basic_result_value_observers<outcome_v2::detail::basic_result_storage<NonTrivialType, long, outcome_v2::policy::terminate>, NonTrivialType, outcome_v2::policy::terminate>const',
                                       'Size' => '24',
                                       'Type' => 'Const'
                                     },
                          '14660' => {
                                       'Base' => {
                                                   '14304' => {
                                                                'pos' => '0'
                                                              }
                                                 },
                                       'Header' => undef,
                                       'Line' => '3405',
                                       'Name' => 'outcome_v2::detail::basic_result_error_observers<outcome_v2::detail::basic_result_value_observers<outcome_v2::detail::basic_result_storage<NonTrivialType, long, outcome_v2::policy::terminate>, NonTrivialType, outcome_v2::policy::terminate>, long, outcome_v2::policy::terminate>',
                                       'NameSpace' => 'outcome_v2::detail',
                                       'Size' => '24',
                                       'TParam' => {
                                                     '0' => {
                                                              'key' => 'Base',
                                                              'type' => '14304'
                                                            },
                                                     '1' => {
                                                              'key' => 'EC',
                                                              'type' => '3129'
                                                            },
                                                     '2' => {
                                                              'key' => 'NoValuePolicy',
                                                              'type' => '17445'
                                                            }
                                                   },
                                       'Type' => 'Class'
                                     },
                          '15012' => {
                                       'BaseType' => '14660',
                                       'Name' => 'outcome_v2::detail::basic_result_error_observers<outcome_v2::detail::basic_result_value_observers<outcome_v2::detail::basic_result_storage<NonTrivialType, long, outcome_v2::policy::terminate>, NonTrivialType, outcome_v2::policy::terminate>, long, outcome_v2::policy::terminate>const',
                                       'Size' => '24',
                                       'Type' => 'Const'
                                     },
                          '15017' => {
                                       'Base' => {
                                                   '14660' => {
                                                                'pos' => '0'
                                                              }
                                                 },
                                       'Header' => undef,
                                       'Line' => '3550',
                                       'Name' => 'outcome_v2::detail::basic_result_final<NonTrivialType, long, outcome_v2::policy::terminate>',
                                       'NameSpace' => 'outcome_v2::detail',
                                       'Size' => '24',
                                       'TParam' => {
                                                     '0' => {
                                                              'key' => 'R',
                                                              'type' => '22792'
                                                            },
                                                     '1' => {
                                                              'key' => 'S',
                                                              'type' => '3129'
                                                            },
                                                     '2' => {
                                                              'key' => 'NoValuePolicy',
                                                              'type' => '17445'
                                                            }
                                                   },
                                       'Type' => 'Class'
                                     },
                          '15357' => {
                                       'BaseType' => '15017',
                                       'Name' => 'outcome_v2::detail::basic_result_final<NonTrivialType, long, outcome_v2::policy::terminate>const',
                                       'Size' => '24',
                                       'Type' => 'Const'
                                     },
                          '16123' => {
                                       'Base' => {
                                                   '15017' => {
                                                                'pos' => '0'
                                                              }
                                                 },
                                       'Header' => undef,
                                       'Line' => '4651',
                                       'Name' => 'outcome_v2::detail::basic_outcome_exception_observers<outcome_v2::detail::basic_result_final<NonTrivialType, long, outcome_v2::policy::terminate>, NonTrivialType, long, double, outcome_v2::policy::terminate>',
                                       'NameSpace' => 'outcome_v2::detail',
                                       'Size' => '24',
                                       'TParam' => {
                                                     '0' => {
                                                              'key' => 'Base',
                                                              'type' => '15017'
                                                            },
                                                     '1' => {
                                                              'key' => 'R',
                                                              'type' => '22792'
                                                            },
                                                     '2' => {
                                                              'key' => 'S',
                                                              'type' => '3129'
                                                            },
                                                     '3' => {
                                                              'key' => 'P',
                                                              'type' => '3645'
                                                            },
                                                     '4' => {
                                                              'key' => 'NoValuePolicy',
                                                              'type' => '17445'
                                                            }
                                                   },
                                       'Type' => 'Class'
                                     },
                          '16488' => {
                                       'BaseType' => '16123',
                                       'Name' => 'outcome_v2::detail::basic_outcome_exception_observers<outcome_v2::detail::basic_result_final<NonTrivialType, long, outcome_v2::policy::terminate>, NonTrivialType, long, double, outcome_v2::policy::terminate>const',
                                       'Size' => '24',
                                       'Type' => 'Const'
                                     },
                          '17414' => {
                                       'Header' => undef,
                                       'Line' => '3762',
                                       'Name' => 'struct outcome_v2::policy::base',
                                       'NameSpace' => 'outcome_v2::policy',
                                       'Size' => '1',
                                       'Type' => 'Struct'
                                     },
                          '17445' => {
                                       'Base' => {
                                                   '17414' => {
                                                                'pos' => '0'
                                                              }
                                                 },
                                       'Header' => undef,
                                       'Line' => '3935',
                                       'Name' => 'struct outcome_v2::policy::terminate',
                                       'NameSpace' => 'outcome_v2::policy',
                                       'Size' => '1',
                                       'Type' => 'Struct'
                                     },
                          '19724' => {
                                       'Base' => {
                                                   '15017' => {
                                                                'pos' => '0'
                                                              }
                                                 },
                                       'Header' => undef,
                                       'Line' => '4140',
                                       'Name' => 'outcome_v2::basic_result<NonTrivialType, long, outcome_v2::policy::terminate>',
                                       'NameSpace' => 'outcome_v2',
                                       'Size' => '24',
                                       'TParam' => {
                                                     '0' => {
                                                              'key' => 'R',
                                                              'type' => '22792'
                                                            },
                                                     '1' => {
                                                              'key' => 'S',
                                                              'type' => '3129'
                                                            },
                                                     '2' => {
                                                              'key' => 'NoValuePolicy',
                                                              'type' => '17445'
                                                            }
                                                   },
                                       'Type' => 'Class'
                                     },
                          '2006' => {
                                      'BaseType' => '3012',
                                      'Header' => undef,
                                      'Line' => '254',
                                      'Name' => 'std::size_t',
                                      'NameSpace' => 'std',
                                      'Size' => '8',
                                      'Type' => 'Typedef'
                                    },
                          '20149' => {
                                       'BaseType' => '19724',
                                       'Name' => 'outcome_v2::basic_result<NonTrivialType, long, outcome_v2::policy::terminate>const',
                                       'Size' => '24',
                                       'Type' => 'Const'
                                     },
                          '20418' => {
                                       'Base' => {
                                                   '16123' => {
                                                                'pos' => '0'
                                                              }
                                                 },
                                       'Header' => undef,
                                       'Line' => '4937',
                                       'Memb' => {
                                                   '0' => {
                                                            'access' => 'protected',
                                                            'name' => '_ptr',
                                                            'offset' => '24',
                                                            'type' => '7659'
                                                          }
                                                 },
                                       'Name' => 'outcome_v2::basic_outcome<NonTrivialType, long, double, outcome_v2::policy::terminate>',
                                       'NameSpace' => 'outcome_v2',
                                       'Size' => '32',
                                       'TParam' => {
                                                     '0' => {
                                                              'key' => 'R',
                                                              'type' => '22792'
                                                            },
                                                     '1' => {
                                                              'key' => 'S',
                                                              'type' => '3129'
                                                            },
                                                     '2' => {
                                                              'key' => 'P',
                                                              'type' => '3645'
                                                            },
                                                     '3' => {
                                                              'key' => 'NoValuePolicy',
                                                              'type' => '17445'
                                                            }
                                                   },
                                       'Type' => 'Class'
                                     },
                          '20706' => {
                                       'BaseType' => '20418',
                                       'Name' => 'outcome_v2::basic_outcome<NonTrivialType, long, double, outcome_v2::policy::terminate>const',
                                       'Size' => '32',
                                       'Type' => 'Const'
                                     },
                          '20866' => {
                                       'BaseType' => '6444',
                                       'Name' => 'struct outcome_v2::detail::status_bitfield_type*',
                                       'Size' => '8',
                                       'Type' => 'Pointer'
                                     },
                          '20872' => {
                                       'BaseType' => '20866',
                                       'Name' => 'struct outcome_v2::detail::status_bitfield_type*const',
                                       'Size' => '8',
                                       'Type' => 'Const'
                                     },
                          '20895' => {
                                       'BaseType' => '7122',
                                       'Name' => 'struct outcome_v2::detail::status_bitfield_type const*',
                                       'Size' => '8',
                                       'Type' => 'Pointer'
                                     },
                          '20901' => {
                                       'BaseType' => '20895',
                                       'Name' => 'struct outcome_v2::detail::status_bitfield_type const*const',
                                       'Size' => '8',
                                       'Type' => 'Const'
                                     },
                          '20962' => {
                                       'BaseType' => '7265',
                                       'Name' => 'struct outcome_v2::detail::value_storage_trivial<int, long>&',
                                       'Size' => '8',
                                       'Type' => 'Ref'
                                     },
                          '22792' => {
                                       'Header' => undef,
                                       'Line' => '27',
                                       'Memb' => {
                                                   '0' => {
                                                            'name' => 'foo',
                                                            'offset' => '0',
                                                            'type' => '3268'
                                                          }
                                                 },
                                       'Name' => 'struct NonTrivialType',
                                       'Size' => '8',
                                       'Type' => 'Struct'
                                     },
                          '23004' => {
                                       'BaseType' => '22792',
                                       'Name' => 'struct NonTrivialType const',
                                       'Size' => '8',
                                       'Type' => 'Const'
                                     },
                          '23009' => {
                                       'BaseType' => '22792',
                                       'Name' => 'struct NonTrivialType*',
                                       'Size' => '8',
                                       'Type' => 'Pointer'
                                     },
                          '23015' => {
                                       'BaseType' => '23009',
                                       'Name' => 'struct NonTrivialType*const',
                                       'Size' => '8',
                                       'Type' => 'Const'
                                     },
                          '23020' => {
                                       'BaseType' => '23004',
                                       'Name' => 'struct NonTrivialType const&',
                                       'Size' => '8',
                                       'Type' => 'Ref'
                                     },
                          '23038' => {
                                       'BaseType' => '11037',
                                       'Name' => 'struct outcome_v2::detail::value_storage_nontrivial<NonTrivialType, int>*',
                                       'Size' => '8',
                                       'Type' => 'Pointer'
                                     },
                          '23044' => {
                                       'BaseType' => '23038',
                                       'Name' => 'struct outcome_v2::detail::value_storage_nontrivial<NonTrivialType, int>*const',
                                       'Size' => '8',
                                       'Type' => 'Const'
                                     },
                          '23049' => {
                                       'BaseType' => '11037',
                                       'Name' => 'struct outcome_v2::detail::value_storage_nontrivial<NonTrivialType, int>&',
                                       'Size' => '8',
                                       'Type' => 'Ref'
                                     },
                          '23055' => {
                                       'BaseType' => '11453',
                                       'Name' => 'struct outcome_v2::detail::value_storage_nontrivial<NonTrivialType, int>const&',
                                       'Size' => '8',
                                       'Type' => 'Ref'
                                     },
                          '23317' => {
                                       'BaseType' => '13057',
                                       'Name' => 'struct outcome_v2::detail::value_storage_nontrivial<NonTrivialType, long>*',
                                       'Size' => '8',
                                       'Type' => 'Pointer'
                                     },
                          '23323' => {
                                       'BaseType' => '23317',
                                       'Name' => 'struct outcome_v2::detail::value_storage_nontrivial<NonTrivialType, long>*const',
                                       'Size' => '8',
                                       'Type' => 'Const'
                                     },
                          '23334' => {
                                       'BaseType' => '13473',
                                       'Name' => 'struct outcome_v2::detail::value_storage_nontrivial<NonTrivialType, long>const&',
                                       'Size' => '8',
                                       'Type' => 'Ref'
                                     },
                          '23356' => {
                                       'BaseType' => '13478',
                                       'Name' => 'struct outcome_v2::detail::value_storage_nontrivial_move_assignment<outcome_v2::detail::value_storage_nontrivial<NonTrivialType, long> >*',
                                       'Size' => '8',
                                       'Type' => 'Pointer'
                                     },
                          '23362' => {
                                       'BaseType' => '23356',
                                       'Name' => 'struct outcome_v2::detail::value_storage_nontrivial_move_assignment<outcome_v2::detail::value_storage_nontrivial<NonTrivialType, long> >*const',
                                       'Size' => '8',
                                       'Type' => 'Const'
                                     },
                          '23367' => {
                                       'BaseType' => '13675',
                                       'Name' => 'struct outcome_v2::detail::value_storage_nontrivial_move_assignment<outcome_v2::detail::value_storage_nontrivial<NonTrivialType, long> >const&',
                                       'Size' => '8',
                                       'Type' => 'Ref'
                                     },
                          '23385' => {
                                       'BaseType' => '13680',
                                       'Name' => 'struct outcome_v2::detail::value_storage_nontrivial_copy_assignment<outcome_v2::detail::value_storage_nontrivial_move_assignment<outcome_v2::detail::value_storage_nontrivial<NonTrivialType, long> > >*',
                                       'Size' => '8',
                                       'Type' => 'Pointer'
                                     },
                          '23391' => {
                                       'BaseType' => '23385',
                                       'Name' => 'struct outcome_v2::detail::value_storage_nontrivial_copy_assignment<outcome_v2::detail::value_storage_nontrivial_move_assignment<outcome_v2::detail::value_storage_nontrivial<NonTrivialType, long> > >*const',
                                       'Size' => '8',
                                       'Type' => 'Const'
                                     },
                          '23396' => {
                                       'BaseType' => '13877',
                                       'Name' => 'struct outcome_v2::detail::value_storage_nontrivial_copy_assignment<outcome_v2::detail::value_storage_nontrivial_move_assignment<outcome_v2::detail::value_storage_nontrivial<NonTrivialType, long> > >const&',
                                       'Size' => '8',
                                       'Type' => 'Ref'
                                     },
                          '23420' => {
                                       'BaseType' => '13929',
                                       'Name' => 'outcome_v2::detail::basic_result_storage<NonTrivialType, long, outcome_v2::policy::terminate>*',
                                       'Size' => '8',
                                       'Type' => 'Pointer'
                                     },
                          '23426' => {
                                       'BaseType' => '23420',
                                       'Name' => 'outcome_v2::detail::basic_result_storage<NonTrivialType, long, outcome_v2::policy::terminate>*const',
                                       'Size' => '8',
                                       'Type' => 'Const'
                                     },
                          '23443' => {
                                       'BaseType' => '14273',
                                       'Name' => 'outcome_v2::detail::basic_result_storage<NonTrivialType, long, outcome_v2::policy::terminate>const&',
                                       'Size' => '8',
                                       'Type' => 'Ref'
                                     },
                          '23467' => {
                                       'BaseType' => '14304',
                                       'Name' => 'outcome_v2::detail::basic_result_value_observers<outcome_v2::detail::basic_result_storage<NonTrivialType, long, outcome_v2::policy::terminate>, NonTrivialType, outcome_v2::policy::terminate>*',
                                       'Size' => '8',
                                       'Type' => 'Pointer'
                                     },
                          '2347' => {
                                      'Header' => undef,
                                      'Line' => '2065',
                                      'Name' => 'struct std::conditional<false, outcome_v2::detail::void_type, int>',
                                      'NameSpace' => 'std',
                                      'Size' => '1',
                                      'TParam' => {
                                                    '0' => {
                                                             'name' => 'false'
                                                           },
                                                    '1' => {
                                                             'name' => 'outcome_v2::detail::void_type'
                                                           },
                                                    '2' => {
                                                             'name' => 'int'
                                                           }
                                                  },
                                      'Type' => 'Struct'
                                    },
                          '23473' => {
                                       'BaseType' => '23467',
                                       'Name' => 'outcome_v2::detail::basic_result_value_observers<outcome_v2::detail::basic_result_storage<NonTrivialType, long, outcome_v2::policy::terminate>, NonTrivialType, outcome_v2::policy::terminate>*const',
                                       'Size' => '8',
                                       'Type' => 'Const'
                                     },
                          '23508' => {
                                       'BaseType' => '14660',
                                       'Name' => 'outcome_v2::detail::basic_result_error_observers<outcome_v2::detail::basic_result_value_observers<outcome_v2::detail::basic_result_storage<NonTrivialType, long, outcome_v2::policy::terminate>, NonTrivialType, outcome_v2::policy::terminate>, long, outcome_v2::policy::terminate>*',
                                       'Size' => '8',
                                       'Type' => 'Pointer'
                                     },
                          '23514' => {
                                       'BaseType' => '23508',
                                       'Name' => 'outcome_v2::detail::basic_result_error_observers<outcome_v2::detail::basic_result_value_observers<outcome_v2::detail::basic_result_storage<NonTrivialType, long, outcome_v2::policy::terminate>, NonTrivialType, outcome_v2::policy::terminate>, long, outcome_v2::policy::terminate>*const',
                                       'Size' => '8',
                                       'Type' => 'Const'
                                     },
                          '23609' => {
                                       'BaseType' => '19724',
                                       'Name' => 'outcome_v2::basic_result<NonTrivialType, long, outcome_v2::policy::terminate>*',
                                       'Size' => '8',
                                       'Type' => 'Pointer'
                                     },
                          '2361' => {
                                      'BaseType' => '3098',
                                      'Header' => undef,
                                      'Line' => '2066',
                                      'Name' => 'std::conditional<false, outcome_v2::detail::void_type, int>::type',
                                      'NameSpace' => 'std::conditional<false, outcome_v2::detail::void_type, int>',
                                      'Size' => '4',
                                      'Type' => 'Typedef'
                                    },
                          '23615' => {
                                       'BaseType' => '23609',
                                       'Name' => 'outcome_v2::basic_result<NonTrivialType, long, outcome_v2::policy::terminate>*const',
                                       'Size' => '8',
                                       'Type' => 'Const'
                                     },
                          '23626' => {
                                       'BaseType' => '20149',
                                       'Name' => 'outcome_v2::basic_result<NonTrivialType, long, outcome_v2::policy::terminate>const&',
                                       'Size' => '8',
                                       'Type' => 'Ref'
                                     },
                          '23814' => {
                                       'BaseType' => '16123',
                                       'Name' => 'outcome_v2::detail::basic_outcome_exception_observers<outcome_v2::detail::basic_result_final<NonTrivialType, long, outcome_v2::policy::terminate>, NonTrivialType, long, double, outcome_v2::policy::terminate>*',
                                       'Size' => '8',
                                       'Type' => 'Pointer'
                                     },
                          '23820' => {
                                       'BaseType' => '23814',
                                       'Name' => 'outcome_v2::detail::basic_outcome_exception_observers<outcome_v2::detail::basic_result_final<NonTrivialType, long, outcome_v2::policy::terminate>, NonTrivialType, long, double, outcome_v2::policy::terminate>*const',
                                       'Size' => '8',
                                       'Type' => 'Const'
                                     },
                          '23899' => {
                                       'BaseType' => '20418',
                                       'Name' => 'outcome_v2::basic_outcome<NonTrivialType, long, double, outcome_v2::policy::terminate>*',
                                       'Size' => '8',
                                       'Type' => 'Pointer'
                                     },
                          '23905' => {
                                       'BaseType' => '23899',
                                       'Name' => 'outcome_v2::basic_outcome<NonTrivialType, long, double, outcome_v2::policy::terminate>*const',
                                       'Size' => '8',
                                       'Type' => 'Const'
                                     },
                          '2431' => {
                                      'BaseType' => '2361',
                                      'Header' => undef,
                                      'Line' => '2389',
                                      'Name' => 'std::conditional_t',
                                      'NameSpace' => 'std',
                                      'Size' => '4',
                                      'Type' => 'Typedef'
                                    },
                          '25459' => {
                                       'BaseType' => '20418',
                                       'Header' => undef,
                                       'Line' => '45',
                                       'Name' => 'outcome',
                                       'Size' => '32',
                                       'Type' => 'Typedef'
                                     },
                          '25523' => {
                                       'BaseType' => '25459',
                                       'Name' => 'outcome&',
                                       'Size' => '8',
                                       'Type' => 'Ref'
                                     },
                          '25529' => {
                                       'BaseType' => '20706',
                                       'Name' => 'outcome_v2::basic_outcome<NonTrivialType, long, double, outcome_v2::policy::terminate>const&',
                                       'Size' => '8',
                                       'Type' => 'Ref'
                                     },
                          '25620' => {
                                       'BaseType' => '16488',
                                       'Name' => 'outcome_v2::detail::basic_outcome_exception_observers<outcome_v2::detail::basic_result_final<NonTrivialType, long, outcome_v2::policy::terminate>, NonTrivialType, long, double, outcome_v2::policy::terminate>const&',
                                       'Size' => '8',
                                       'Type' => 'Ref'
                                     },
                          '25781' => {
                                       'BaseType' => '19724',
                                       'Header' => undef,
                                       'Line' => '44',
                                       'Name' => 'result',
                                       'Size' => '24',
                                       'Type' => 'Typedef'
                                     },
                          '25845' => {
                                       'BaseType' => '25781',
                                       'Name' => 'result&',
                                       'Size' => '8',
                                       'Type' => 'Ref'
                                     },
                          '25932' => {
                                       'BaseType' => '15017',
                                       'Name' => 'outcome_v2::detail::basic_result_final<NonTrivialType, long, outcome_v2::policy::terminate>*',
                                       'Size' => '8',
                                       'Type' => 'Pointer'
                                     },
                          '25938' => {
                                       'BaseType' => '25932',
                                       'Name' => 'outcome_v2::detail::basic_result_final<NonTrivialType, long, outcome_v2::policy::terminate>*const',
                                       'Size' => '8',
                                       'Type' => 'Const'
                                     },
                          '25943' => {
                                       'BaseType' => '15357',
                                       'Name' => 'outcome_v2::detail::basic_result_final<NonTrivialType, long, outcome_v2::policy::terminate>const&',
                                       'Size' => '8',
                                       'Type' => 'Ref'
                                     },
                          '26034' => {
                                       'BaseType' => '15012',
                                       'Name' => 'outcome_v2::detail::basic_result_error_observers<outcome_v2::detail::basic_result_value_observers<outcome_v2::detail::basic_result_storage<NonTrivialType, long, outcome_v2::policy::terminate>, NonTrivialType, outcome_v2::policy::terminate>, long, outcome_v2::policy::terminate>const&',
                                       'Size' => '8',
                                       'Type' => 'Ref'
                                     },
                          '26125' => {
                                       'BaseType' => '14655',
                                       'Name' => 'outcome_v2::detail::basic_result_value_observers<outcome_v2::detail::basic_result_storage<NonTrivialType, long, outcome_v2::policy::terminate>, NonTrivialType, outcome_v2::policy::terminate>const&',
                                       'Size' => '8',
                                       'Type' => 'Ref'
                                     },
                          '2998' => {
                                      'Name' => 'unsigned short',
                                      'Size' => '2',
                                      'Type' => 'Intrinsic'
                                    },
                          '3012' => {
                                      'Name' => 'unsigned long',
                                      'Size' => '8',
                                      'Type' => 'Intrinsic'
                                    },
                          '3074' => {
                                      'BaseType' => '2998',
                                      'Header' => undef,
                                      'Line' => '40',
                                      'Name' => '__uint16_t',
                                      'Size' => '2',
                                      'Type' => 'Typedef'
                                    },
                          '3098' => {
                                      'Name' => 'int',
                                      'Size' => '4',
                                      'Type' => 'Intrinsic'
                                    },
                          '3129' => {
                                      'Name' => 'long',
                                      'Size' => '8',
                                      'Type' => 'Intrinsic'
                                    },
                          '3268' => {
                                      'BaseType' => '1',
                                      'Name' => 'void*',
                                      'Size' => '8',
                                      'Type' => 'Pointer'
                                    },
                          '3348' => {
                                      'BaseType' => '3074',
                                      'Header' => undef,
                                      'Line' => '25',
                                      'Name' => 'uint16_t',
                                      'Size' => '2',
                                      'Type' => 'Typedef'
                                    },
                          '3645' => {
                                      'Name' => 'double',
                                      'Size' => '8',
                                      'Type' => 'Intrinsic'
                                    },
                          '5956' => {
                                      'Name' => 'bool',
                                      'Size' => '1',
                                      'Type' => 'Intrinsic'
                                    },
                          '6166' => {
                                      'Header' => undef,
                                      'Line' => '1040',
                                      'Name' => 'struct outcome_v2::detail::empty_type',
                                      'NameSpace' => 'outcome_v2::detail',
                                      'Size' => '1',
                                      'Type' => 'Struct'
                                    },
                          '6328' => {
                                      'Header' => undef,
                                      'Line' => '2139',
                                      'Memb' => {
                                                  '0' => {
                                                           'name' => 'none',
                                                           'value' => '0'
                                                         },
                                                  '1' => {
                                                           'name' => 'have_value',
                                                           'value' => '1'
                                                         },
                                                  '10' => {
                                                            'name' => 'have_error_is_errno',
                                                            'value' => '16'
                                                          },
                                                  '11' => {
                                                            'name' => 'have_error_error_is_errno',
                                                            'value' => '18'
                                                          },
                                                  '12' => {
                                                            'name' => 'have_error_exception_error_is_errno',
                                                            'value' => '22'
                                                          },
                                                  '13' => {
                                                            'name' => 'have_error_lost_consistency_error_is_errno',
                                                            'value' => '26'
                                                          },
                                                  '14' => {
                                                            'name' => 'have_error_exception_lost_consistency_error_is_errno',
                                                            'value' => '30'
                                                          },
                                                  '15' => {
                                                            'name' => 'have_moved_from',
                                                            'value' => '32'
                                                          },
                                                  '2' => {
                                                           'name' => 'have_error',
                                                           'value' => '2'
                                                         },
                                                  '3' => {
                                                           'name' => 'have_exception',
                                                           'value' => '4'
                                                         },
                                                  '4' => {
                                                           'name' => 'have_error_exception',
                                                           'value' => '6'
                                                         },
                                                  '5' => {
                                                           'name' => 'have_lost_consistency',
                                                           'value' => '8'
                                                         },
                                                  '6' => {
                                                           'name' => 'have_value_lost_consistency',
                                                           'value' => '9'
                                                         },
                                                  '7' => {
                                                           'name' => 'have_error_lost_consistency',
                                                           'value' => '10'
                                                         },
                                                  '8' => {
                                                           'name' => 'have_exception_lost_consistency',
                                                           'value' => '12'
                                                         },
                                                  '9' => {
                                                           'name' => 'have_error_exception_lost_consistency',
                                                           'value' => '14'
                                                         }
                                                },
                                      'Name' => 'enum outcome_v2::detail::status',
                                      'NameSpace' => 'outcome_v2::detail',
                                      'Size' => '2',
                                      'Type' => 'Enum'
                                    },
                          '6444' => {
                                      'Header' => undef,
                                      'Line' => '2162',
                                      'Memb' => {
                                                  '0' => {
                                                           'name' => 'status_value',
                                                           'offset' => '0',
                                                           'type' => '6328'
                                                         },
                                                  '1' => {
                                                           'name' => 'spare_storage_value',
                                                           'offset' => '2',
                                                           'type' => '3348'
                                                         }
                                                },
                                      'Name' => 'struct outcome_v2::detail::status_bitfield_type',
                                      'NameSpace' => 'outcome_v2::detail',
                                      'Size' => '4',
                                      'Type' => 'Struct'
                                    },
                          '7122' => {
                                      'BaseType' => '6444',
                                      'Name' => 'struct outcome_v2::detail::status_bitfield_type const',
                                      'Size' => '4',
                                      'Type' => 'Const'
                                    },
                          '7265' => {
                                      'Header' => undef,
                                      'Line' => '2262',
                                      'Memb' => {
                                                  '0' => {
                                                           'name' => 'unnamed0',
                                                           'offset' => '0',
                                                           'type' => '7279'
                                                         },
                                                  '1' => {
                                                           'name' => '_status',
                                                           'offset' => '8',
                                                           'type' => '6444'
                                                         }
                                                },
                                      'Name' => 'struct outcome_v2::detail::value_storage_trivial<int, long>',
                                      'NameSpace' => 'outcome_v2::detail',
                                      'Size' => '16',
                                      'TParam' => {
                                                    '0' => {
                                                             'key' => 'T',
                                                             'type' => '3098'
                                                           },
                                                    '1' => {
                                                             'key' => 'E',
                                                             'type' => '3129'
                                                           }
                                                  },
                                      'Type' => 'Struct'
                                    },
                          '7279' => {
                                      'Header' => undef,
                                      'Line' => '2278',
                                      'Memb' => {
                                                  '0' => {
                                                           'name' => '_empty',
                                                           'offset' => '0',
                                                           'type' => '6166'
                                                         },
                                                  '1' => {
                                                           'name' => '_value',
                                                           'offset' => '0',
                                                           'type' => '7329'
                                                         },
                                                  '2' => {
                                                           'name' => '_error',
                                                           'offset' => '0',
                                                           'type' => '7342'
                                                         }
                                                },
                                      'NameSpace' => 'outcome_v2::detail::value_storage_trivial<int, long>',
                                      'Size' => '8',
                                      'Type' => 'Union'
                                    },
                          '7329' => {
                                      'BaseType' => '7659',
                                      'Header' => undef,
                                      'Line' => '2275',
                                      'Name' => 'outcome_v2::detail::value_storage_trivial<int, long>::_value_type_',
                                      'NameSpace' => 'outcome_v2::detail::value_storage_trivial<int, long>',
                                      'Size' => '4',
                                      'Type' => 'Typedef'
                                    },
                          '7342' => {
                                      'BaseType' => '7659',
                                      'Header' => undef,
                                      'Line' => '2276',
                                      'Name' => 'outcome_v2::detail::value_storage_trivial<int, long>::_error_type_',
                                      'NameSpace' => 'outcome_v2::detail::value_storage_trivial<int, long>',
                                      'Size' => '4',
                                      'Type' => 'Typedef'
                                    },
                          '7659' => {
                                      'BaseType' => '2431',
                                      'Header' => undef,
                                      'Line' => '1049',
                                      'Name' => 'outcome_v2::detail::devoid',
                                      'NameSpace' => 'outcome_v2::detail',
                                      'Size' => '4',
                                      'Type' => 'Typedef'
                                    },
                          '8344' => {
                                      'BaseType' => '8357',
                                      'Header' => undef,
                                      'Line' => '3076',
                                      'Name' => 'outcome_v2::detail::value_storage_select_impl',
                                      'NameSpace' => 'outcome_v2::detail',
                                      'Size' => '4',
                                      'Type' => 'Typedef'
                                    },
                          '8357' => {
                                      'BaseType' => '2431',
                                      'Header' => undef,
                                      'Line' => '3070',
                                      'Name' => 'outcome_v2::detail::value_storage_select_copy_assignment',
                                      'NameSpace' => 'outcome_v2::detail',
                                      'Size' => '4',
                                      'Type' => 'Typedef'
                                    }
                        },
          'UndefinedSymbols' => {
                                  'liboutcome-abi-lib-gcc9-cxx17.so' => {
                                                                          '_ITM_deregisterTMCloneTable' => 0,
                                                                          '_ITM_registerTMCloneTable' => 0,
                                                                          '__cxa_finalize@GLIBC_2.2.5' => 0,
                                                                          '__gmon_start__' => 0,
                                                                          '__stack_chk_fail@GLIBC_2.4' => 0
                                                                        }
                                },
          'WordSize' => '8'
        };
